BL51 BANKED LINKER/LOCATER V6.22                                                        11/17/2023  15:14:24  PAGE 1


BL51 BANKED LINKER/LOCATER V6.22, INVOKED BY:
C:\KEIL\C51\BIN\BL51.EXE D:\micom_diag\CK\AVN\FIRMWARE\Application\F50x_Target_App_InfoBlock.obj, D:\micom_diag\CK\AVN\F
>> IRMWARE\Application\main.obj, D:\micom_diag\CK\AVN\FIRMWARE\Application\Startup_WatchdogDisable.obj, D:\micom_diag\CK
>> \AVN\FIRMWARE\Application\drv_mcu.obj, BANK1 {D:\micom_diag\CK\AVN\FIRMWARE\Application\mgr_mcu.obj}, BANK1 {D:\micom
>> _diag\CK\AVN\FIRMWARE\Application\drv_timer.obj}, D:\micom_diag\CK\AVN\FIRMWARE\Application\drv_i2c.obj, BANK1 {D:\mi
>> com_diag\CK\AVN\FIRMWARE\Application\mgr_comm.obj}, BANK1 {D:\micom_diag\CK\AVN\FIRMWARE\Application\drv_can.obj}, BA
>> NK1 {D:\micom_diag\CK\AVN\FIRMWARE\Application\drv_pca.obj}, BANK1 {D:\micom_diag\CK\AVN\FIRMWARE\Application\drv_spi
>> .obj}, D:\micom_diag\CK\AVN\FIRMWARE\Application\L51_BANK.obj, BANK1 {D:\micom_diag\CK\AVN\FIRMWARE\Application\mgr_d
>> iag.obj}, BANK1 {D:\micom_diag\CK\AVN\FIRMWARE\Application\drv_mem.obj}, BANK1 {D:\micom_diag\CK\AVN\FIRMWARE\Applica
>> tion\mgr_isp.obj}, BANK1 {D:\micom_diag\CK\AVN\FIRMWARE\Application\drv_adc.obj}, D:\micom_diag\CK\AVN\FIRMWARE\Appli
>> cation\F50x_Target_Cam_InfoBlock.obj, D:\micom_diag\mcnex_diagnostic_bit\CanBSW\can_drv.obj, BANK1 {D:\micom_diag\mcn
>> ex_diagnostic_bit\CanBSW\il.obj}, BANK1 {D:\micom_diag\mcnex_diagnostic_bit\CanBSW\nm_basic.obj}, BANK1 {D:\micom_dia
>> g\mcnex_diagnostic_bit\CanBSW\sip_vers.obj}, BANK1 {D:\micom_diag\mcnex_diagnostic_bit\CanBSW\tpmc.obj}, BANK1 {D:\mi
>> com_diag\mcnex_diagnostic_bit\CanBSW\vstdlib.obj}, BANK2 {D:\micom_diag\mcnex_diagnostic_bit\CANGEN_MCNEX\appdesc.obj
>> }, BANK2 {D:\micom_diag\mcnex_diagnostic_bit\CANGEN_MCNEX\appdescdev.obj}, BANK1 {D:\micom_diag\mcnex_diagnostic_bit\
>> CANGEN_MCNEX\can_par.obj}, BANK1 {D:\micom_diag\mcnex_diagnostic_bit\CANGEN_MCNEX\desc.obj}, BANK2 {D:\micom_diag\mcn
>> ex_diagnostic_bit\CANGEN_MCNEX\drv_par.obj}, BANK1 {D:\micom_diag\mcnex_diagnostic_bit\CANGEN_MCNEX\il_par.obj}, BANK
>> 2 {D:\micom_diag\mcnex_diagnostic_bit\CANGEN_MCNEX\nmb_par.obj}, BANK2 {D:\micom_diag\mcnex_diagnostic_bit\CANGEN_MCN
>> EX\tp_par.obj}, BANK2 {D:\micom_diag\mcnex_diagnostic_bit\CANGEN_MCNEX\v_par.obj}, D:\micom_diag\CK\AVN\FIRMWARE\Appl
>> ication\F50x_Target_Optic_InfoBlock.obj TO D:\micom_diag\CK\AVN\FIRMWARE\Application\SteeringCamera_App.omf NOOL CODE
>>  (0X4000-0X7EFF) BANK0 (?CO?F50X_TARGET_APP_INFOBLOCK (0X7FF0)) OVERLAY (* !  (?PR?FLASH_RESETTRAP?DRV_MEM)) BANK1 (?
>> PR?FLASH_RESETTRAP?DRV_MEM (0XFE00), ?PR?_FLASH_BYTEWRITE?DRV_MEM, ?PR?_FLASH_PAGEERASE?DRV_MEM, ?CO?F50X_TARGET_CAM_
>> INFOBLOCK (0XFFF0)) BANK2 (?CO?F50X_TARGET_OPTIC_INFOBLOCK (0XFE00)) BANKAREA (8000H, 0FFFFH)


MEMORY MODEL: LARGE


INPUT MODULES INCLUDED:
  D:\micom_diag\CK\AVN\FIRMWARE\Application\F50x_Target_App_InfoBlock.obj (F50X_TARGET_APP_INFOBLOCK)
  D:\micom_diag\CK\AVN\FIRMWARE\Application\main.obj (MAIN)
  D:\micom_diag\CK\AVN\FIRMWARE\Application\Startup_WatchdogDisable.obj (?C_STARTUP)
  D:\micom_diag\CK\AVN\FIRMWARE\Application\drv_mcu.obj (DRV_MCU)
  D:\micom_diag\CK\AVN\FIRMWARE\Application\mgr_mcu.obj (MGR_MCU)
  D:\micom_diag\CK\AVN\FIRMWARE\Application\drv_timer.obj (DRV_TIMER)
  D:\micom_diag\CK\AVN\FIRMWARE\Application\drv_i2c.obj (DRV_I2C)
  D:\micom_diag\CK\AVN\FIRMWARE\Application\mgr_comm.obj (MGR_COMM)
  D:\micom_diag\CK\AVN\FIRMWARE\Application\drv_can.obj (DRV_CAN)
  D:\micom_diag\CK\AVN\FIRMWARE\Application\drv_pca.obj (DRV_PCA)
  D:\micom_diag\CK\AVN\FIRMWARE\Application\drv_spi.obj (DRV_SPI)
  D:\micom_diag\CK\AVN\FIRMWARE\Application\L51_BANK.obj (?BANK?SWITCHING)
  D:\micom_diag\CK\AVN\FIRMWARE\Application\mgr_diag.obj (MGR_DIAG)
  D:\micom_diag\CK\AVN\FIRMWARE\Application\drv_mem.obj (DRV_MEM)
  D:\micom_diag\CK\AVN\FIRMWARE\Application\mgr_isp.obj (MGR_ISP)
  D:\micom_diag\CK\AVN\FIRMWARE\Application\drv_adc.obj (DRV_ADC)
  D:\micom_diag\CK\AVN\FIRMWARE\Application\F50x_Target_Cam_InfoBlock.obj (F50X_TARGET_CAM_INFOBLOCK)
  D:\micom_diag\mcnex_diagnostic_bit\CanBSW\can_drv.obj (CAN_DRV)
  D:\micom_diag\mcnex_diagnostic_bit\CanBSW\il.obj (IL)
  D:\micom_diag\mcnex_diagnostic_bit\CanBSW\nm_basic.obj (NM_BASIC)
  D:\micom_diag\mcnex_diagnostic_bit\CanBSW\sip_vers.obj (SIP_VERS)
  D:\micom_diag\mcnex_diagnostic_bit\CanBSW\tpmc.obj (TPMC)
  D:\micom_diag\mcnex_diagnostic_bit\CanBSW\vstdlib.obj (VSTDLIB)
  D:\micom_diag\mcnex_diagnostic_bit\CANGEN_MCNEX\appdesc.obj (APPDESC)
  D:\micom_diag\mcnex_diagnostic_bit\CANGEN_MCNEX\appdescdev.obj (APPDESCDEV)
  D:\micom_diag\mcnex_diagnostic_bit\CANGEN_MCNEX\can_par.obj (CAN_PAR)
  D:\micom_diag\mcnex_diagnostic_bit\CANGEN_MCNEX\desc.obj (DESC)
  D:\micom_diag\mcnex_diagnostic_bit\CANGEN_MCNEX\drv_par.obj (DRV_PAR)
  D:\micom_diag\mcnex_diagnostic_bit\CANGEN_MCNEX\il_par.obj (IL_PAR)
BL51 BANKED LINKER/LOCATER V6.22                                                      11/17/2023  15:14:24  PAGE 2


  D:\micom_diag\mcnex_diagnostic_bit\CANGEN_MCNEX\nmb_par.obj (NMB_PAR)
  D:\micom_diag\mcnex_diagnostic_bit\CANGEN_MCNEX\tp_par.obj (TP_PAR)
  D:\micom_diag\mcnex_diagnostic_bit\CANGEN_MCNEX\v_par.obj (V_PAR)
  D:\micom_diag\CK\AVN\FIRMWARE\Application\F50x_Target_Optic_InfoBlock.obj (F50X_TARGET_OPTIC_INFOBLOCK)
  C:\KEIL\C51\LIB\C51L.LIB (?C_INIT)
  C:\KEIL\C51\LIB\C51L.LIB (?C?COPY)
  C:\KEIL\C51\LIB\C51L.LIB (?C?CLDPTR)
  C:\KEIL\C51\LIB\C51L.LIB (?C?CLDOPTR)
  C:\KEIL\C51\LIB\C51L.LIB (?C?CILDPTR)
  C:\KEIL\C51\LIB\C51L.LIB (?C?CILDOPTR)
  C:\KEIL\C51\LIB\C51L.LIB (?C?CSTPTR)
  C:\KEIL\C51\LIB\C51L.LIB (?C?CSTOPTR)
  C:\KEIL\C51\LIB\C51L.LIB (?C?IMUL)
  C:\KEIL\C51\LIB\C51L.LIB (?C?UIDIV)
  C:\KEIL\C51\LIB\C51L.LIB (?C?IILDX)
  C:\KEIL\C51\LIB\C51L.LIB (?C?ILDPTR)
  C:\KEIL\C51\LIB\C51L.LIB (?C?ILDOPTR)
  C:\KEIL\C51\LIB\C51L.LIB (?C?ILDIOPTR)
  C:\KEIL\C51\LIB\C51L.LIB (?C?IILDOPTR)
  C:\KEIL\C51\LIB\C51L.LIB (?C?ISTPTR)
  C:\KEIL\C51\LIB\C51L.LIB (?C?ISTOPTR)
  C:\KEIL\C51\LIB\C51L.LIB (?C?LMUL)
  C:\KEIL\C51\LIB\C51L.LIB (?C?ULDIV)
  C:\KEIL\C51\LIB\C51L.LIB (?C?SLDIV)
  C:\KEIL\C51\LIB\C51L.LIB (?C?ULCMP)
  C:\KEIL\C51\LIB\C51L.LIB (?C?ULSHR)
  C:\KEIL\C51\LIB\C51L.LIB (?C?LSHL)
  C:\KEIL\C51\LIB\C51L.LIB (?C?LSTXDATA)
  C:\KEIL\C51\LIB\C51L.LIB (?C?LSTKXDATA)
  C:\KEIL\C51\LIB\C51L.LIB (?C?OFFXADD)
  C:\KEIL\C51\LIB\C51L.LIB (?C?PLDPTR)
  C:\KEIL\C51\LIB\C51L.LIB (?C?PLDOPTR)
  C:\KEIL\C51\LIB\C51L.LIB (?C?PSTOPTR)
  C:\KEIL\C51\LIB\C51L.LIB (?C?ICALL)
  C:\KEIL\C51\LIB\C51L.LIB (?C_XBP)
  C:\KEIL\C51\LIB\C51L.LIB (?C?ADDXBP)
  C:\KEIL\C51\LIB\C51L.LIB (?C?XBPOFF)
  C:\KEIL\C51\LIB\C51L.LIB (?C?LIMUL)
  C:\KEIL\C51\LIB\C51L.LIB (ABS)
  C:\KEIL\C51\LIB\C51L.LIB (?C?MEMCMP)
  C:\KEIL\C51\LIB\C51L.LIB (?C?MEMSET)
  C:\KEIL\C51\LIB\C51L.LIB (?C?ILDIX)
  C:\KEIL\C51\LIB\C51L.LIB (?C?PLDIDATA)
  C:\KEIL\C51\LIB\C51L.LIB (?C?PSTIDATA)
  C:\KEIL\C51\LIB\C51L.LIB (?C?PLDXDATA)
  C:\KEIL\C51\LIB\C51L.LIB (?C?PSTXDATA)
  C:\KEIL\C51\LIB\C51L.LIB (?C?PLDPDATA)
  C:\KEIL\C51\LIB\C51L.LIB (?C?PSTPDATA)
  C:\KEIL\C51\LIB\C51L.LIB (?C?PLDCODE)


LINK MAP OF MODULE:  D:\micom_diag\CK\AVN\FIRMWARE\Application\SteeringCamera_App.omf (F50X_TARGET_APP_INFOBLOCK)


            TYPE    BASE      LENGTH    RELOCATION   SEGMENT NAME
            -----------------------------------------------------

BL51 BANKED LINKER/LOCATER V6.22                                                      11/17/2023  15:14:24  PAGE 3


            * * * * * * *   D A T A   M E M O R Y   * * * * * * *
            REG     0000H     0008H     ABSOLUTE     "REG BANK 0"
            REG     0008H     0008H     ABSOLUTE     "REG BANK 1"
            DATA    0010H     0003H     UNIT         ?DT?DOORBELLCHECK?MGR_ISP
            DATA    0013H     0002H     UNIT         ?DT?_FLASH_BYTEWRITE?DRV_MEM
            DATA    0015H     0002H     UNIT         ?DT?_FLASH_BYTEREAD?DRV_MEM
            DATA    0017H     0002H     UNIT         ?DT?_FLASH_PAGEERASE?DRV_MEM
            DATA    0019H     0002H     UNIT         ?DT?_OVERLAY_GUIDELINE?MGR_ISP
            DATA    001BH     0002H     UNIT         ?DT?_WARNING_MSG?MGR_ISP
            DATA    001DH     0002H     UNIT         ?DT?_SENSOR_XY_OFFSET_SET?MGR_ISP
            DATA    001FH     0001H     UNIT         ?BANK?DATA
            BIT     0020H.0   0000H.1   UNIT         ?BI?MAIN
            BIT     0020H.1   0000H.1   UNIT         ?BI?_FLASH_BYTEWRITE?DRV_MEM
            BIT     0020H.2   0000H.1   UNIT         ?BI?_FLASH_BYTEREAD?DRV_MEM
            BIT     0020H.3   0000H.1   UNIT         ?BI?_FLASH_PAGEERASE?DRV_MEM
                    0020H.4   0000H.4                *** GAP ***
            DATA    0021H     0002H     UNIT         ?C?LIB_DATA
            IDATA   0023H     0029H     UNIT         ?ID?TPMC
            IDATA   004CH     0003H     UNIT         ?ID?IL
            IDATA   004FH     0001H     UNIT         ?ID?CAN_DRV
            IDATA   0050H     0001H     UNIT         ?STACK

            * * * * * * *  X D A T A   M E M O R Y  * * * * * * *
            XDATA   0000H     0231H     UNIT         ?XD?MGR_DIAG
            XDATA   0231H     0160H     UNIT         ?XD?DESC
            XDATA   0391H     0107H     UNIT         ?XD?_DIAG_WRITE_TRANSFER_DATA?MGR_DIAG
            XDATA   0498H     00E6H     UNIT         ?XD?DRV_TIMER
            XDATA   057EH     0069H     UNIT         ?XD?MGR_COMM
            XDATA   05E7H     0065H     UNIT         ?XD?CAN_DRV
            XDATA   064CH     0040H     UNIT         ?XD?_APPLDESCWRITEMEMORYBYADDRESS?APPDESC
            XDATA   068CH     003FH     UNIT         ?XD?FLASH_DTC_WRITE?MGR_DIAG
            XDATA   06CBH     003BH     UNIT         ?XD?MAIN
            XDATA   0706H     0036H     UNIT         ?XD?MGR_ISP
            XDATA   073CH     002FH     UNIT         ?XD?_DIAG_WRITE_SYS?MGR_DIAG
            XDATA   076BH     002DH     UNIT         ?XD?_SYS_FLASH_READ?MGR_DIAG
            XDATA   0798H     0029H     UNIT         ?XD?DRV_CAN
            XDATA   07C1H     0024H     UNIT         ?XD?FLASH_ONESPEC_WRITE?MGR_COMM
            XDATA   07E5H     0023H     UNIT         ?XD?_DIAG_READ_ADDRESS?MGR_DIAG
            XDATA   0808H     0023H     UNIT         ?XD?DRV_PAR
            XDATA   082BH     0022H     UNIT         ?XD?FLASH_DTC_READ?MGR_DIAG
            XDATA   084DH     001DH     UNIT         ?XD?_DIAG_READ_SYS?MGR_DIAG
            XDATA   086AH     0013H     UNIT         ?XD?_APPLDESCREADDIDCAMERA_RECORD_DATA_IDENTIFIER?APPDESC
            XDATA   087DH     0012H     UNIT         ?XD?DRV_I2C
            XDATA   088FH     0011H     UNIT         ?XD?IL
            XDATA   08A0H     0010H     UNIT         ?XD?FLASH_ONESPEC_READ?MGR_COMM
            XDATA   08B0H     000FH     UNIT         ?XD?_APPLDESCREADDIDCANDATABASVERSIONIDENTIFIER?APPDESC
            XDATA   08BFH     000DH     UNIT         ?XD?_APPLDESCREADDIDOEMSPAREPARTNUMBERDATAIDENTIFIER?APPDESC
            XDATA   08CCH     000CH     UNIT         ?XD?_DESCFINDSVCINST?DESC
            XDATA   08D8H     000BH     UNIT         ?XD?_FLASH_WRITE?DRV_SPI
            XDATA   08E3H     000BH     UNIT         ?XD?_DIAG_EXTRA_DATA_PROCESS?MGR_DIAG
            XDATA   08EEH     000BH     UNIT         ?XD?_FLASH_WRITE_BUF?DRV_MEM
            XDATA   08F9H     000BH     UNIT         ?XD?_FLASH_READ_BUF?DRV_MEM
            XDATA   0904H     000BH     UNIT         ?XD?_APPLDESCREADDIDECUMANUFACTURINGDATEDATAIDENTIFIER?APPDESC
            XDATA   090FH     000BH     UNIT         ?XD?_APPLDESCRTNCTRLSTARTERASE_MEMORY?APPDESC
            XDATA   091AH     000BH     UNIT         ?XD?_APPLDESCRTNCTRLSTOPERASE_MEMORY?APPDESC
            XDATA   0925H     000AH     UNIT         ?XD?_COMM_I2C_RX?MGR_COMM
            XDATA   092FH     000AH     UNIT         ?XD?TPTXPRECANTRANSMIT?TPMC
BL51 BANKED LINKER/LOCATER V6.22                                                      11/17/2023  15:14:24  PAGE 4


            XDATA   0939H     0009H     UNIT         ?XD?CANHL_RECEIVEDRXHANDLE?CAN_DRV
            XDATA   0942H     0009H     UNIT         ?XD?APPDESC
            XDATA   094BH     0009H     UNIT         ?XD?_DESCUSDTNETISOTPTRANSMITRESPONSE?DESC
            XDATA   0954H     0009H     UNIT         ?XD?DESCDISPATCHER?DESC
            XDATA   095DH     0008H     UNIT         ?XD?TEMPERATURE_COMPUTE?MAIN
            XDATA   0965H     0008H     UNIT         ?XD?_COMM_I2C_TX?MGR_COMM
            XDATA   096DH     0008H     UNIT         ?XD?_CAN_RX_SAS_PROCESS?DRV_CAN
            XDATA   0975H     0008H     UNIT         ?XD?_CANHL_TXCONFIRMATION?CAN_DRV
            XDATA   097DH     0008H     UNIT         ?XD?NM_BASIC
            XDATA   0985H     0008H     UNIT         ?XD?_SECM_SERIALIZER?APPDESC
            XDATA   098DH     0008H     UNIT         ?XD?_DESCGETSESSIONTIMINGS?DESC
            XDATA   0995H     0007H     UNIT         ?XD?_I2C_MASTER_WRITE?DRV_I2C
            XDATA   099CH     0007H     UNIT         ?XD?_FLASH_BYTEWRITE?DRV_MEM
            XDATA   09A3H     0007H     UNIT         ?XD?SECM_COMPUTEKEY?APPDESC
            XDATA   09AAH     0007H     UNIT         ?XD?_APPLDESCSECURITYACCESSCHECKKEY?APPDESC
            XDATA   09B1H     0006H     UNIT         ?XD?_FLASH_PAGEERASE?DRV_MEM
            XDATA   09B7H     0006H     UNIT         ?XD?_CANINIT?CAN_DRV
            XDATA   09BDH     0006H     UNIT         ?XD?_APPLDESCREADDIDSYSTEMSUPPLIERECUHARDWAREVERSIONNUMBERDATAIDENT
>> IFIER?APPDESC
            XDATA   09C3H     0006H     UNIT         ?XD?_APPLDESCREADDIDSYSTEMSUPPLIERECUSOFTWAREVERSIONNUMBERDATAIDENT
>> IFIER?APPDESC
            XDATA   09C9H     0006H     UNIT         ?XD?_DESCGETBUFFER?DESC
            XDATA   09CFH     0005H     UNIT         ?XD?_I2C_MASTER_READ?DRV_I2C
            XDATA   09D4H     0005H     UNIT         ?XD?_DIAG_CALIBRATION_MODE?MGR_DIAG
            XDATA   09D9H     0005H     UNIT         ?XD?ISP_PARKING_ASSIST_VIEW?MGR_ISP
            XDATA   09DEH     0005H     UNIT         ?XD?ILRXTIMERTASK?IL
            XDATA   09E3H     0005H     UNIT         ?XD?_TPTRANSMIT?TPMC
            XDATA   09E8H     0005H     UNIT         ?XD?_APPLDESCREADDTCRDTCBSM?APPDESC
            XDATA   09EDH     0005H     UNIT         ?XD?_APPLDESCSECURITYACCESSGETSEED?APPDESC
            XDATA   09F2H     0005H     UNIT         ?XD?_DESCGETSESSIONSTATEOFSESSIONID?DESC
            XDATA   09F7H     0005H     UNIT         ?XD?_DESCOEMCOMMONCOMMCTRL?DESC
            XDATA   09FCH     0005H     UNIT         ?XD?_DESCOEMSECURITYKEY?DESC
            XDATA   0A01H     0004H     UNIT         ?XD?_FLASH_ERASESECTOR?DRV_SPI
            XDATA   0A05H     0004H     UNIT         ?XD?OPERATE_DIAGTASK?MGR_DIAG
            XDATA   0A09H     0004H     UNIT         ?XD?_CANCANCELTRANSMIT?CAN_DRV
            XDATA   0A0DH     0004H     UNIT         ?XD?_CANFULLCANMSGRECEIVED?CAN_DRV
            XDATA   0A11H     0004H     UNIT         ?XD?_TPPRECOPY?TPMC
            XDATA   0A15H     0004H     UNIT         ?XD?TPTXSTATETASK?TPMC
            XDATA   0A19H     0004H     UNIT         ?XD?TPRXSTATETASK?TPMC
            XDATA   0A1DH     0004H     UNIT         ?XD?_TPFUNCPRECOPY?TPMC
            XDATA   0A21H     0004H     UNIT         ?XD?_APPLDESCONTRANSITIONSESSION?APPDESC
            XDATA   0A25H     0004H     UNIT         ?XD?_APPLDESCONTRANSITIONSECURITYACCESS?APPDESC
            XDATA   0A29H     0004H     UNIT         ?XD?_APPLDESCTRANSFERDATA?APPDESC
            XDATA   0A2DH     0004H     UNIT         ?XD?_APPLDESCCHECKSESSIONTRANSITION?APPDESC
            XDATA   0A31H     0004H     UNIT         ?XD?_DESCGETFUNCBUFFER?DESC
            XDATA   0A35H     0004H     UNIT         ?XD?_DESCUSDTNETABSFINISHRECEPTION?DESC
            XDATA   0A39H     0004H     UNIT         ?XD?_DESCONTRANSITIONSTATESESSION?DESC
            XDATA   0A3DH     0004H     UNIT         ?XD?_DESCGETSVCINSTREQHEADEXT?DESC
            XDATA   0A41H     0004H     UNIT         ?XD?DESCFINALPROCESSINGDONE?DESC
            XDATA   0A45H     0004H     UNIT         ?XD?_DESCOEMENABLECOMMUNICATION?DESC
            XDATA   0A49H     0004H     UNIT         ?XD?_DESCROUTINECONTROLBYIDENTIFIER?DESC
            XDATA   0A4DH     0004H     UNIT         ?XD?DESCPIDDISPATCHER?DESC
            XDATA   0A51H     0003H     UNIT         ?XD?_WAIT_MS?DRV_TIMER
            XDATA   0A54H     0003H     UNIT         ?XD?_DELAY_TIME_SET?DRV_TIMER
            XDATA   0A57H     0003H     UNIT         ?XD?_IS_CHATTERING?DRV_CAN
            XDATA   0A5AH     0003H     UNIT         ?XD?_CAN_RX_DATA_G_SEL_DISP_PROCESS?DRV_CAN
            XDATA   0A5DH     0003H     UNIT         ?XD?_CAN_RX_DATA_IGN_SW_PROCESS?DRV_CAN
BL51 BANKED LINKER/LOCATER V6.22                                                      11/17/2023  15:14:24  PAGE 5


            XDATA   0A60H     0003H     UNIT         ?XD?_CAN_RX_DATA_RVM_CAMERAOFF_PROCESS?DRV_CAN
            XDATA   0A63H     0003H     UNIT         ?XD?_CAN_RX_DATA_FCZC_RVM_SW_PROCESS?DRV_CAN
            XDATA   0A66H     0003H     UNIT         ?XD?_CAN_RX_DATA_4WD_ERR_PROCESS?DRV_CAN
            XDATA   0A69H     0003H     UNIT         ?XD?_CAN_RX_DATA_ENG_VOL_PROCESS?DRV_CAN
            XDATA   0A6CH     0003H     UNIT         ?XD?_CAN_RX_DATA_PROCESS?DRV_CAN
            XDATA   0A6FH     0003H     UNIT         ?XD?_READ_GUIDE_VALUE?DRV_SPI
            XDATA   0A72H     0003H     UNIT         ?XD?ISP_INTERINIT?MGR_ISP
            XDATA   0A75H     0003H     UNIT         ?XD?_OVERLAY_GUIDELINE?MGR_ISP
            XDATA   0A78H     0003H     UNIT         ?XD?_WARNING_MSG?MGR_ISP
            XDATA   0A7BH     0003H     UNIT         ?XD?DRV_ADC
            XDATA   0A7EH     0003H     UNIT         ?XD?_CANLL_HANDLEILLIRPTNUMBER?CAN_DRV
            XDATA   0A81H     0003H     UNIT         ?XD?CAN_CELLISR?CAN_DRV
            XDATA   0A84H     0003H     UNIT         ?XD?ILTXSTATETASK?IL
            XDATA   0A87H     0003H     UNIT         ?XD?_APPLDESCFATALERROR?APPDESC
            XDATA   0A8AH     0003H     UNIT         ?XD?_APPLDESCECURESETHARD?APPDESC
            XDATA   0A8DH     0003H     UNIT         ?XD?_APPLDESCECURESETSOFT?APPDESC
            XDATA   0A90H     0003H     UNIT         ?XD?_APPLDESCCLEARDIAGINFO?APPDESC
            XDATA   0A93H     0003H     UNIT         ?XD?_APPLDESCREADMEMORYBYADDRESS?APPDESC
            XDATA   0A96H     0003H     UNIT         ?XD?_APPLDESCREQUESTDOWNLOAD?APPDESC
            XDATA   0A99H     0003H     UNIT         ?XD?_APPLDESCREQUESTTRANSFEREXIT?APPDESC
            XDATA   0A9CH     0003H     UNIT         ?XD?_APPLDESCCONTROLDTCSETTINGENABLE?APPDESC
            XDATA   0A9FH     0003H     UNIT         ?XD?_APPLDESCCONTROLDTCSETTINGDISABLE?APPDESC
            XDATA   0AA2H     0003H     UNIT         ?XD?_APPLDESCCHECKCOMMCTRL?APPDESC
            XDATA   0AA5H     0003H     UNIT         ?XD?_APPLDESCSETCOMMMODEONRXPATH?APPDESC
            XDATA   0AA8H     0003H     UNIT         ?XD?_APPLDESCREADDIDCAMERA_SYSTEM_ON_TIME?APPDESC
            XDATA   0AABH     0003H     UNIT         ?XD?_APPLDESCREADDIDCAMERA_OPERATING_TIME_AND_SYSTEM_ON?APPDESC
            XDATA   0AAEH     0003H     UNIT         ?XD?_APPLDESCREADDIDCAMERA_WARNING_TEXT_LANGUAGE?APPDESC
            XDATA   0AB1H     0003H     UNIT         ?XD?_APPLDESCREADDIDCAMERA_RESET_COUNTER?APPDESC
            XDATA   0AB4H     0003H     UNIT         ?XD?_APPLDESCRTNCTRLSTARTCAMERA_GUIDELINE_OFF?APPDESC
            XDATA   0AB7H     0003H     UNIT         ?XD?_DESCUSDTNETISOTPPREPARERESPONSE?DESC
            XDATA   0ABAH     0003H     UNIT         ?XD?_DESCUSDTNETISOTPCOPYTOCAN?DESC
            XDATA   0ABDH     0003H     UNIT         ?XD?_DESCUSDTNETISOTPRELEASEINFOPOOL?DESC
            XDATA   0AC0H     0003H     UNIT         ?XD?_DESCISTESTERPRESENT?DESC
            XDATA   0AC3H     0003H     UNIT         ?XD?_DESCUSDTNETABSFINISHTRANSMISSION?DESC
            XDATA   0AC6H     0003H     UNIT         ?XD?_DESCGETSESSIONIDOFSESSIONSTATE?DESC
            XDATA   0AC9H     0003H     UNIT         ?XD?_DESCOEMPROCESSTESTERPRESENT?DESC
            XDATA   0ACCH     0003H     UNIT         ?XD?_DESCOEMCOMMONCOMMCTRLPROCESS?DESC
            XDATA   0ACFH     0003H     UNIT         ?XD?_DESCOEMCOMMONSESSIONPOSTPROCESSING?DESC
            XDATA   0AD2H     0002H     UNIT         ?XD?MAIN?MAIN
            XDATA   0AD4H     0002H     UNIT         ?XD?_DELAY_TIME_GET?DRV_TIMER
            XDATA   0AD6H     0002H     UNIT         ?XD?SMB_WRITE?DRV_I2C
            XDATA   0AD8H     0002H     UNIT         ?XD?SMB_READ?DRV_I2C
            XDATA   0ADAH     0002H     UNIT         ?XD?COMM_ERROR_CHECK?MGR_COMM
            XDATA   0ADCH     0002H     UNIT         ?XD?_ISR_SAS?DRV_CAN
            XDATA   0ADEH     0002H     UNIT         ?XD?_ISR_HUTYPE?DRV_CAN
            XDATA   0AE0H     0002H     UNIT         ?XD?_ISR_NAVIONOFF?DRV_CAN
            XDATA   0AE2H     0002H     UNIT         ?XD?_ISR_COUNTRYCFG?DRV_CAN
            XDATA   0AE4H     0002H     UNIT         ?XD?_ISR_LANGUAGEINFO?DRV_CAN
            XDATA   0AE6H     0002H     UNIT         ?XD?_ISR_MDPSTYPE?DRV_CAN
            XDATA   0AE8H     0002H     UNIT         ?XD?_ISR_RVMCAMERAOFF?DRV_CAN
            XDATA   0AEAH     0002H     UNIT         ?XD?_ISR_IGNSW?DRV_CAN
            XDATA   0AECH     0002H     UNIT         ?XD?_ISR_FCZCRVMSW?DRV_CAN
            XDATA   0AEEH     0002H     UNIT         ?XD?_ISR_GSELPDISP?DRV_CAN
            XDATA   0AF0H     0002H     UNIT         ?XD?_ISR_ENGVOL?DRV_CAN
            XDATA   0AF2H     0002H     UNIT         ?XD?_ISR_WD4ERR?DRV_CAN
            XDATA   0AF4H     0002H     UNIT         ?XD?DRV_SPI
            XDATA   0AF6H     0002H     UNIT         ?XD?DIAG_GET_TIME?MGR_DIAG
BL51 BANKED LINKER/LOCATER V6.22                                                      11/17/2023  15:14:24  PAGE 6


            XDATA   0AF8H     0002H     UNIT         ?XD?DRV_MEM
            XDATA   0AFAH     0002H     UNIT         ?XD?_ISP_VIEW_MODE_CHANGE?MGR_ISP
            XDATA   0AFCH     0002H     UNIT         ?XD?_SENSOR_XY_OFFSET_SET?MGR_ISP
            XDATA   0AFEH     0002H     UNIT         ?XD?ILINIT?IL
            XDATA   0B00H     0002H     UNIT         ?XD?_APPLCANINIT?NM_BASIC
            XDATA   0B02H     0002H     UNIT         ?XD?_TPTXINIT?TPMC
            XDATA   0B04H     0002H     UNIT         ?XD?_TPDRVCONFIRMATION?TPMC
            XDATA   0B06H     0002H     UNIT         ?XD?VSTDLIB
            XDATA   0B08H     0002H     UNIT         ?XD?_CANRXHU_MON_PE_01INDICATIONFCT?CAN_PAR
            XDATA   0B0AH     0002H     UNIT         ?XD?_CANRXCGW4INDICATIONFCT?CAN_PAR
            XDATA   0B0CH     0002H     UNIT         ?XD?_CANRXCGW2INDICATIONFCT?CAN_PAR
            XDATA   0B0EH     0002H     UNIT         ?XD?_CANRXCLU15INDICATIONFCT?CAN_PAR
            XDATA   0B10H     0002H     UNIT         ?XD?_CANRXMDPS11INDICATIONFCT?CAN_PAR
            XDATA   0B12H     0002H     UNIT         ?XD?_CANRXSAS1INDICATIONFCT?CAN_PAR
            XDATA   0B14H     0002H     UNIT         ?XD?CHECKTABLECONSISTENCY?DESC
            XDATA   0B16H     0002H     UNIT         ?XD?_DESCPHYSREQIND?DESC
            XDATA   0B18H     0002H     UNIT         ?XD?_DESCFUNCREQIND?DESC
            XDATA   0B1AH     0002H     UNIT         ?XD?_DESCSETSTATESESSION?DESC
            XDATA   0B1CH     0002H     UNIT         ?XD?_DESCSETSTATESECURITYACCESS?DESC
            XDATA   0B1EH     0002H     UNIT         ?XD?_DESCSETSTATE?DESC
            XDATA   0B20H     0002H     UNIT         ?XD?_DESCOEMPREPARESESSIONCONTROL?DESC
            XDATA   0B22H     0002H     UNIT         ?XD?_DESCOEMSECURITYSEED?DESC
            XDATA   0B24H     0002H     UNIT         ?XD?_DESCPMGETPIDPOOLHANDLE?DESC
            XDATA   0B26H     0002H     UNIT         ?XD?ILGETRXSAS_ANGLE?IL_PAR
            XDATA   0B28H     0001H     UNIT         ?XD?TIMER2_ISR?MAIN
            XDATA   0B29H     0001H     UNIT         ?XD?ADC_ISR?MAIN
            XDATA   0B2AH     0001H     UNIT         ?XD?DRV_MCU
            XDATA   0B2BH     0001H     UNIT         ?XD?MGR_MCU
            XDATA   0B2CH     0001H     UNIT         ?XD?OPERATE_MCUTASK?MGR_MCU
            XDATA   0B2DH     0001H     UNIT         ?XD?INIT_COMMTASK?MGR_COMM
            XDATA   0B2EH     0001H     UNIT         ?XD?OPERATE_COMMTASK?MGR_COMM
            XDATA   0B2FH     0001H     UNIT         ?XD?APPLNMBASICFIRSTBUSOFFSLOW?DRV_CAN
            XDATA   0B30H     0001H     UNIT         ?XD?_SPI_MASTER_READ?DRV_SPI
            XDATA   0B31H     0001H     UNIT         ?XD?_SPI_MASTER_WRITE?DRV_SPI
            XDATA   0B32H     0001H     UNIT         ?XD?CHECK_FLASH_ID?DRV_SPI
            XDATA   0B33H     0001H     UNIT         ?XD?_RECORD_DTC_ERROR?MGR_DIAG
            XDATA   0B34H     0001H     UNIT         ?XD?OPERATE_ISPTASK?MGR_ISP
            XDATA   0B35H     0001H     UNIT         ?XD?CHECK_ISP_INITSTATE?MGR_ISP
            XDATA   0B36H     0001H     UNIT         ?XD?FRAME_VALIDE_CHECK?MGR_ISP
            XDATA   0B37H     0001H     UNIT         ?XD?VIDEO_SIGNAL_CHECK?MGR_ISP
            XDATA   0B38H     0001H     UNIT         ?XD?DOORBELLCHECK?MGR_ISP
            XDATA   0B39H     0001H     UNIT         ?XD?CHECKCOMMANDSTATUSLOOP?MGR_ISP
            XDATA   0B3AH     0001H     UNIT         ?XD?_FIXED_GUIDLINE_ON?MGR_ISP
            XDATA   0B3BH     0001H     UNIT         ?XD?CANHL_ERRORHANDLING?CAN_DRV
            XDATA   0B3CH     0001H     UNIT         ?XD?CANONLINE?CAN_DRV
            XDATA   0B3DH     0001H     UNIT         ?XD?_CANSETPARTOFFLINE?CAN_DRV
            XDATA   0B3EH     0001H     UNIT         ?XD?_CANSETPARTONLINE?CAN_DRV
            XDATA   0B3FH     0001H     UNIT         ?XD?CANSTOP?CAN_DRV
            XDATA   0B40H     0001H     UNIT         ?XD?CANSTART?CAN_DRV
            XDATA   0B41H     0001H     UNIT         ?XD?_ILSENDMESSAGE?IL
            XDATA   0B42H     0001H     UNIT         ?XD?ILRXSTART?IL
            XDATA   0B43H     0001H     UNIT         ?XD?ILTXSTART?IL
            XDATA   0B44H     0001H     UNIT         ?XD?ILRXRELEASE?IL
            XDATA   0B45H     0001H     UNIT         ?XD?ILTXTIMERTASK?IL
            XDATA   0B46H     0001H     UNIT         ?XD?_APPLCANTXOBJSTART?NM_BASIC
            XDATA   0B47H     0001H     UNIT         ?XD?_APPLCANTXOBJCONFIRMED?NM_BASIC
            XDATA   0B48H     0001H     UNIT         ?XD?_TPRXINIT?TPMC
BL51 BANKED LINKER/LOCATER V6.22                                                      11/17/2023  15:14:24  PAGE 7


            XDATA   0B49H     0001H     UNIT         ?XD?DESCUSDTNETISOTPINIT?DESC
            XDATA   0B4AH     0001H     UNIT         ?XD?_DESCRXERRORINDICATION?DESC
            XDATA   0B4BH     0001H     UNIT         ?XD?_DESCGETSVCINSTRESHEADEXT?DESC
            XDATA   0B4CH     0001H     UNIT         ?XD?_DESCINITPOWERON?DESC
            XDATA   0B4DH     0001H     UNIT         ?XD?_DESCINIT?DESC
            XDATA   0B4EH     0001H     UNIT         ?XD?DESCCONTEXTSTATETASK?DESC
            XDATA   0B4FH     0001H     UNIT         ?XD?_DESCDUMMYPOSTHANDLER?DESC
            XDATA   0B50H     0001H     UNIT         ?XD?DESCSECURITYACCESSTIMER?DESC
            XDATA   0B51H     0001H     UNIT         ?XD?_DESCPOSTREADDATABYIDENTIFIER?DESC

            * * * * * * *   C O D E   M E M O R Y   * * * * * * *
                    0000H     00C3H                  *** GAP ***
            CODE    00C3H     0003H     ABSOLUTE     
                    00C6H     3F3AH                  *** GAP ***
            CODE    4000H     0003H     ABSOLUTE     
            CODE    4003H     000FH     UNIT         ?PR?EXINTERRUPT_INIT?DRV_MCU
                    4012H     0001H                  *** GAP ***
            CODE    4013H     0003H     ABSOLUTE     
            CODE    4016H     0015H     UNIT         ?PR?CANSTART?CAN_DRV
            CODE    402BH     0003H     ABSOLUTE     
            CODE    402EH     000CH     UNIT         ?BANK?SELECT
                    403AH     0001H                  *** GAP ***
            CODE    403BH     0003H     ABSOLUTE     
            CODE    403EH     000CH     UNIT         ?PR?_ABS?ABS
                    404AH     0001H                  *** GAP ***
            CODE    404BH     0003H     ABSOLUTE     
            CODE    404EH     001DH     UNIT         ?PR?TIMER3_ISR?DRV_I2C
            CODE    406BH     0003H     ABSOLUTE     
            CODE    406EH     0862H     UNIT         ?C?LIB_CODE
            CODE    48D0H     0422H     UNIT         ?PR?_?CANCOPYDATAANDSTARTTRANSMISSION?CAN_DRV
            CODE    4CF2H     03BCH     UNIT         ?C_INITSEG
            CODE    50AEH     0385H     UNIT         ?CO?DESC
            CODE    5433H     00C5H     UNIT         ?PR?CAN_CELLISR?CAN_DRV
            CODE    54F8H     0008H     UNIT         ?PR?_?CANGETSTATUS?CAN_DRV
            CODE    5500H     02F2H     PAGE         ?BANK?SWITCH
            CODE    57F2H     027BH     UNIT         ?PR?_CANHL_TXCONFIRMATION?CAN_DRV
            CODE    5A6DH     026DH     UNIT         ?PR?_CANINIT?CAN_DRV
            CODE    5CDAH     0209H     UNIT         ?PR?_?CANTRANSMIT?CAN_DRV
            CODE    5EE3H     01C6H     UNIT         ?CO?MGR_DIAG
            CODE    60A9H     0192H     UNIT         ?PR?CANHL_RECEIVEDRXHANDLE?CAN_DRV
            CODE    623BH     0175H     UNIT         ?PR?ADC_ISR?MAIN
            CODE    63B0H     014DH     UNIT         ?PR?TIMER2_ISR?MAIN
            CODE    64FDH     0147H     UNIT         ?PR?_CANFULLCANMSGRECEIVED?CAN_DRV
            CODE    6644H     013CH     UNIT         ?PR?_?CANDELQUEUEDOBJ?CAN_DRV
            CODE    6780H     0110H     UNIT         ?PR?TEMPERATURE_COMPUTE?MAIN
            CODE    6890H     0110H     UNIT         ?PR?SMBUS0_ISR?DRV_I2C
            CODE    69A0H     00EAH     UNIT         ?PR?_CANCANCELTRANSMIT?CAN_DRV
            CODE    6A8AH     00BBH     UNIT         ?PR?_I2C_MASTER_READ?DRV_I2C
            CODE    6B45H     00B4H     UNIT         ?PR?_CANLL_TXISHWOBJFREE?CAN_DRV
            CODE    6BF9H     0092H     UNIT         ?C_C51STARTUP
            CODE    6C8BH     0087H     UNIT         ?CO?CAN_PAR
            CODE    6D12H     006FH     UNIT         ?PR?MAIN?MAIN
            CODE    6D81H     0052H     UNIT         ?PR?_I2C_MASTER_WRITE?DRV_I2C
            CODE    6DD3H     004DH     UNIT         ?PR?_?CANCANINTERRUPTDISABLE?CAN_DRV
            CODE    6E20H     004BH     UNIT         ?PR?SMB_READ?DRV_I2C
            CODE    6E6BH     004BH     UNIT         ?PR?CANINITPOWERON?CAN_DRV
            CODE    6EB6H     004AH     UNIT         ?PR?SMB_WRITE?DRV_I2C
BL51 BANKED LINKER/LOCATER V6.22                                                      11/17/2023  15:14:24  PAGE 8


            CODE    6F00H     004AH     UNIT         ?PR?_?CANCANINTERRUPTRESTORE?CAN_DRV
            CODE    6F4AH     0047H     UNIT         ?PR?_?CANLL_HWISPASSIVE?CAN_DRV
            CODE    6F91H     0047H     UNIT         ?PR?_?CANLL_HWISWARNING?CAN_DRV
            CODE    6FD8H     0044H     UNIT         ?PR?_DEVICE_INIT?DRV_MCU
            CODE    701CH     0044H     UNIT         ?PR?SMBUS0_INIT?DRV_I2C
            CODE    7060H     0044H     UNIT         ?C?LDIV
            CODE    70A4H     0041H     UNIT         ?PR?_?CANLL_HWISSTOP?CAN_DRV
            CODE    70E5H     003CH     UNIT         ?PR?_?CANTXGETACTHANDLE?CAN_DRV
            CODE    7121H     0037H     UNIT         ?PR?CANHL_ERRORHANDLING?CAN_DRV
            CODE    7158H     0035H     UNIT         ?PR?_?CANRXACTUALERRORCOUNTER?CAN_DRV
            CODE    718DH     0035H     UNIT         ?PR?_?CANTXACTUALERRORCOUNTER?CAN_DRV
            CODE    71C2H     0034H     UNIT         ?PR?_CANLL_HANDLEILLIRPTNUMBER?CAN_DRV
            CODE    71F6H     002FH     UNIT         ?PR?_CANHL_INDRXHANDLE?CAN_DRV
            CODE    7225H     002FH     UNIT         ?PR?_?CANOFFLINE?CAN_DRV
            CODE    7254H     0027H     UNIT         ?PR?CANSTOP?CAN_DRV
            CODE    727BH     0025H     UNIT         ?PR?PORT_INIT?DRV_MCU
            CODE    72A0H     0025H     UNIT         ?CO?IL_PAR
            CODE    72C5H     001BH     UNIT         ?PR?CANISR_0?CAN_DRV
            CODE    72E0H     001BH     UNIT         ?CO?CAN_DRV
            CODE    72FBH     001AH     UNIT         ?PR?CANONLINE?CAN_DRV
            CODE    7315H     0019H     UNIT         ?PR?_CANSETPARTOFFLINE?CAN_DRV
            CODE    732EH     0019H     UNIT         ?PR?_CANSETPARTONLINE?CAN_DRV
            CODE    7347H     0018H     UNIT         ?CO?MGR_COMM
            CODE    735FH     0014H     UNIT         ?PR?CANSLEEP?CAN_DRV
            CODE    7373H     0013H     UNIT         ?PR?INT1_ISR?DRV_MCU
            CODE    7386H     0012H     UNIT         ?CO?V_PAR
            CODE    7398H     000AH     UNIT         ?PR?OSC_INIT?DRV_MCU
            CODE    73A2H     000AH     UNIT         ?PR?FRAME_SYNC_STATUS?DRV_MCU
            CODE    73ACH     0006H     UNIT         ?PR?CANGETPARTMODE?CAN_DRV
            CODE    73B2H     0004H     UNIT         ?PR?VDD_MONITOR_INIT?DRV_MCU
            CODE    73B6H     0004H     UNIT         ?PR?RSTSRC_INIT?DRV_MCU
            CODE    73BAH     0004H     UNIT         ?PR?MCU_RESET?DRV_MCU
            CODE    73BEH     0003H     UNIT         ?PR?CANWAKEUP?CAN_DRV
            CODE    73C1H     0003H     UNIT         ?CO?IL
            CODE    73C4H     0003H     UNIT         ?CO?NM_BASIC
            CODE    73C7H     0003H     UNIT         ?CO?SIP_VERS
            CODE    73CAH     0003H     UNIT         ?CO?TPMC
            CODE    73CDH     0003H     UNIT         ?CO?VSTDLIB
            CODE    73D0H     0002H     UNIT         ?CO?MGR_ISP

            * * * * * * *   C O D E   B A N K   0   * * * * * * *
                    0000H     7FF0H                  *** GAP ***
            BANK0   7FF0H     0004H     UNIT         ?CO?F50X_TARGET_APP_INFOBLOCK

            * * * * * * *   C O D E   B A N K   1   * * * * * * *
                    0000H     8000H                  *** GAP ***
            BANK1   8000H     0759H     UNIT         ?PR?_TPPRECOPY?TPMC
            BANK1   8759H     0597H     UNIT         ?PR?_DIAG_WRITE_TRANSFER_DATA?MGR_DIAG
            BANK1   8CF0H     0405H     UNIT         ?PR?_ISP_VIEW_MODE_CHANGE?MGR_ISP
            BANK1   90F5H     03FDH     UNIT         ?PR?_DIAG_READ_SYS?MGR_DIAG
            BANK1   94F2H     03B5H     UNIT         ?PR?_CAN_RX_SAS_PROCESS?DRV_CAN
            BANK1   98A7H     0313H     UNIT         ?PR?DESCDISPATCHER?DESC
            BANK1   9BBAH     022EH     UNIT         ?PR?ILINIT?IL
            BANK1   9DE8H     021EH     UNIT         ?PR?_DIAG_READ_ADDRESS?MGR_DIAG
            BANK1   A006H     01FFH     UNIT         ?PR?FLASH_ONESPEC_WRITE?MGR_COMM
            BANK1   A205H     01F8H     UNIT         ?PR?_DIAG_CALIBRATION_MODE?MGR_DIAG
            BANK1   A3FDH     01B6H     UNIT         ?PR?FLASH_DTC_WRITE?MGR_DIAG
BL51 BANKED LINKER/LOCATER V6.22                                                      11/17/2023  15:14:24  PAGE 9


            BANK1   A5B3H     019BH     UNIT         ?PR?_DIAG_EXTRA_DATA_PROCESS?MGR_DIAG
            BANK1   A74EH     0185H     UNIT         ?PR?_SYS_FLASH_READ?MGR_DIAG
            BANK1   A8D3H     017BH     UNIT         ?PR?DESCCONTEXTSTATETASK?DESC
            BANK1   AA4EH     017AH     UNIT         ?PR?_DESCROUTINECONTROLBYIDENTIFIER?DESC
            BANK1   ABC8H     0179H     UNIT         ?PR?_RECORD_DTC_ERROR?MGR_DIAG
            BANK1   AD41H     0179H     UNIT         ?PR?ILTXTIMERTASK?IL
            BANK1   AEBAH     016AH     UNIT         ?PR?DESCFINALPROCESSINGDONE?DESC
            BANK1   B024H     014FH     UNIT         ?PR?_DESCOEMCOMMONCOMMCTRL?DESC
            BANK1   B173H     014DH     UNIT         ?PR?OPERATE_DIAGTASK?MGR_DIAG
            BANK1   B2C0H     0145H     UNIT         ?PR?TPTXPRECANTRANSMIT?TPMC
            BANK1   B405H     0142H     UNIT         ?PR?_DESCFINDSVCINST?DESC
            BANK1   B547H     0133H     UNIT         ?PR?_WARNING_MSG?MGR_ISP
            BANK1   B67AH     0129H     UNIT         ?PR?_CAN_RX_DATA_ENG_VOL_PROCESS?DRV_CAN
            BANK1   B7A3H     011AH     UNIT         ?PR?ILRXTIMERTASK?IL
            BANK1   B8BDH     0117H     UNIT         ?PR?COMM_REARVIEW_DATA?MGR_COMM
            BANK1   B9D4H     0111H     UNIT         ?PR?_SENSOR_XY_OFFSET_SET?MGR_ISP
            BANK1   BAE5H     0101H     UNIT         ?PR?_FLASH_WRITE?DRV_SPI
            BANK1   BBE6H     0101H     UNIT         ?PR?DESCPIDDISPATCHER?DESC
            BANK1   BCE7H     00FBH     UNIT         ?PR?FLASH_DTC_READ?MGR_DIAG
            BANK1   BDE2H     00FAH     UNIT         ?PR?_IS_CHATTERING?DRV_CAN
            BANK1   BEDCH     00FAH     UNIT         ?PR?ISP_PARKING_ASSIST_VIEW?MGR_ISP
            BANK1   BFD6H     00F9H     UNIT         ?PR?_OVERLAY_GUIDELINE?MGR_ISP
            BANK1   C0CFH     00F8H     UNIT         ?PR?TPRXSTATETASK?TPMC
            BANK1   C1C7H     00F7H     UNIT         ?PR?TPTXSTATETASK?TPMC
            BANK1   C2BEH     00F5H     UNIT         ?PR?_TPFUNCPRECOPY?TPMC
            BANK1   C3B3H     00F3H     UNIT         ?PR?CHECKTABLECONSISTENCY?DESC
            BANK1   C4A6H     00F0H     UNIT         ?PR?_DESCUSDTNETISOTPTRANSMITRESPONSE?DESC
            BANK1   C596H     00EFH     UNIT         ?PR?OPERATE_ISPTASK?MGR_ISP
            BANK1   C685H     00DCH     UNIT         ?PR?NMBASICTASK?NM_BASIC
            BANK1   C761H     00DBH     UNIT         ?PR?_FIXED_GUIDLINE_ON?MGR_ISP
            BANK1   C83CH     00DBH     UNIT         ?PR?DESCPIDPROCESSORTASK?DESC
            BANK1   C917H     00D5H     UNIT         ?PR?FLASH_ONESPEC_READ?MGR_COMM
            BANK1   C9ECH     00CEH     UNIT         ?PR?ILTXSTATETASK?IL
            BANK1   CABAH     00C8H     UNIT         ?PR?CHECK_FLASH_ID?DRV_SPI
            BANK1   CB82H     00C6H     UNIT         ?PR?_CAN_RX_DATA_4WD_ERR_PROCESS?DRV_CAN
            BANK1   CC48H     00C6H     UNIT         ?PR?_DIAG_WRITE_SYS?MGR_DIAG
            BANK1   CD0EH     00B6H     UNIT         ?PR?_RECORD_DTC_CLEAR?MGR_DIAG
            BANK1   CDC4H     00B6H     UNIT         ?PR?_DESCSETSTATE?DESC
            BANK1   CE7AH     00B1H     UNIT         ?PR?_DESCGETSESSIONSTATEOFSESSIONID?DESC
            BANK1   CF2BH     00ABH     UNIT         ?PR?_DELAY_TIME_SET?DRV_TIMER
            BANK1   CFD6H     00ABH     UNIT         ?PR?_FLASH_ERASESECTOR?DRV_SPI
            BANK1   D081H     00ABH     UNIT         ?PR?ISP_INTERINIT?MGR_ISP
            BANK1   D12CH     00A6H     UNIT         ?PR?_DELAY_TIME_GET?DRV_TIMER
            BANK1   D1D2H     00A5H     UNIT         ?PR?_CAN_RX_DATA_IGN_SW_PROCESS?DRV_CAN
            BANK1   D277H     00A5H     UNIT         ?PR?_CAN_RX_DATA_FCZC_RVM_SW_PROCESS?DRV_CAN
            BANK1   D31CH     009DH     UNIT         ?PR?CHECK_ISP_INITSTATE?MGR_ISP
            BANK1   D3B9H     009CH     UNIT         ?PR?_ILSENDMESSAGE?IL
            BANK1   D455H     0097H     UNIT         ?PR?_FLASH_WRITE_BUF?DRV_MEM
            BANK1   D4ECH     0091H     UNIT         ?PR?OPERATE_COMMTASK?MGR_COMM
            BANK1   D57DH     0090H     UNIT         ?PR?ILTXSTART?IL
            BANK1   D60DH     008EH     UNIT         ?PR?_DESCUSDTNETABSFINISHRECEPTION?DESC
            BANK1   D69BH     008BH     UNIT         ?PR?_DESCOEMSECURITYKEY?DESC
            BANK1   D726H     0089H     UNIT         ?PR?_TPTRANSMIT?TPMC
            BANK1   D7AFH     0087H     UNIT         ?PR?CLEAR_CAN_DATA?MGR_COMM
            BANK1   D836H     0084H     UNIT         ?PR?INIT_ISPTASK?MGR_ISP
            BANK1   D8BAH     0084H     UNIT         ?PR?_DESCGETBUFFER?DESC
            BANK1   D93EH     0084H     UNIT         ?PR?_DESCOEMENABLECOMMUNICATION?DESC
BL51 BANKED LINKER/LOCATER V6.22                                                      11/17/2023  15:14:24  PAGE 10


            BANK1   D9C2H     0080H     UNIT         ?PR?GLOBAL_TIMER_INIT?DRV_TIMER
            BANK1   DA42H     0080H     UNIT         ?PR?_CAN_RX_DATA_G_SEL_DISP_PROCESS?DRV_CAN
            BANK1   DAC2H     0080H     UNIT         ?PR?_?VSTDROMMEMCPY?VSTDLIB
            BANK1   DB42H     007AH     UNIT         ?PR?_DESCGETFUNCBUFFER?DESC
            BANK1   DBBCH     0079H     UNIT         ?PR?_FLASH_READ_BUF?DRV_MEM
            BANK1   DC35H     0078H     UNIT         ?PR?TPTXPOSTPROCESSING?TPMC
            BANK1   DCADH     0074H     UNIT         ?PR?_CAN_RX_DATA_PROCESS?DRV_CAN
            BANK1   DD21H     0074H     UNIT         ?PR?ILRXSTART?IL
            BANK1   DD95H     0072H     UNIT         ?PR?_DESCGETSESSIONIDOFSESSIONSTATE?DESC
            BANK1   DE07H     0071H     UNIT         ?PR?_IS_CHANGE?DRV_CAN
            BANK1   DE78H     0071H     UNIT         ?PR?ILRXRELEASE?IL
            BANK1   DEE9H     0071H     UNIT         ?PR?_DESCPMGETPIDPOOLHANDLE?DESC
            BANK1   DF5AH     0070H     UNIT         ?PR?_DESCOEMSECURITYSEED?DESC
            BANK1   DFCAH     006DH     UNIT         ?PR?_?VSTDRAMMEMCPY?VSTDLIB
            BANK1   E037H     006AH     UNIT         ?PR?CHECKCOMMANDSTATUSLOOP?MGR_ISP
            BANK1   E0A1H     0067H     UNIT         ?PR?_TPTXINIT?TPMC
            BANK1   E108H     0066H     UNIT         ?PR?_?VSTDMEMSETINTERNAL?VSTDLIB
            BANK1   E16EH     0065H     UNIT         ?PR?_DESCSETSTATESECURITYACCESS?DESC
            BANK1   E1D3H     0064H     UNIT         ?PR?_COMM_I2C_RX?MGR_COMM
            BANK1   E237H     0061H     UNIT         ?PR?INIT_COMMTASK?MGR_COMM
            BANK1   E298H     0061H     UNIT         ?PR?_?VSTDMEMCLRINTERNAL?VSTDLIB
            BANK1   E2F9H     0061H     UNIT         ?PR?_DESCISTESTERPRESENT?DESC
            BANK1   E35AH     0061H     UNIT         ?PR?_DESCSETSTATESESSION?DESC
            BANK1   E3BBH     005FH     UNIT         ?PR?_READ_GUIDE_VALUE?DRV_SPI
            BANK1   E41AH     005FH     UNIT         ?PR?DIAG_CALIBRATION_MODE_START?MGR_DIAG
            BANK1   E479H     005FH     UNIT         ?PR?_DESCGETSVCINSTREQHEADEXT?DESC
            BANK1   E4D8H     005EH     UNIT         ?PR?DESCPIDPROCESSINGDONE?DESC
            BANK1   E536H     005CH     UNIT         ?PR?OPERATE_MCUTASK?MGR_MCU
            BANK1   E592H     005BH     UNIT         ?PR?TPTXTASK?TPMC
            BANK1   E5EDH     005BH     UNIT         ?PR?_DESCCHECKSTATE?DESC
            BANK1   E648H     005AH     UNIT         ?PR?_WAIT_MS?DRV_TIMER
            BANK1   E6A2H     005AH     UNIT         ?PR?_DESCREADDATABYIDENTIFIER?DESC
            BANK1   E6FCH     0056H     UNIT         ?PR?_COMM_I2C_TX?MGR_COMM
            BANK1   E752H     0053H     UNIT         ?PR?_DELAY_TIME_EXPIRE?DRV_TIMER
            BANK1   E7A5H     0052H     UNIT         ?PR?_CAN_RX_DATA_RVM_CAMERAOFF_PROCESS?DRV_CAN
            BANK1   E7F7H     0051H     UNIT         ?PR?DOORBELLCHECK?MGR_ISP
            BANK1   E848H     0050H     UNIT         ?PR?_DESCUSDTNETISOTPCOPYTOCAN?DESC
            BANK1   E898H     004EH     UNIT         ?PR?_TPRXINIT?TPMC
            BANK1   E8E6H     004EH     UNIT         ?PR?TPRXTASK?TPMC
            BANK1   E934H     004CH     UNIT         ?PR?DESCHANDLEINTERNRCRRP?DESC
            BANK1   E980H     004BH     UNIT         ?PR?DESCTIMERTASK?DESC
            BANK1   E9CBH     004AH     UNIT         ?PR?_DESCONTRANSITIONSTATESESSION?DESC
            BANK1   EA15H     004AH     UNIT         ?PR?_DESCOEMCOMMONCOMMCTRLPROCESS?DESC
            BANK1   EA5FH     0049H     UNIT         ?PR?_?ILSECUREEVENT?IL
            BANK1   EAA8H     0045H     UNIT         ?PR?VIDEO_SIGNAL_CHECK?MGR_ISP
            BANK1   EAEDH     0043H     UNIT         ?PR?_ILCANCANCELNOTIFICATION?IL
            BANK1   EB30H     0043H     UNIT         ?PR?DESCTRANSMITRCRRP?DESC
            BANK1   EB73H     0042H     UNIT         ?PR?_DESCUSDTNETISOTPRELEASEINFOPOOL?DESC
            BANK1   EBB5H     0041H     UNIT         ?PR?FRAME_COUNT_CHECK?MGR_ISP
            BANK1   EBF6H     0040H     UNIT         ?PR?_DESCPMANALYSEPID?DESC
            BANK1   EC36H     003FH     UNIT         ?PR?_DIAG_READ_DTC?MGR_DIAG
            BANK1   EC75H     003FH     UNIT         ?PR?V_STB_CHECK?MGR_ISP
            BANK1   ECB4H     003CH     UNIT         ?PR?_DESCUSDTNETABSFINISHTRANSMISSION?DESC
            BANK1   ECF0H     003AH     UNIT         ?PR?TPTXINTERNALPREPAREOFCF?TPMC
            BANK1   ED2AH     0038H     UNIT         ?PR?CLEAR_DTC_STRUCT?MGR_DIAG
            BANK1   ED62H     0038H     UNIT         ?PR?GUIDLINE_ON?MGR_ISP
            BANK1   ED9AH     0038H     UNIT         ?PR?_DESCGETSVCINSTRESHEADEXT?DESC
BL51 BANKED LINKER/LOCATER V6.22                                                      11/17/2023  15:14:24  PAGE 11


            BANK1   EDD2H     0037H     UNIT         ?PR?_?ILSETEVENT?IL
            BANK1   EE09H     0037H     UNIT         ?PR?_DESCOEMPREPARESESSIONCONTROL?DESC
            BANK1   EE40H     0036H     UNIT         ?PR?_DESCRIDANALYSEROUTINE?DESC
            BANK1   EE76H     0035H     UNIT         ?PR?GUIDLINE_OFF?MGR_ISP
            BANK1   EEABH     0033H     UNIT         ?PR?DESCSECURITYACCESSKEYCHECKED?DESC
            BANK1   EEDEH     0031H     UNIT         ?PR?INIT_MCUTASK?MGR_MCU
            BANK1   EF0FH     0031H     UNIT         ?PR?_DESCOEMPOSTCOMMONCOMMCTRLPROCESS?DESC
            BANK1   EF40H     0030H     UNIT         ?PR?COMM_ERROR_CHECK?MGR_COMM
            BANK1   EF70H     0030H     UNIT         ?PR?FIXED_GUIDLINE_OFF?MGR_ISP
            BANK1   EFA0H     0030H     UNIT         ?PR?DESCCOMMCTRLMANIPULATECAN?DESC
            BANK1   EFD0H     002CH     UNIT         ?PR?_FLASH_BYTEREAD?DRV_MEM
            BANK1   EFFCH     002CH     UNIT         ?PR?_DESCFINDSVC?DESC
            BANK1   F028H     002BH     UNIT         ?PR?_SPI_MASTER_READ?DRV_SPI
            BANK1   F053H     002BH     UNIT         ?PR?CLEAR_DTC_STATUS?MGR_DIAG
            BANK1   F07EH     002AH     UNIT         ?PR?_?VSTDSUSPENDALLINTERRUPTS?VSTDLIB
            BANK1   F0A8H     002AH     UNIT         ?PR?_DESCGETSVCINSTHEADEXTENTRYSIZE?DESC
            BANK1   F0D2H     002AH     UNIT         ?PR?DESCSECURITYACCESSTIMER?DESC
            BANK1   F0FCH     002AH     UNIT         ?PR?ILGETRXSAS_ANGLE?IL_PAR
            BANK1   F126H     0029H     UNIT         ?PR?_DESCRIDFINDROUTINEID?DESC
            BANK1   F14FH     0028H     UNIT         ?PR?DESCUSDTNETISOTPINIT?DESC
            BANK1   F177H     0027H     UNIT         ?PR?_COMM_TUNING_VALUE_TYPE?MGR_COMM
            BANK1   F19EH     0027H     UNIT         ?PR?VCAN_INIT?DRV_CAN
            BANK1   F1C5H     0027H     UNIT         ?PR?NMBASICDOTHESTOPHANDLING?NM_BASIC
            BANK1   F1ECH     0027H     UNIT         ?PR?_TPDRVCONFIRMATION?TPMC
            BANK1   F213H     0027H     UNIT         ?PR?DESCPROCESSINGDONE?DESC
            BANK1   F23AH     0026H     UNIT         ?PR?_?VSTDRESUMEALLINTERRUPTS?VSTDLIB
            BANK1   F260H     0026H     UNIT         ?PR?DESCUSDTNETISOTPINITCONTEXT?DESC
            BANK1   F286H     0025H     UNIT         ?PR?VCAN_TASK?DRV_CAN
            BANK1   F2ABH     0024H     UNIT         ?PR?_SPI_MASTER_WRITE?DRV_SPI
            BANK1   F2CFH     0024H     UNIT         ?PR?FRAME_VALIDE_CHECK?MGR_ISP
            BANK1   F2F3H     0024H     UNIT         ?PR?_DESCCONFIRMATION?DESC
            BANK1   F317H     0024H     UNIT         ?PR?DESCNETWORKITERINIT?DESC
            BANK1   F33BH     0023H     UNIT         ?PR?ISP_DRIVING_ASSIST_VIEW?MGR_ISP
            BANK1   F35EH     0023H     UNIT         ?PR?NMBASICINIT?NM_BASIC
            BANK1   F381H     0023H     UNIT         ?PR?DESCSTATEINIT?DESC
            BANK1   F3A4H     0023H     UNIT         ?PR?_DESCGETSESSIONTIMINGS?DESC
            BANK1   F3C7H     0023H     UNIT         ?PR?DESCRESPONSETIMEOUTTASK?DESC
            BANK1   F3EAH     0022H     UNIT         ?PR?_DESCUSDTNETABSSTARTRECEPTION?DESC
            BANK1   F40CH     0022H     UNIT         ?PR?_DESCOEMSTOPDIAGNOSTICSESSION?DESC
            BANK1   F42EH     0021H     UNIT         ?PR?_DESCINIT?DESC
            BANK1   F44FH     0021H     UNIT         ?PR?_DESCPMGETPIDRESPONSELEN?DESC
            BANK1   F470H     0020H     UNIT         ?PR?TPRXPOSTPROCESSING?TPMC
            BANK1   F490H     001FH     UNIT         ?PR?TIMER3_INIT?DRV_TIMER
            BANK1   F4AFH     001FH     UNIT         ?PR?ADC_INIT?DRV_ADC
            BANK1   F4CEH     001FH     UNIT         ?PR?_ILCANGENERICPRECOPY?IL
            BANK1   F4EDH     001FH     UNIT         ?PR?_DESCRIDFINDSUBFUNCTION?DESC
            BANK1   F50CH     001EH     UNIT         ?PR?DESCENABLECOMMUNICATION?DESC
            BANK1   F52AH     001DH     UNIT         ?PR?TIMER2_INIT?DRV_TIMER
            BANK1   F547H     001DH     UNIT         ?PR?APPLNMBASICFIRSTBUSOFFSLOW?DRV_CAN
            BANK1   F564H     001DH     UNIT         ?PR?NMBASICCANBUSOFF?NM_BASIC
            BANK1   F581H     001DH     UNIT         ?PR?DESCOEMONINVALIDREQ_27?DESC
            BANK1   F59EH     001CH     UNIT         ?PR?DESCRELEASECONTEXT?DESC
            BANK1   F5BAH     001BH     UNIT         ?PR?_COMM_SAS_DATA?MGR_COMM
            BANK1   F5D5H     001AH     UNIT         ?PR?CLEAR_I2C_TX_DATA?MGR_COMM
            BANK1   F5EFH     001AH     UNIT         ?PR?CLEAR_CAN_TX_DATA?MGR_COMM
            BANK1   F609H     001AH     UNIT         ?PR?_APPLCANTXOBJCONFIRMED?NM_BASIC
            BANK1   F623H     0017H     UNIT         ?PR?_COMM_HUTYPE_DATA?MGR_COMM
BL51 BANKED LINKER/LOCATER V6.22                                                      11/17/2023  15:14:24  PAGE 12


            BANK1   F63AH     0017H     UNIT         ?PR?_CANRXHU_MON_PE_01INDICATIONFCT?CAN_PAR
            BANK1   F651H     0017H     UNIT         ?PR?_CANRXCGW4INDICATIONFCT?CAN_PAR
            BANK1   F668H     0017H     UNIT         ?PR?_CANRXCGW2INDICATIONFCT?CAN_PAR
            BANK1   F67FH     0017H     UNIT         ?PR?_CANRXCLU15INDICATIONFCT?CAN_PAR
            BANK1   F696H     0017H     UNIT         ?PR?_CANRXMDPS11INDICATIONFCT?CAN_PAR
            BANK1   F6ADH     0017H     UNIT         ?PR?_CANRXSAS1INDICATIONFCT?CAN_PAR
            BANK1   F6C4H     0017H     UNIT         ?PR?_DESCPHYSREQIND?DESC
            BANK1   F6DBH     0017H     UNIT         ?PR?_DESCFUNCREQIND?DESC
            BANK1   F6F2H     0017H     UNIT         ?PR?_DESCINITPOWERON?DESC
            BANK1   F709H     0016H     UNIT         ?PR?TIMER1_INIT?DRV_TIMER
            BANK1   F71FH     0016H     UNIT         ?PR?CLEAR_SAS_DATA?MGR_COMM
            BANK1   F735H     0016H     UNIT         ?PR?GET_VIDEO_SIGNAL?DRV_ADC
            BANK1   F74BH     0016H     UNIT         ?PR?DESCGETSTATESECURITYACCESS?DESC
            BANK1   F761H     0016H     UNIT         ?PR?_DESCDOPOSTPROCESSING?DESC
            BANK1   F777H     0015H     UNIT         ?PR?_COMM_LANGUAGE_DATA?MGR_COMM
            BANK1   F78CH     0014H     UNIT         ?PR?NMBASICDOBUSOFFABORT?NM_BASIC
            BANK1   F7A0H     0013H     UNIT         ?PR?TIMER5_INIT?DRV_TIMER
            BANK1   F7B3H     0013H     UNIT         ?PR?VCAN_START?DRV_CAN
            BANK1   F7C6H     0013H     UNIT         ?PR?PCA_INIT?DRV_PCA
            BANK1   F7D9H     0013H     UNIT         ?PR?DIAG_GET_TIME?MGR_DIAG
            BANK1   F7ECH     0013H     UNIT         ?PR?FLASH_SETFLASHKEY?DRV_MEM
            BANK1   F7FFH     0013H     UNIT         ?PR?_DESCSETATTEMPTCOUNTERVALUE?DESC
            BANK1   F812H     0012H     UNIT         ?PR?_ISR_SAS?DRV_CAN
            BANK1   F824H     0012H     UNIT         ?PR?_ISR_IGNSW?DRV_CAN
            BANK1   F836H     0012H     UNIT         ?PR?_ISR_FCZCRVMSW?DRV_CAN
            BANK1   F848H     0012H     UNIT         ?PR?_ISR_GSELPDISP?DRV_CAN
            BANK1   F85AH     0012H     UNIT         ?PR?_ISR_ENGVOL?DRV_CAN
            BANK1   F86CH     0012H     UNIT         ?PR?_ISR_WD4ERR?DRV_CAN
            BANK1   F87EH     0012H     UNIT         ?PR?DIAG_EEPROM_UPDATE?MGR_DIAG
            BANK1   F890H     0012H     UNIT         ?PR?_FLASH_ERASE_BUF?DRV_MEM
            BANK1   F8A2H     0012H     UNIT         ?PR?TPINIT?TPMC
            BANK1   F8B4H     0012H     UNIT         ?PR?DESCISSUPPRESSPOSRESBITSET?DESC
            BANK1   F8C6H     0012H     UNIT         ?PR?DESCRIDPROCESSINGDONE?DESC
            BANK1   F8D8H     0011H     UNIT         ?PR?ILRXSTOP?IL
            BANK1   F8E9H     0011H     UNIT         ?PR?ILTXSTOP?IL
            BANK1   F8FAH     0011H     UNIT         ?PR?_DESCRXERRORINDICATION?DESC
            BANK1   F90BH     0011H     UNIT         ?PR?DESCSECURITYACCESSSEEDREADY?DESC
            BANK1   F91CH     0010H     UNIT         ?PR?WATCHDOG_INIT?DRV_PCA
            BANK1   F92CH     0010H     UNIT         ?PR?SPI_INIT?DRV_SPI
            BANK1   F93CH     000FH     UNIT         ?PR?_COMM_G_SEL_DISP_DATA?MGR_COMM
            BANK1   F94BH     000FH     UNIT         ?PR?_COMM_IGN_SW_DATA?MGR_COMM
            BANK1   F95AH     000FH     UNIT         ?PR?_COMM_RVM_CAMERAOFF_DATA?MGR_COMM
            BANK1   F969H     000FH     UNIT         ?PR?_COMM_RVM_SW_DATA?MGR_COMM
            BANK1   F978H     000FH     UNIT         ?PR?_ISR_HUTYPE?DRV_CAN
            BANK1   F987H     000FH     UNIT         ?PR?_ISR_LANGUAGEINFO?DRV_CAN
            BANK1   F996H     000FH     UNIT         ?PR?_ISR_RVMCAMERAOFF?DRV_CAN
            BANK1   F9A5H     000FH     UNIT         ?PR?FLASH_WAIT?DRV_SPI
            BANK1   F9B4H     000FH     UNIT         ?PR?TPINITPOWERON?TPMC
            BANK1   F9C3H     000FH     UNIT         ?PR?_DESCOEMPROCESSTESTERPRESENT?DESC
            BANK1   F9D2H     000FH     UNIT         ?PR?_ILMSGHU_MON_PE_01PRECOPY?IL_PAR
            BANK1   F9E1H     000FH     UNIT         ?PR?_ILMSGCGW4PRECOPY?IL_PAR
            BANK1   F9F0H     000FH     UNIT         ?PR?_ILMSGCGW2PRECOPY?IL_PAR
            BANK1   F9FFH     000FH     UNIT         ?PR?_ILMSGCLU15PRECOPY?IL_PAR
            BANK1   FA0EH     000FH     UNIT         ?PR?_ILMSGMDPS11PRECOPY?IL_PAR
            BANK1   FA1DH     000FH     UNIT         ?PR?_ILMSGSAS1PRECOPY?IL_PAR
            BANK1   FA2CH     000EH     UNIT         ?PR?DIAG_ECU_RESET?MGR_DIAG
            BANK1   FA3AH     000EH     UNIT         ?PR?ILRXWAIT?IL
BL51 BANKED LINKER/LOCATER V6.22                                                      11/17/2023  15:14:24  PAGE 13


            BANK1   FA48H     000EH     UNIT         ?PR?ILTXWAIT?IL
            BANK1   FA56H     000EH     UNIT         ?PR?ILTXRELEASE?IL
            BANK1   FA64H     000EH     UNIT         ?PR?ILRESETRXTIMEOUTFLAGS?IL
            BANK1   FA72H     000DH     UNIT         ?PR?GET_TIME?DRV_TIMER
            BANK1   FA7FH     000DH     UNIT         ?PR?APPLNMBASICBUSOFFSTART?DRV_CAN
            BANK1   FA8CH     000DH     UNIT         ?PR?DIAG_CLEAR_DTC?MGR_DIAG
            BANK1   FA99H     000DH     UNIT         ?PR?DESCSTATETASK?DESC
            BANK1   FAA6H     000DH     UNIT         ?PR?_ILMSGHU_MON_PE_01INDICATION?IL_PAR
            BANK1   FAB3H     000DH     UNIT         ?PR?_ILMSGCGW4INDICATION?IL_PAR
            BANK1   FAC0H     000DH     UNIT         ?PR?_ILMSGCGW2INDICATION?IL_PAR
            BANK1   FACDH     000DH     UNIT         ?PR?_ILMSGCLU15INDICATION?IL_PAR
            BANK1   FADAH     000DH     UNIT         ?PR?_ILMSGMDPS11INDICATION?IL_PAR
            BANK1   FAE7H     000DH     UNIT         ?PR?_ILMSGSAS1INDICATION?IL_PAR
            BANK1   FAF4H     000DH     UNIT         ?PR?ILMSGHU_MON_PE_01TIMEOUTINDICATION?IL_PAR
            BANK1   FB01H     000DH     UNIT         ?PR?ILMSGCGW4TIMEOUTINDICATION?IL_PAR
            BANK1   FB0EH     000DH     UNIT         ?PR?ILMSGCGW2TIMEOUTINDICATION?IL_PAR
            BANK1   FB1BH     000DH     UNIT         ?PR?ILMSGCLU15TIMEOUTINDICATION?IL_PAR
            BANK1   FB28H     000DH     UNIT         ?PR?ILMSGMDPS11TIMEOUTINDICATION?IL_PAR
            BANK1   FB35H     000DH     UNIT         ?PR?ILMSGSAS1TIMEOUTINDICATION?IL_PAR
            BANK1   FB42H     000CH     UNIT         ?PR?INIT_DIAGTASK?MGR_DIAG
            BANK1   FB4EH     000CH     UNIT         ?PR?TPRXGETCANBUFFER?TPMC
            BANK1   FB5AH     000CH     UNIT         ?PR?_TPRXSETFCSTATUS?TPMC
            BANK1   FB66H     000CH     UNIT         ?PR?TPFUNCGETCANBUFFER?TPMC
            BANK1   FB72H     000CH     UNIT         ?PR?_DESCUSDTNETISOTPPREPARERESPONSE?DESC
            BANK1   FB7EH     000CH     UNIT         ?PR?DESCTIMINGONCEINIT?DESC
            BANK1   FB8AH     000CH     UNIT         ?PR?_DESCOEMCOMMONSESSIONPOSTPROCESSING?DESC
            BANK1   FB96H     000BH     UNIT         ?PR?TPRXGETSTATUS?TPMC
            BANK1   FBA1H     000AH     UNIT         ?PR?FIRMWARE_UPDATE?MGR_DIAG
            BANK1   FBABH     000AH     UNIT         ?PR?DESCGETSTATESESSION?DESC
            BANK1   FBB5H     000AH     UNIT         ?PR?DESCSECURITYONCEINITPOWERON?DESC
            BANK1   FBBFH     000AH     UNIT         ?PR?DESCSECURITYONCEINIT?DESC
            BANK1   FBC9H     0009H     UNIT         ?PR?_ISR_NAVIONOFF?DRV_CAN
            BANK1   FBD2H     0009H     UNIT         ?PR?_ISR_COUNTRYCFG?DRV_CAN
            BANK1   FBDBH     0009H     UNIT         ?PR?_ISR_MDPSTYPE?DRV_CAN
            BANK1   FBE4H     0009H     UNIT         ?PR?_APPLCANINIT?NM_BASIC
            BANK1   FBEDH     0009H     UNIT         ?PR?_DESCSETNEGRESPONSE?DESC
            BANK1   FBF6H     0008H     UNIT         ?PR?FLASH_CLEARFLASHKEY?DRV_MEM
            BANK1   FBFEH     0008H     UNIT         ?PR?VSTDINITPOWERON?VSTDLIB
            BANK1   FC06H     0008H     UNIT         ?PR?DESCTIMINGITERINIT?DESC
            BANK1   FC0EH     0008H     UNIT         ?PR?_DESCOEMSTARTSESSIONDEFAULT?DESC
            BANK1   FC16H     0008H     UNIT         ?PR?_DESCOEMSTARTSESSIONPROGRAMMING?DESC
            BANK1   FC1EH     0008H     UNIT         ?PR?_DESCOEMSTARTSESSIONEXTENDED?DESC
            BANK1   FC26H     0008H     UNIT         ?PR?_DESCOEMSTARTSESSIONPROGRAMMING_SESSION_FOR_KWP2000?DESC
            BANK1   FC2EH     0008H     UNIT         ?PR?_DESCOEMSTARTSESSIONEXTENDED_SESSION_FOR_KWP2000?DESC
            BANK1   FC36H     0008H     UNIT         ?PR?_DESCOEMGETREQUESTSEED_UNLOCK_LEVEL_1?DESC
            BANK1   FC3EH     0008H     UNIT         ?PR?_DESCOEMSENDSENDKEY_UNLOCK_LEVEL_1?DESC
            BANK1   FC46H     0008H     UNIT         ?PR?_DESCOEMPOSTSTARTSESSIONDEFAULT?DESC
            BANK1   FC4EH     0008H     UNIT         ?PR?_DESCOEMPOSTSTARTSESSIONPROGRAMMING?DESC
            BANK1   FC56H     0008H     UNIT         ?PR?_DESCOEMPOSTSTARTSESSIONEXTENDED?DESC
            BANK1   FC5EH     0008H     UNIT         ?PR?_DESCOEMPOSTSTARTSESSIONPROGRAMMING_SESSION_FOR_KWP2000?DESC
            BANK1   FC66H     0008H     UNIT         ?PR?_DESCOEMPOSTSTARTSESSIONEXTENDED_SESSION_FOR_KWP2000?DESC
            BANK1   FC6EH     0008H     UNIT         ?PR?DESCITERINITPIDLISTPROCESSOR?DESC
            BANK1   FC76H     0007H     UNIT         ?PR?APPLNMBASICENABLEDCOM?DRV_CAN
            BANK1   FC7DH     0007H     UNIT         ?PR?APPLNMBASICBUSOFFEND?DRV_CAN
            BANK1   FC84H     0007H     UNIT         ?PR?APPLNMBASICDISABLEDCOM?DRV_CAN
            BANK1   FC8BH     0007H     UNIT         ?PR?APPLSAS1MSGTIMEOUT?DRV_CAN
            BANK1   FC92H     0007H     UNIT         ?PR?APPLCGW1MSGTIMEOUT?DRV_CAN
BL51 BANKED LINKER/LOCATER V6.22                                                      11/17/2023  15:14:24  PAGE 14


            BANK1   FC99H     0007H     UNIT         ?PR?APPLCGW6MSGTIMEOUT?DRV_CAN
            BANK1   FCA0H     0007H     UNIT         ?PR?APPLCGW_PC5MSGTIMEOUT?DRV_CAN
            BANK1   FCA7H     0007H     UNIT         ?PR?APPLWD411MSGTIMEOUT?DRV_CAN
            BANK1   FCAEH     0007H     UNIT         ?PR?APPLEMS12MSGTIMEOUT?DRV_CAN
            BANK1   FCB5H     0007H     UNIT         ?PR?DIAG_DTC_SET_OFF?MGR_DIAG
            BANK1   FCBCH     0007H     UNIT         ?PR?ILRXTASK?IL
            BANK1   FCC3H     0007H     UNIT         ?PR?ILTXTASK?IL
            BANK1   FCCAH     0007H     UNIT         ?PR?NMBASICSTART?NM_BASIC
            BANK1   FCD1H     0007H     UNIT         ?PR?NMBASICSTOP?NM_BASIC
            BANK1   FCD8H     0007H     UNIT         ?PR?TPTASK?TPMC
            BANK1   FCDFH     0007H     UNIT         ?PR?TPRXGETFCSTATUS?TPMC
            BANK1   FCE6H     0007H     UNIT         ?PR?DESCGETCURRENTBUSINFO?DESC
            BANK1   FCEDH     0007H     UNIT         ?PR?DESCTASK?DESC
            BANK1   FCF4H     0006H     UNIT         ?PR?DIAG_DTC_SET_ON?MGR_DIAG
            BANK1   FCFAH     0006H     UNIT         ?PR?_ISP_GUIDE_ON_OFF?MGR_ISP
            BANK1   FD00H     0006H     UNIT         ?PR?GET_TEMPERATURE?DRV_ADC
            BANK1   FD06H     0006H     UNIT         ?PR?ILGETSTATUS?IL
            BANK1   FD0CH     0006H     UNIT         ?PR?NMBASICGETNETSTATE?NM_BASIC
            BANK1   FD12H     0006H     UNIT         ?PR?_APPLCANTXOBJSTART?NM_BASIC
            BANK1   FD18H     0006H     UNIT         ?PR?TPRXRESETCHANNEL?TPMC
            BANK1   FD1EH     0006H     UNIT         ?PR?TPTXRESETCHANNEL?TPMC
            BANK1   FD24H     0006H     UNIT         ?PR?_DESCCOPYTOCAN?DESC
            BANK1   FD2AH     0006H     UNIT         ?PR?_DESCTXERRORINDICATION?DESC
            BANK1   FD30H     0006H     UNIT         ?PR?DESCGETACTIVITYSTATE?DESC
            BANK1   FD36H     0006H     UNIT         ?PR?_DESCDUMMYPOSTHANDLER?DESC
            BANK1   FD3CH     0006H     UNIT         ?PR?DESCGETATTEMPTCOUNTERVALUE?DESC
            BANK1   FD42H     0006H     UNIT         ?PR?_DESCPOSTREADDATABYIDENTIFIER?DESC
            BANK1   FD48H     0005H     UNIT         ?PR?_FLASH_DATASET?DRV_SPI
            BANK1   FD4DH     0005H     UNIT         ?PR?FLASH_SLAVE_SELECT?DRV_SPI
            BANK1   FD52H     0005H     UNIT         ?PR?_FLASH_SLAVE_COMMAND?DRV_SPI
            BANK1   FD57H     0005H     UNIT         ?PR?TPFUNCINIT?TPMC
            BANK1   FD5CH     0005H     UNIT         ?PR?TPFUNCRESETCHANNEL?TPMC
            BANK1   FD61H     0004H     UNIT         ?PR?RESET_MCU?MGR_MCU
            BANK1   FD65H     0004H     UNIT         ?PR?_COMM_TX_RVM_VIEW?MGR_COMM
            BANK1   FD69H     0004H     UNIT         ?PR?_COMM_TX_RVM_SW_IND?MGR_COMM
            BANK1   FD6DH     0004H     UNIT         ?PR?WDT_CLEAR?DRV_PCA
            BANK1   FD71H     0004H     UNIT         ?PR?DIAG_SENSOR_RESET?MGR_DIAG
            BANK1   FD75H     0004H     UNIT         ?PR?_DIAG_GUID_ONOFF?MGR_DIAG
            BANK1   FD79H     0004H     UNIT         ?PR?ISP_ON?MGR_ISP
            BANK1   FD7DH     0004H     UNIT         ?PR?ILINITPOWERON?IL
            BANK1   FD81H     0004H     UNIT         ?PR?NMBASICINITPOWERON?NM_BASIC
            BANK1   FD85H     0004H     UNIT         ?PR?DESCUSDTNETISOTPINITPOWERON?DESC
            BANK1   FD89H     0004H     UNIT         ?PR?DESCNETWORKINITPOWERON?DESC
            BANK1   FD8DH     0004H     UNIT         ?PR?DESCNETWORKINIT?DESC
            BANK1   FD91H     0004H     UNIT         ?PR?DESCSTATEONCEINIT?DESC
            BANK1   FD95H     0004H     UNIT         ?PR?_DESCOEMPOSTCOMMONCOMMCTRL?DESC
            BANK1   FD99H     0004H     UNIT         ?PR?_DESCOEMPOSTENABLECOMMUNICATION?DESC
            BANK1   FD9DH     0004H     UNIT         ?PR?_DESCPMGETAVAILABLEPIDHANDLE?DESC
            BANK1   FDA1H     0003H     UNIT         ?PR?_APPLILFATALERROR?DRV_CAN
            BANK1   FDA4H     0003H     UNIT         ?PR?APPLNMBASICSWITCHTRANSCEIVEROFF?DRV_CAN
            BANK1   FDA7H     0003H     UNIT         ?PR?_APPLTPFATALERROR?DRV_CAN
            BANK1   FDAAH     0003H     UNIT         ?PR?ISP_OFF?MGR_ISP
            BANK1   FDADH     0001H     UNIT         ?PR?APPLNMBASICSWITCHTRANSCEIVERON?DRV_CAN
            BANK1   FDAEH     0001H     UNIT         ?PR?APPLNMBASICBUSOFFRESTART?DRV_CAN
            BANK1   FDAFH     0001H     UNIT         ?PR?APPLHU_MON_PE_01MSGTIMEOUT?DRV_CAN
            BANK1   FDB0H     0001H     UNIT         ?PR?APPLCGW4MSGTIMEOUT?DRV_CAN
            BANK1   FDB1H     0001H     UNIT         ?PR?APPLCGW2MSGTIMEOUT?DRV_CAN
BL51 BANKED LINKER/LOCATER V6.22                                                      11/17/2023  15:14:24  PAGE 15


            BANK1   FDB2H     0001H     UNIT         ?PR?APPLCLU15MSGTIMEOUT?DRV_CAN
            BANK1   FDB3H     0001H     UNIT         ?PR?APPLMDPS11MSGTIMEOUT?DRV_CAN
            BANK1   FDB4H     0001H     UNIT         ?PR?APPLHU_RVM_E_00TMSGTIMEOUT?DRV_CAN
            BANK1   FDB5H     0001H     UNIT         ?PR?DIAG_EXIT_UPDATE?MGR_DIAG
            BANK1   FDB6H     0001H     UNIT         ?PR?ILRXSTATETASK?IL
            BANK1   FDB7H     0001H     UNIT         ?PR?DESCDEBUGITERINIT?DESC
            BANK1   FDB8H     0001H     UNIT         ?PR?DESCUSDTNETISOTPSTATETASK?DESC
            BANK1   FDB9H     0001H     UNIT         ?PR?DESCDISPATCHERITERINIT?DESC
                    FDBAH     0046H                  *** GAP ***
            BANK1   FE00H     0007H     UNIT         ?PR?FLASH_RESETTRAP?DRV_MEM
            BANK1   FE07H     00CEH     UNIT         ?PR?_FLASH_BYTEWRITE?DRV_MEM
            BANK1   FED5H     00CBH     UNIT         ?PR?_FLASH_PAGEERASE?DRV_MEM
                    FFA0H     0050H                  *** GAP ***
            BANK1   FFF0H     0008H     UNIT         ?CO?F50X_TARGET_CAM_INFOBLOCK

            * * * * * * *   C O D E   B A N K   2   * * * * * * *
                    0000H     8000H                  *** GAP ***
            BANK2   8000H     03C1H     UNIT         ?PR?_APPLDESCREADDTCRDTCBSM?APPDESC
            BANK2   83C1H     0202H     UNIT         ?PR?_APPLDESCREADDIDCAMERA_RECORD_DATA_IDENTIFIER?APPDESC
            BANK2   85C3H     018EH     UNIT         ?PR?_APPLDESCREADDIDCANDATABASVERSIONIDENTIFIER?APPDESC
            BANK2   8751H     0154H     UNIT         ?PR?_APPLDESCREADDIDOEMSPAREPARTNUMBERDATAIDENTIFIER?APPDESC
            BANK2   88A5H     0128H     UNIT         ?PR?_APPLDESCSECURITYACCESSCHECKKEY?APPDESC
            BANK2   89CDH     011AH     UNIT         ?PR?_APPLDESCREADDIDECUMANUFACTURINGDATEDATAIDENTIFIER?APPDESC
            BANK2   8AE7H     010BH     UNIT         ?PR?_APPLDESCSECURITYACCESSGETSEED?APPDESC
            BANK2   8BF2H     00FBH     UNIT         ?PR?SECM_COMPUTEKEY?APPDESC
            BANK2   8CEDH     00BAH     UNIT         ?PR?_APPLDESCRTNCTRLSTOPERASE_MEMORY?APPDESC
            BANK2   8DA7H     009DH     UNIT         ?PR?_APPLDESCRTNCTRLSTARTERASE_MEMORY?APPDESC
            BANK2   8E44H     0095H     UNIT         ?PR?_APPLDESCREQUESTDOWNLOAD?APPDESC
            BANK2   8ED9H     008FH     UNIT         ?PR?_APPLDESCWRITEMEMORYBYADDRESS?APPDESC
            BANK2   8F68H     0089H     UNIT         ?PR?_APPLDESCREADDIDSYSTEMSUPPLIERECUHARDWAREVERSIONNUMBERDATAIDENT
>> IFIER?APPDESC
            BANK2   8FF1H     0089H     UNIT         ?PR?_APPLDESCREADDIDSYSTEMSUPPLIERECUSOFTWAREVERSIONNUMBERDATAIDENT
>> IFIER?APPDESC
            BANK2   907AH     005CH     UNIT         ?PR?_APPLDESCTRANSFERDATA?APPDESC
            BANK2   90D6H     005CH     UNIT         ?PR?_SECM_SERIALIZER?APPDESC
            BANK2   9132H     003AH     UNIT         ?PR?_APPLDESCREADDIDCAMERA_SYSTEM_ON_TIME?APPDESC
            BANK2   916CH     003AH     UNIT         ?PR?_APPLDESCREADDIDCAMERA_OPERATING_TIME_AND_SYSTEM_ON?APPDESC
            BANK2   91A6H     003AH     UNIT         ?PR?_APPLDESCREADDIDCAMERA_WARNING_TEXT_LANGUAGE?APPDESC
            BANK2   91E0H     003AH     UNIT         ?PR?_APPLDESCREADDIDCAMERA_RESET_COUNTER?APPDESC
            BANK2   921AH     0033H     UNIT         ?PR?_APPLDESCCLEARDIAGINFO?APPDESC
            BANK2   924DH     0030H     UNIT         ?PR?_APPLDESCRTNCTRLSTARTCAMERA_GUIDELINE_OFF?APPDESC
            BANK2   927DH     001BH     UNIT         ?PR?_APPLDESCRTNCTRLSTOPCAMERA_GUIDELINE_OFF?APPDESC
            BANK2   9298H     001BH     UNIT         ?PR?_APPLDESCRTNCTRLSTARTCAMERA_WARNING_TEXT_OFF?APPDESC
            BANK2   92B3H     001BH     UNIT         ?PR?_APPLDESCRTNCTRLSTOPCAMERA_WARNING_TEXT_OFF?APPDESC
            BANK2   92CEH     0019H     UNIT         ?PR?_APPLDESCRTNCTRLSTARTCAMERA_SENSOR_RESET?APPDESC
            BANK2   92E7H     0014H     UNIT         ?PR?_APPLDESCWRITEDIDCAMERA_SYSTEM_ON_TIME?APPDESC
            BANK2   92FBH     0014H     UNIT         ?PR?_APPLDESCWRITEDIDCAMERA_OPERATING_TIME_AND_SYSTEM_ON?APPDESC
            BANK2   930FH     0014H     UNIT         ?PR?_APPLDESCWRITEDIDCAMERA_WARNING_TEXT_LANGUAGE?APPDESC
            BANK2   9323H     0014H     UNIT         ?PR?_APPLDESCWRITEDIDCAMERA_RESET_COUNTER?APPDESC
            BANK2   9337H     0014H     UNIT         ?PR?_APPLDESCRTNCTRLSTOPCAMERA_SENSOR_RESET?APPDESC
            BANK2   934BH     0014H     UNIT         ?PR?_APPLDESCRTNCTRLSTARTCALIBRATIONMODE_ONOFF?APPDESC
            BANK2   935FH     0014H     UNIT         ?PR?_APPLDESCRTNCTRLSTOPCALIBRATIONMODE_ONOFF?APPDESC
            BANK2   9373H     0014H     UNIT         ?PR?_APPLDESCRTNCTRLSTARTCALIBRATIONMODE_DEFAULT?APPDESC
            BANK2   9387H     0014H     UNIT         ?PR?_APPLDESCRTNCTRLSTOPCALIBRATIONMODE_DEFAULT?APPDESC
            BANK2   939BH     0014H     UNIT         ?PR?_APPLDESCRTNCTRLSTARTCALIBRATIONMODE_LEFT?APPDESC
            BANK2   93AFH     0014H     UNIT         ?PR?_APPLDESCRTNCTRLSTOPCALIBRATIONMODE_LEFT?APPDESC
            BANK2   93C3H     0014H     UNIT         ?PR?_APPLDESCRTNCTRLSTARTCALIBRATIONMODE_RIGHT?APPDESC
BL51 BANKED LINKER/LOCATER V6.22                                                      11/17/2023  15:14:24  PAGE 16


            BANK2   93D7H     0014H     UNIT         ?PR?_APPLDESCRTNCTRLSTOPCALIBRATIONMODE_RIGHT?APPDESC
            BANK2   93EBH     0014H     UNIT         ?PR?_APPLDESCRTNCTRLSTARTCHECK_PROGRAMMING_DEPENDENCIES?APPDESC
            BANK2   93FFH     0014H     UNIT         ?PR?_APPLDESCRTNCTRLSTOPCHECK_PROGRAMMING_DEPENDENCIES?APPDESC
            BANK2   9413H     0012H     UNIT         ?PR?_APPLDESCECURESETHARD?APPDESC
            BANK2   9425H     0012H     UNIT         ?PR?_APPLDESCECURESETSOFT?APPDESC
            BANK2   9437H     0012H     UNIT         ?PR?_APPLDESCREQUESTTRANSFEREXIT?APPDESC
            BANK2   9449H     0012H     UNIT         ?PR?_APPLDESCCONTROLDTCSETTINGENABLE?APPDESC
            BANK2   945BH     0012H     UNIT         ?PR?_APPLDESCCONTROLDTCSETTINGDISABLE?APPDESC
            BANK2   946DH     0012H     UNIT         ?PR?_APPLDESCCHECKSESSIONTRANSITION?APPDESC
            BANK2   947FH     000FH     UNIT         ?PR?_APPLDESCONTRANSITIONSESSION?APPDESC
            BANK2   948EH     000FH     UNIT         ?PR?_APPLDESCONTRANSITIONSECURITYACCESS?APPDESC
            BANK2   949DH     000FH     UNIT         ?PR?_APPLDESCREADMEMORYBYADDRESS?APPDESC
            BANK2   94ACH     000FH     UNIT         ?PR?_APPLDESCCHECKCOMMCTRL?APPDESC
            BANK2   94BBH     000EH     UNIT         ?PR?_APPLDESCFATALERROR?APPDESC
            BANK2   94C9H     000CH     UNIT         ?PR?_APPLDESCSETCOMMMODEONRXPATH?APPDESC
            BANK2   94D5H     0001H     UNIT         ?PR?APPLDESCONCOMMUNICATIONDISABLE?APPDESC
            BANK2   94D6H     0001H     UNIT         ?PR?APPLDESCONCOMMUNICATIONENABLE?APPDESC
                    94D7H     6929H                  *** GAP ***
            BANK2   FE00H     0009H     UNIT         ?CO?F50X_TARGET_OPTIC_INFOBLOCK



INTERBANK CALL TABLE OF MODULE:  D:\micom_diag\CK\AVN\FIRMWARE\Application\SteeringCamera_App.omf (F50X_TARGET_APP_INFOB
>> LOCK)

ADDRESS    FUNCTION NAME
------------------------
 5544H     WDT_CLEAR
 5549H     INIT_DIAGTASK
 554EH     INIT_MCUTASK
 5553H     INIT_COMMTASK
 5558H     INIT_ISPTASK
 555DH     _DELAY_TIME_SET
 5562H     OPERATE_COMMTASK
 5567H     OPERATE_ISPTASK
 556CH     OPERATE_MCUTASK
 5571H     OPERATE_DIAGTASK
 5576H     _DELAY_TIME_GET
 557BH     VCAN_TASK
 5580H     _WAIT_MS
 5585H     _DELAY_TIME_EXPIRE
 558AH     _ILCANCANCELNOTIFICATION
 558FH     _APPLCANINIT
 5594H     VSTDINITPOWERON
 5599H     _APPLCANTXOBJSTART
 559EH     NMBASICCANBUSOFF
 55A3H     _ILCANGENERICPRECOPY
 55A8H     _APPLCANTXOBJCONFIRMED
 55ADH     DIAG_ECU_RESET
 55B2H     DESCPROCESSINGDONE
 55B7H     DIAG_CLEAR_DTC
 55BCH     _DESCSETNEGRESPONSE
 55C1H     _DIAG_READ_DTC
 55C6H     _DIAG_WRITE_TRANSFER_DATA
 55CBH     DIAG_EXIT_UPDATE
 55D0H     _DIAG_EXTRA_DATA_PROCESS
 55D5H     _DIAG_WRITE_SYS
BL51 BANKED LINKER/LOCATER V6.22                                                      11/17/2023  15:14:24  PAGE 17


 55DAH     DIAG_DTC_SET_ON
 55DFH     DIAG_DTC_SET_OFF
 55E4H     DIAG_GET_TIME
 55E9H     DESCSECURITYACCESSSEEDREADY
 55EEH     DESCSECURITYACCESSKEYCHECKED
 55F3H     _DIAG_READ_SYS
 55F8H     DIAG_SENSOR_RESET
 55FDH     _DIAG_GUID_ONOFF
 5602H     FIRMWARE_UPDATE
 5607H     DIAG_EEPROM_UPDATE
 560CH     _TPDRVCONFIRMATION
 5611H     _ILMSGHU_MON_PE_01PRECOPY
 5616H     _ILMSGCGW4PRECOPY
 561BH     _ILMSGCGW2PRECOPY
 5620H     _ILMSGCLU15PRECOPY
 5625H     _ILMSGMDPS11PRECOPY
 562AH     _ILMSGSAS1PRECOPY
 562FH     _TPFUNCPRECOPY
 5634H     _TPPRECOPY
 5639H     _CANRXHU_MON_PE_01INDICATIONFCT
 563EH     _CANRXCGW4INDICATIONFCT
 5643H     _CANRXCGW2INDICATIONFCT
 5648H     _CANRXCLU15INDICATIONFCT
 564DH     _CANRXMDPS11INDICATIONFCT
 5652H     _CANRXSAS1INDICATIONFCT
 5657H     SEGMENT (?PR?_DESCDUMMYPOSTHANDLER?DESC)
 565CH     SEGMENT (?PR?_DESCOEMPOSTCOMMONCOMMCTRL?DESC)
 5661H     SEGMENT (?PR?_DESCOEMPOSTENABLECOMMUNICATION?DESC)
 5666H     SEGMENT (?PR?_DESCPOSTREADDATABYIDENTIFIER?DESC)
 566BH     SEGMENT (?PR?_DESCOEMPOSTSTARTSESSIONDEFAULT?DESC)
 5670H     SEGMENT (?PR?_DESCOEMPOSTSTARTSESSIONPROGRAMMING?DESC)
 5675H     SEGMENT (?PR?_DESCOEMPOSTSTARTSESSIONEXTENDED?DESC)
 567AH     SEGMENT (?PR?_DESCOEMPOSTSTARTSESSIONPROGRAMMING_SESSION_FOR_KWP2000?DESC)
 567FH     SEGMENT (?PR?_DESCOEMPOSTSTARTSESSIONEXTENDED_SESSION_FOR_KWP2000?DESC)
 5684H     SEGMENT (?PR?_DESCOEMSTARTSESSIONDEFAULT?DESC)
 5689H     SEGMENT (?PR?_DESCOEMSTARTSESSIONPROGRAMMING?DESC)
 568EH     SEGMENT (?PR?_DESCOEMSTARTSESSIONEXTENDED?DESC)
 5693H     SEGMENT (?PR?_DESCOEMSTARTSESSIONPROGRAMMING_SESSION_FOR_KWP2000?DESC)
 5698H     SEGMENT (?PR?_DESCOEMSTARTSESSIONEXTENDED_SESSION_FOR_KWP2000?DESC)
 569DH     _APPLDESCECURESETHARD
 56A2H     _APPLDESCECURESETSOFT
 56A7H     _APPLDESCCLEARDIAGINFO
 56ACH     _APPLDESCREADDTCRDTCBSM
 56B1H     SEGMENT (?PR?_DESCOEMSTOPDIAGNOSTICSESSION?DESC)
 56B6H     SEGMENT (?PR?_DESCREADDATABYIDENTIFIER?DESC)
 56BBH     _APPLDESCREADMEMORYBYADDRESS
 56C0H     SEGMENT (?PR?_DESCOEMGETREQUESTSEED_UNLOCK_LEVEL_1?DESC)
 56C5H     SEGMENT (?PR?_DESCOEMSENDSENDKEY_UNLOCK_LEVEL_1?DESC)
 56CAH     SEGMENT (?PR?_DESCOEMCOMMONCOMMCTRL?DESC)
 56CFH     SEGMENT (?PR?_DESCOEMENABLECOMMUNICATION?DESC)
 56D4H     _APPLDESCWRITEDIDCAMERA_SYSTEM_ON_TIME
 56D9H     _APPLDESCWRITEDIDCAMERA_OPERATING_TIME_AND_SYSTEM_ON
 56DEH     _APPLDESCWRITEDIDCAMERA_WARNING_TEXT_LANGUAGE
 56E3H     _APPLDESCWRITEDIDCAMERA_RESET_COUNTER
 56E8H     SEGMENT (?PR?_DESCROUTINECONTROLBYIDENTIFIER?DESC)
 56EDH     _APPLDESCREQUESTDOWNLOAD
 56F2H     _APPLDESCTRANSFERDATA
BL51 BANKED LINKER/LOCATER V6.22                                                      11/17/2023  15:14:24  PAGE 18


 56F7H     _APPLDESCREQUESTTRANSFEREXIT
 56FCH     _APPLDESCWRITEMEMORYBYADDRESS
 5701H     SEGMENT (?PR?_DESCOEMPROCESSTESTERPRESENT?DESC)
 5706H     _APPLDESCCONTROLDTCSETTINGENABLE
 570BH     _APPLDESCCONTROLDTCSETTINGDISABLE
 5710H     _APPLDESCREADDIDCAMERA_RECORD_DATA_IDENTIFIER
 5715H     _APPLDESCREADDIDCANDATABASVERSIONIDENTIFIER
 571AH     _APPLDESCREADDIDCAMERA_SYSTEM_ON_TIME
 571FH     _APPLDESCREADDIDCAMERA_OPERATING_TIME_AND_SYSTEM_ON
 5724H     _APPLDESCREADDIDCAMERA_WARNING_TEXT_LANGUAGE
 5729H     _APPLDESCREADDIDCAMERA_RESET_COUNTER
 572EH     _APPLDESCREADDIDOEMSPAREPARTNUMBERDATAIDENTIFIER
 5733H     _APPLDESCREADDIDECUMANUFACTURINGDATEDATAIDENTIFIER
 5738H     _APPLDESCREADDIDSYSTEMSUPPLIERECUHARDWAREVERSIONNUMBERDATAIDENTIFIER
 573DH     _APPLDESCREADDIDSYSTEMSUPPLIERECUSOFTWAREVERSIONNUMBERDATAIDENTIFIER
 5742H     _APPLDESCRTNCTRLSTARTCAMERA_SENSOR_RESET
 5747H     _APPLDESCRTNCTRLSTOPCAMERA_SENSOR_RESET
 574CH     _APPLDESCRTNCTRLSTARTCAMERA_GUIDELINE_OFF
 5751H     _APPLDESCRTNCTRLSTOPCAMERA_GUIDELINE_OFF
 5756H     _APPLDESCRTNCTRLSTARTCAMERA_WARNING_TEXT_OFF
 575BH     _APPLDESCRTNCTRLSTOPCAMERA_WARNING_TEXT_OFF
 5760H     _APPLDESCRTNCTRLSTARTCALIBRATIONMODE_ONOFF
 5765H     _APPLDESCRTNCTRLSTOPCALIBRATIONMODE_ONOFF
 576AH     _APPLDESCRTNCTRLSTARTCALIBRATIONMODE_DEFAULT
 576FH     _APPLDESCRTNCTRLSTOPCALIBRATIONMODE_DEFAULT
 5774H     _APPLDESCRTNCTRLSTARTCALIBRATIONMODE_LEFT
 5779H     _APPLDESCRTNCTRLSTOPCALIBRATIONMODE_LEFT
 577EH     _APPLDESCRTNCTRLSTARTCALIBRATIONMODE_RIGHT
 5783H     _APPLDESCRTNCTRLSTOPCALIBRATIONMODE_RIGHT
 5788H     _APPLDESCRTNCTRLSTARTERASE_MEMORY
 578DH     _APPLDESCRTNCTRLSTOPERASE_MEMORY
 5792H     _APPLDESCRTNCTRLSTARTCHECK_PROGRAMMING_DEPENDENCIES
 5797H     _APPLDESCRTNCTRLSTOPCHECK_PROGRAMMING_DEPENDENCIES
 579CH     _APPLDESCFATALERROR
 57A1H     _APPLDESCONTRANSITIONSESSION
 57A6H     _APPLDESCONTRANSITIONSECURITYACCESS
 57ABH     _APPLDESCCHECKCOMMCTRL
 57B0H     APPLDESCONCOMMUNICATIONENABLE
 57B5H     APPLDESCONCOMMUNICATIONDISABLE
 57BAH     _APPLDESCSETCOMMMODEONRXPATH
 57BFH     _APPLDESCCHECKSESSIONTRANSITION
 57C4H     _APPLDESCSECURITYACCESSGETSEED
 57C9H     _APPLDESCSECURITYACCESSCHECKKEY
 57CEH     SEGMENT (?PR?ILMSGHU_MON_PE_01TIMEOUTINDICATION?IL_PAR)
 57D3H     SEGMENT (?PR?ILMSGCGW4TIMEOUTINDICATION?IL_PAR)
 57D8H     SEGMENT (?PR?ILMSGCGW2TIMEOUTINDICATION?IL_PAR)
 57DDH     SEGMENT (?PR?ILMSGCLU15TIMEOUTINDICATION?IL_PAR)
 57E2H     SEGMENT (?PR?ILMSGMDPS11TIMEOUTINDICATION?IL_PAR)
 57E7H     SEGMENT (?PR?ILMSGSAS1TIMEOUTINDICATION?IL_PAR)
 57ECH     FLASH_RESETTRAP



UNRESOLVED EXTERNAL SYMBOLS:
   CANCONFIRMATIONMASK
   CANCONFIRMATIONOFFSET
   ILCANHNDTOILHND
BL51 BANKED LINKER/LOCATER V6.22                                                      11/17/2023  15:14:24  PAGE 19


   ILGETRXCF_CK_FCZC_RVM_SW
   ILGETRXCF_GWAY_IGNSW
   ILGETRXENG_VOL
   ILGETRXG_SEL_DISP
   ILGETRXHU_RVM_CAMERAOFF
   ILGETRXWD4_ERR
   ILRESETCANCONFIRMATIONFLAGS
   ILTXCONFIRMATIONFCTPTR
   ILTXCYCLICCYCLES
   ILTXDEFAULTINITVALUE
   ILTXEVENTCYCLES
   ILTXINDIRECTION
   ILTXSTARTCYCLES
   ILTXTYPE
   ILTXUPDATECYCLES
   _?APPLCANFATALERROR
   _APPLNMBASICFATALERROR
   _DIAG_WARNING_ONOFF
   _ILPUTTXRVM_SW_IND
   _ILPUTTXRVM_VIEW



SYMBOL TABLE OF MODULE:  D:\micom_diag\CK\AVN\FIRMWARE\Application\SteeringCamera_App.omf (F50X_TARGET_APP_INFOBLOCK)

  VALUE           TYPE          NAME
  ----------------------------------

  -------         MODULE        F50X_TARGET_APP_INFOBLOCK
  C:0000H         SYMBOL        _ICE_DUMMY_
 C0:7FF0H         PUBLIC        INFOBLOCK
  -------         ENDMOD        F50X_TARGET_APP_INFOBLOCK

  -------         MODULE        MAIN
  C:0000H         SYMBOL        _ICE_DUMMY_
  D:00A7H         PUBLIC        SFRPAGE
  D:00BBH         PUBLIC        ADC0MX
  D:00D1H         PUBLIC        REF0CN
  D:00D9H         PUBLIC        PCA0MD
  D:00E6H         PUBLIC        EIE1
  D:00BDH         PUBLIC        ADC0
  B:00A8H.7       PUBLIC        EA
  B:00C8H.7       PUBLIC        TF2H
  B:00E8H.5       PUBLIC        AD0INT
  D:00A8H         PUBLIC        VSTDLIB_IE
  X:06D2H         PUBLIC        EEPROM_Update_Mode
  X:06D3H         PUBLIC        AMUX_INPUT
  C:6780H         PUBLIC        Temperature_compute
  C:6D12H         PUBLIC        main
  C:63B0H         PUBLIC        TIMER2_ISR
  C:623BH         PUBLIC        ADC_ISR
  X:06D4H         PUBLIC        ADC_SUM
  B:0020H.0       PUBLIC        CONV_COMPLETE
  X:06D8H         PUBLIC        vcan_count
  X:06D9H         PUBLIC        ga_Video_Signal
  X:0701H         PUBLIC        ga_Video_Signal_Sum
  X:0705H         PUBLIC        ga_Video_Signal_Cnt
BL51 BANKED LINKER/LOCATER V6.22                                                      11/17/2023  15:14:24  PAGE 20


  -------         PROC          MAIN
  -------         DO            
  X:0AD2H         SYMBOL        On_Time
  X:0AD3H         SYMBOL        temper
  -------         ENDDO         
  C:6D12H         LINE#         72
  C:6D12H         LINE#         73
  C:6D12H         LINE#         74
  C:6D17H         LINE#         75
  C:6D19H         LINE#         76
  C:6D1CH         LINE#         78
  C:6D1FH         LINE#         79
  C:6D22H         LINE#         80
  C:6D25H         LINE#         81
  C:6D28H         LINE#         83
  C:6D31H         LINE#         84
  C:6D3AH         LINE#         85
  C:6D3AH         LINE#         86
  C:6D3AH         LINE#         87
  C:6D3DH         LINE#         89
  C:6D43H         LINE#         90
  C:6D43H         LINE#         91
  C:6D46H         LINE#         92
  C:6D49H         LINE#         93
  C:6D4CH         LINE#         94
  C:6D4FH         LINE#         96
  C:6D59H         LINE#         97
  C:6D5CH         LINE#         98
  C:6D5CH         LINE#         99
  C:6D62H         LINE#         100
  C:6D62H         LINE#         101
  C:6D65H         LINE#         102
  C:6D6BH         LINE#         103
  C:6D6EH         LINE#         104
  C:6D71H         LINE#         105
  C:6D73H         LINE#         107
  C:6D73H         LINE#         108
  C:6D78H         LINE#         109
  C:6D7BH         LINE#         110
  C:6D7EH         LINE#         111
  C:6D7EH         LINE#         112
  C:6D7EH         LINE#         114
  C:6D7EH         LINE#         115
  -------         ENDPROC       MAIN
  -------         PROC          TIMER2_ISR
  -------         DO            
  X:0B28H         SYMBOL        i
  X:06CBH         SYMBOL        vcan_count
  -------         ENDDO         
  C:63B0H         LINE#         180
  C:63D2H         LINE#         185
  C:63D7H         LINE#         187
  C:63D9H         LINE#         189
  C:63FEH         LINE#         191
  C:6404H         LINE#         192
  C:640AH         LINE#         193
  C:640AH         LINE#         194
BL51 BANKED LINKER/LOCATER V6.22                                                      11/17/2023  15:14:24  PAGE 21


  C:640CH         LINE#         195
  C:640FH         LINE#         196
  C:640FH         LINE#         199
  C:642DH         LINE#         200
  C:642DH         LINE#         201
  C:6437H         LINE#         202
  C:6449H         LINE#         203
  C:6449H         LINE#         204
  C:645EH         LINE#         206
  C:6484H         LINE#         207
  C:6484H         LINE#         208
  C:64B7H         LINE#         209
  C:64B9H         LINE#         211
  C:64B9H         LINE#         212
  C:64D1H         LINE#         213
  C:64D1H         LINE#         214
  C:64DAH         LINE#         215
  C:64DAH         LINE#         250
  -------         ENDPROC       TIMER2_ISR
  -------         PROC          ADC_ISR
  -------         DO            
  X:06CCH         SYMBOL        accumulator
  X:06D0H         SYMBOL        measurements
  X:0B29H         SYMBOL        Settling_Cnt
  -------         ENDDO         
  C:623BH         LINE#         253
  C:625DH         LINE#         260
  C:6262H         LINE#         262
  C:6265H         LINE#         265
  C:626EH         LINE#         266
  C:626EH         LINE#         267
  C:6278H         LINE#         268
  C:6278H         LINE#         269
  C:628CH         LINE#         270
  C:6295H         LINE#         271
  C:629FH         LINE#         272
  C:62A1H         LINE#         273
  C:62A4H         LINE#         275
  C:62A4H         LINE#         276
  C:62EDH         LINE#         280
  C:62FBH         LINE#         281
  C:62FBH         LINE#         282
  C:62FDH         LINE#         284
  C:62FDH         LINE#         285
  C:6313H         LINE#         286
  C:633AH         LINE#         287
  C:6340H         LINE#         288
  C:6346H         LINE#         289
  C:6346H         LINE#         290
  C:6366H         LINE#         291
  C:6370H         LINE#         292
  C:6375H         LINE#         293
  C:6375H         LINE#         295
  C:6375H         LINE#         296
  C:6388H         LINE#         298
  C:638BH         LINE#         299
  C:638DH         LINE#         300
BL51 BANKED LINKER/LOCATER V6.22                                                      11/17/2023  15:14:24  PAGE 22


  -------         ENDPROC       ADC_ISR
  -------         PROC          TEMPERATURE_COMPUTE
  -------         DO            
  X:095DH         SYMBOL        temp_scaled
  X:0961H         SYMBOL        temp_whole
  D:0002H         SYMBOL        temp_frac
  -------         ENDDO         
  C:6780H         LINE#         302
  C:6780H         LINE#         303
  C:6780H         LINE#         310
  C:6783H         LINE#         312
  C:6786H         LINE#         314
  C:6788H         LINE#         316
  C:678EH         LINE#         317
  C:678EH         LINE#         318
  C:67A2H         LINE#         321
  C:67A2H         LINE#         322
  C:67A2H         LINE#         323
  C:67C0H         LINE#         328
  C:67DDH         LINE#         330
  C:6800H         LINE#         332
  C:6800H         LINE#         346
  C:681EH         LINE#         347
  C:682CH         LINE#         349
  C:6878H         LINE#         351
  C:6880H         LINE#         352
  C:6880H         LINE#         353
  C:688DH         LINE#         355
  C:688DH         LINE#         357
  C:688FH         LINE#         358
  C:688FH         LINE#         359
  -------         ENDPROC       TEMPERATURE_COMPUTE
  -------         ENDMOD        MAIN

  -------         MODULE        ?C_STARTUP
  C:6BF9H         SEGMENT       ?C_C51STARTUP
  I:0050H         SEGMENT       ?STACK
  C:4000H         PUBLIC        ?C_STARTUP
  D:00E0H         SYMBOL        ACC
  D:00F0H         SYMBOL        B
  D:0083H         SYMBOL        DPH
  D:0082H         SYMBOL        DPL
  N:0000H         SYMBOL        IBPSTACK
  N:0100H         SYMBOL        IBPSTACKTOP
  N:0080H         SYMBOL        IDATALEN
  C:6BFFH         SYMBOL        IDATALOOP
  N:0000H         SYMBOL        PBPSTACK
  N:0100H         SYMBOL        PBPSTACKTOP
  D:00D9H         SYMBOL        PCA0MD
  N:0000H         SYMBOL        PDATALEN
  N:0000H         SYMBOL        PDATASTART
  N:0000H         SYMBOL        PPAGE
  N:0000H         SYMBOL        PPAGEENABLE
  D:00A0H         SYMBOL        PPAGE_SFR
  D:0081H         SYMBOL        SP
  C:6BF9H         SYMBOL        STARTUP1
  N:0000H         SYMBOL        XBPSTACK
BL51 BANKED LINKER/LOCATER V6.22                                                      11/17/2023  15:14:24  PAGE 23


  N:0000H         SYMBOL        XBPSTACKTOP
  N:0000H         SYMBOL        XDATALEN
  N:0000H         SYMBOL        XDATASTART
  C:4000H         LINE#         149
  C:6BF9H         LINE#         155
  C:6BFCH         LINE#         158
  C:6BFEH         LINE#         159
  C:6BFFH         LINE#         160
  C:6C00H         LINE#         161
  C:6C02H         LINE#         210
  C:6C05H         LINE#         218
  C:6C08H         LINE#         221
  -------         ENDMOD        ?C_STARTUP

  -------         MODULE        DRV_MCU
  C:0000H         SYMBOL        _ICE_DUMMY_
  D:0088H         PUBLIC        TCON
  D:00A1H         PUBLIC        OSCICN
  D:00A4H         PUBLIC        P0MDOUT
  D:00A5H         PUBLIC        P1MDOUT
  D:00A6H         PUBLIC        P2MDOUT
  D:00A7H         PUBLIC        SFRPAGE
  D:00C7H         PUBLIC        XBR2
  D:00D4H         PUBLIC        P0SKIP
  D:00D5H         PUBLIC        P1SKIP
  D:00E1H         PUBLIC        XBR0
  D:00E4H         PUBLIC        IT01CF
  D:00EFH         PUBLIC        RSTSRC
  D:00F3H         PUBLIC        P2MDIN
  D:00FFH         PUBLIC        VDM0CN
  B:00A8H.2       PUBLIC        EX1
  B:0090H.4       PUBLIC        MCU_F_ENABLE
  B:00A0H.4       PUBLIC        MCU_SENSOR_RESET
  B:00A0H.5       PUBLIC        MCU_MCLK_ENABLE
  B:00A0H.7       PUBLIC        MCU_18V_ENABLE
  C:73B2H         PUBLIC        Vdd_Monitor_Init
  C:7398H         PUBLIC        Osc_Init
  C:727BH         PUBLIC        Port_Init
  C:73B6H         PUBLIC        Rstsrc_Init
  C:4003H         PUBLIC        Exinterrupt_Init
  C:73BAH         PUBLIC        MCU_Reset
  C:6FD8H         PUBLIC        _Device_Init
  C:73A2H         PUBLIC        Frame_Sync_Status
  X:0B2AH         PUBLIC        g_FrameSync
  C:7373H         PUBLIC        INT1_ISR
  -------         PROC          PORT_INIT
  C:727BH         LINE#         18
  C:727BH         LINE#         19
  C:727BH         LINE#         49
  C:727EH         LINE#         50
  C:7281H         LINE#         51
  C:7284H         LINE#         52
  C:7287H         LINE#         53
  C:728AH         LINE#         54
  C:728DH         LINE#         55
  C:7290H         LINE#         56
  C:7293H         LINE#         57
BL51 BANKED LINKER/LOCATER V6.22                                                      11/17/2023  15:14:24  PAGE 24


  C:7296H         LINE#         58
  C:7299H         LINE#         59
  C:729BH         LINE#         60
  C:729DH         LINE#         62
  C:729FH         LINE#         64
  -------         ENDPROC       PORT_INIT
  -------         PROC          VDD_MONITOR_INIT
  C:73B2H         LINE#         66
  C:73B2H         LINE#         67
  C:73B2H         LINE#         76
  C:73B5H         LINE#         81
  -------         ENDPROC       VDD_MONITOR_INIT
  -------         PROC          OSC_INIT
  C:7398H         LINE#         83
  C:7398H         LINE#         84
  C:7398H         LINE#         85
  C:739BH         LINE#         86
  C:739EH         LINE#         87
  C:73A1H         LINE#         88
  -------         ENDPROC       OSC_INIT
  -------         PROC          RSTSRC_INIT
  C:73B6H         LINE#         90
  C:73B6H         LINE#         91
  C:73B6H         LINE#         92
  C:73B9H         LINE#         93
  -------         ENDPROC       RSTSRC_INIT
  -------         PROC          EXINTERRUPT_INIT
  C:4003H         LINE#         95
  C:4003H         LINE#         96
  C:4003H         LINE#         97
  C:4006H         LINE#         98
  C:4009H         LINE#         99
  C:400CH         LINE#         100
  C:400EH         LINE#         101
  C:4011H         LINE#         102
  -------         ENDPROC       EXINTERRUPT_INIT
  -------         PROC          FRAME_SYNC_STATUS
  -------         DO            
  D:0007H         SYMBOL        ret
  -------         ENDDO         
  C:73A2H         LINE#         104
  C:73A2H         LINE#         105
  C:73A2H         LINE#         106
  C:73A4H         LINE#         107
  C:73A9H         LINE#         108
  C:73ABH         LINE#         109
  C:73ABH         LINE#         110
  -------         ENDPROC       FRAME_SYNC_STATUS
  -------         PROC          MCU_RESET
  C:73BAH         LINE#         112
  C:73BAH         LINE#         113
  C:73BAH         LINE#         114
  C:73BDH         LINE#         115
  -------         ENDPROC       MCU_RESET
  -------         PROC          _DEVICE_INIT
  D:0007H         SYMBOL        Device
  C:6FD8H         LINE#         117
BL51 BANKED LINKER/LOCATER V6.22                                                      11/17/2023  15:14:24  PAGE 25


  C:6FD8H         LINE#         118
  C:6FD8H         LINE#         120
  C:6FE0H         LINE#         121
  C:6FE0H         LINE#         122
  C:6FE0H         LINE#         123
  C:6FE2H         LINE#         124
  C:6FE4H         LINE#         125
  C:6FEBH         LINE#         126
  C:6FEDH         LINE#         127
  C:6FF4H         LINE#         128
  C:6FF6H         LINE#         129
  C:6FFDH         LINE#         130
  C:6FFEH         LINE#         131
  C:6FFEH         LINE#         132
  C:7000H         LINE#         133
  C:7002H         LINE#         134
  C:7009H         LINE#         135
  C:700BH         LINE#         136
  C:7012H         LINE#         137
  C:7014H         LINE#         138
  C:701BH         LINE#         139
  C:701BH         LINE#         140
  C:701BH         LINE#         141
  C:701BH         LINE#         142
  C:701BH         LINE#         143
  -------         ENDPROC       _DEVICE_INIT
  -------         PROC          INT1_ISR
  C:7373H         LINE#         145
  C:7379H         LINE#         150
  C:737FH         LINE#         151
  -------         ENDPROC       INT1_ISR
  -------         ENDMOD        DRV_MCU

  -------         MODULE        MGR_MCU
  C:0000H         SYMBOL        _ICE_DUMMY_
  D:00A7H         PUBLIC        SFRPAGE
  D:00D9H         PUBLIC        PCA0MD
  D:00EFH         PUBLIC        RSTSRC
  D:00FFH         PUBLIC        VDM0CN
  B:00A8H.7       PUBLIC        EA
 C1:EEDEH         PUBLIC        Init_McuTask
 C1:FD61H         PUBLIC        Reset_Mcu
 C1:E536H         PUBLIC        Operate_McuTask

  -------         PROC BANK=1   INIT_MCUTASK
  -------         DO            
  D:0007H         SYMBOL        i
  -------         ENDDO         
 C1:EEDEH         LINE#         19
 C1:EEDEH         LINE#         20
 C1:EEDEH         LINE#         21
 C1:EEE0H         LINE#         23
 C1:EEE2H         LINE#         25
 C1:EEE5H         LINE#         27
 C1:EEE8H         LINE#         29
 C1:EEF1H         LINE#         30
 C1:EEF4H         LINE#         31
BL51 BANKED LINKER/LOCATER V6.22                                                      11/17/2023  15:14:24  PAGE 26


 C1:EEF7H         LINE#         32
 C1:EEFAH         LINE#         33
 C1:EEFDH         LINE#         34
 C1:EF00H         LINE#         35
 C1:EF03H         LINE#         36
 C1:EF06H         LINE#         37
 C1:EF09H         LINE#         38
 C1:EF0CH         LINE#         39
 C1:EF0EH         LINE#         40
  -------         ENDPROC       INIT_MCUTASK

  -------         PROC BANK=1   OPERATE_MCUTASK
  -------         DO            
  X:0B2CH         SYMBOL        On_Time
  X:0B2BH         SYMBOL        init_flag
  -------         ENDDO         
 C1:E536H         LINE#         42
 C1:E536H         LINE#         43
 C1:E536H         LINE#         44
 C1:E53BH         LINE#         48
 C1:E545H         LINE#         49
 C1:E548H         LINE#         50
 C1:E548H         LINE#         51
 C1:E54BH         LINE#         52
 C1:E54BH         LINE#         54
 C1:E555H         LINE#         55
 C1:E558H         LINE#         56
 C1:E558H         LINE#         57
 C1:E55BH         LINE#         58
 C1:E55EH         LINE#         59
 C1:E561H         LINE#         60
 C1:E561H         LINE#         62
 C1:E567H         LINE#         63
 C1:E567H         LINE#         64
 C1:E569H         LINE#         65
 C1:E56EH         LINE#         66
 C1:E56EH         LINE#         67
 C1:E574H         LINE#         68
 C1:E574H         LINE#         69
 C1:E579H         LINE#         70
 C1:E57BH         LINE#         72
 C1:E57BH         LINE#         73
 C1:E580H         LINE#         74
 C1:E580H         LINE#         75
 C1:E586H         LINE#         76
 C1:E586H         LINE#         77
 C1:E58BH         LINE#         78
 C1:E58CH         LINE#         80
 C1:E58CH         LINE#         81
 C1:E591H         LINE#         82
 C1:E591H         LINE#         83
 C1:E591H         LINE#         84
 C1:E591H         LINE#         87
  -------         ENDPROC       OPERATE_MCUTASK

  -------         PROC BANK=1   RESET_MCU
 C1:FD61H         LINE#         89
BL51 BANKED LINKER/LOCATER V6.22                                                      11/17/2023  15:14:24  PAGE 27


 C1:FD61H         LINE#         90
 C1:FD61H         LINE#         91
 C1:FD64H         LINE#         92
  -------         ENDPROC       RESET_MCU
  -------         ENDMOD        MGR_MCU

  -------         MODULE        DRV_TIMER
  C:0000H         SYMBOL        _ICE_DUMMY_
  D:0088H         PUBLIC        TCON
  D:0089H         PUBLIC        TMOD
  D:008AH         PUBLIC        TL0
  D:008BH         PUBLIC        TL1
  D:008CH         PUBLIC        TH0
  D:008DH         PUBLIC        TH1
  D:008EH         PUBLIC        CKCON
  D:0091H         PUBLIC        TMR3CN
  D:0091H         PUBLIC        TMR5CN
  D:0092H         PUBLIC        TMR5CAPL
  D:0093H         PUBLIC        TMR5CAPH
  D:0096H         PUBLIC        TMR5CF
  D:00A7H         PUBLIC        SFRPAGE
  D:00C8H         PUBLIC        TMR2CN
  D:00E6H         PUBLIC        EIE1
  D:0092H         PUBLIC        TMR3RL
  D:0094H         PUBLIC        TMR3
  D:00CAH         PUBLIC        TMR2RL
  D:00CCH         PUBLIC        TMR2
  B:0088H.6       PUBLIC        TR1
  B:0088H.5       PUBLIC        TF0
  B:0088H.4       PUBLIC        TR0
  B:00A8H.5       PUBLIC        ET2
  B:00C8H.2       PUBLIC        TR2
 C1:F709H         PUBLIC        Timer1_Init
 C1:F52AH         PUBLIC        Timer2_Init
 C1:F490H         PUBLIC        Timer3_Init
 C1:F7A0H         PUBLIC        Timer5_Init
 C1:E648H         PUBLIC        _Wait_ms
 C1:D9C2H         PUBLIC        Global_Timer_Init
 C1:CF2BH         PUBLIC        _Delay_Time_Set
 C1:D12CH         PUBLIC        _Delay_Time_Get
 C1:E752H         PUBLIC        _Delay_Time_Expire
 C1:FA72H         PUBLIC        Get_Time
  X:0498H         PUBLIC        g_Global_Tick_Msg
  X:04A1H         PUBLIC        ga_tCAN_Time_Msg

  -------         PROC BANK=1   GLOBAL_TIMER_INIT
  -------         DO            
  D:0003H         SYMBOL        i
  -------         ENDDO         
 C1:D9C2H         LINE#         14
 C1:D9C2H         LINE#         15
 C1:D9C2H         LINE#         16
 C1:D9C4H         LINE#         17
 C1:D9CEH         LINE#         18
 C1:D9D8H         LINE#         19
 C1:D9DDH         LINE#         21
 C1:D9E3H         LINE#         22
BL51 BANKED LINKER/LOCATER V6.22                                                      11/17/2023  15:14:24  PAGE 28


 C1:D9E3H         LINE#         23
 C1:D9F3H         LINE#         24
 C1:DA08H         LINE#         25
 C1:DA1DH         LINE#         26
 C1:DA32H         LINE#         27
 C1:DA35H         LINE#         33
 C1:DA38H         LINE#         36
 C1:DA3BH         LINE#         39
 C1:DA3EH         LINE#         45
 C1:DA41H         LINE#         48
  -------         ENDPROC       GLOBAL_TIMER_INIT

  -------         PROC BANK=1   TIMER1_INIT
  -------         DO            
  D:0007H         SYMBOL        SFRPAGE_save
  -------         ENDDO         
 C1:F709H         LINE#         77
 C1:F709H         LINE#         78
 C1:F709H         LINE#         79
 C1:F70BH         LINE#         80
 C1:F70EH         LINE#         85
 C1:F711H         LINE#         87
 C1:F714H         LINE#         90
 C1:F717H         LINE#         93
 C1:F71AH         LINE#         95
 C1:F71CH         LINE#         97
 C1:F71EH         LINE#         98
  -------         ENDPROC       TIMER1_INIT

  -------         PROC BANK=1   TIMER2_INIT
  -------         DO            
  D:0007H         SYMBOL        SFRPAGE_save
  -------         ENDDO         
 C1:F52AH         LINE#         100
 C1:F52AH         LINE#         101
 C1:F52AH         LINE#         102
 C1:F52CH         LINE#         103
 C1:F52FH         LINE#         105
 C1:F531H         LINE#         107
 C1:F534H         LINE#         110
 C1:F53AH         LINE#         112
 C1:F540H         LINE#         113
 C1:F542H         LINE#         114
 C1:F544H         LINE#         116
 C1:F546H         LINE#         117
  -------         ENDPROC       TIMER2_INIT

  -------         PROC BANK=1   TIMER3_INIT
  -------         DO            
  D:0007H         SYMBOL        SFRPAGE_save
  -------         ENDDO         
 C1:F490H         LINE#         120
 C1:F490H         LINE#         121
 C1:F490H         LINE#         122
 C1:F492H         LINE#         123
 C1:F495H         LINE#         125
 C1:F497H         LINE#         128
BL51 BANKED LINKER/LOCATER V6.22                                                      11/17/2023  15:14:24  PAGE 29


 C1:F49AH         LINE#         130
 C1:F4A0H         LINE#         131
 C1:F4A6H         LINE#         134
 C1:F4A9H         LINE#         135
 C1:F4ACH         LINE#         137
 C1:F4AEH         LINE#         138
  -------         ENDPROC       TIMER3_INIT

  -------         PROC BANK=1   TIMER5_INIT
 C1:F7A0H         LINE#         146
 C1:F7A0H         LINE#         147
 C1:F7A0H         LINE#         148
 C1:F7A3H         LINE#         149
 C1:F7A6H         LINE#         150
 C1:F7A9H         LINE#         151
 C1:F7ACH         LINE#         152
 C1:F7AFH         LINE#         153
 C1:F7B2H         LINE#         154
  -------         ENDPROC       TIMER5_INIT

  -------         PROC BANK=1   _WAIT_MS
  X:0A51H         SYMBOL        ms
  -------         DO            
  X:0A53H         SYMBOL        reg_tval
  -------         ENDDO         
 C1:E648H         LINE#         157
 C1:E650H         LINE#         158
 C1:E650H         LINE#         160
 C1:E653H         LINE#         162
 C1:E656H         LINE#         163
 C1:E659H         LINE#         164
 C1:E65CH         LINE#         166
 C1:E65FH         LINE#         168
 C1:E66EH         LINE#         169
 C1:E66EH         LINE#         170
 C1:E670H         LINE#         171
 C1:E673H         LINE#         173
 C1:E676H         LINE#         174
 C1:E678H         LINE#         175
 C1:E67AH         LINE#         177
 C1:E67AH         LINE#         178
 C1:E682H         LINE#         179
 C1:E685H         LINE#         180
 C1:E685H         LINE#         181
 C1:E687H         LINE#         182
 C1:E687H         LINE#         183
 C1:E689H         LINE#         184
 C1:E697H         LINE#         185
 C1:E69AH         LINE#         186
 C1:E69CH         LINE#         187
 C1:E69EH         LINE#         189
 C1:E6A1H         LINE#         190
  -------         ENDPROC       _WAIT_MS

  -------         PROC BANK=1   _DELAY_TIME_EXPIRE
  D:0003H         SYMBOL        ID
 C1:E752H         LINE#         192
BL51 BANKED LINKER/LOCATER V6.22                                                      11/17/2023  15:14:24  PAGE 30


 C1:E755H         LINE#         193
 C1:E755H         LINE#         194
 C1:E765H         LINE#         195
 C1:E77AH         LINE#         196
 C1:E78FH         LINE#         197
 C1:E7A4H         LINE#         198
  -------         ENDPROC       _DELAY_TIME_EXPIRE

  -------         PROC BANK=1   _DELAY_TIME_SET
  X:0A54H         SYMBOL        ID
  X:0A55H         SYMBOL        Delay_Time
 C1:CF2BH         LINE#         200
 C1:CF39H         LINE#         201
 C1:CF39H         LINE#         202
 C1:CF58H         LINE#         203
 C1:CF74H         LINE#         204
 C1:CF85H         LINE#         206
 C1:CFD5H         LINE#         214
  -------         ENDPROC       _DELAY_TIME_SET

  -------         PROC BANK=1   _DELAY_TIME_GET
  X:0AD4H         SYMBOL        ID
  -------         DO            
  X:0AD5H         SYMBOL        ret
  -------         ENDDO         
 C1:D12CH         LINE#         216
 C1:D131H         LINE#         217
 C1:D131H         LINE#         218
 C1:D134H         LINE#         220
 C1:D157H         LINE#         221
 C1:D16AH         LINE#         222
 C1:D16AH         LINE#         223
 C1:D1A2H         LINE#         224
 C1:D1A2H         LINE#         225
 C1:D1C6H         LINE#         226
 C1:D1CCH         LINE#         227
 C1:D1CCH         LINE#         228
 C1:D1CCH         LINE#         229
 C1:D1D1H         LINE#         230
  -------         ENDPROC       _DELAY_TIME_GET

  -------         PROC BANK=1   GET_TIME
 C1:FA72H         LINE#         232
 C1:FA72H         LINE#         233
 C1:FA72H         LINE#         234
 C1:FA7EH         LINE#         235
  -------         ENDPROC       GET_TIME
  -------         ENDMOD        DRV_TIMER

  -------         MODULE        DRV_I2C
  C:0000H         SYMBOL        _ICE_DUMMY_
  D:0091H         PUBLIC        TMR3CN
  D:00A7H         PUBLIC        SFRPAGE
  D:00C0H         PUBLIC        SMB0CN
  D:00C1H         PUBLIC        SMB0CF
  D:00C2H         PUBLIC        SMB0DAT
  D:00E6H         PUBLIC        EIE1
BL51 BANKED LINKER/LOCATER V6.22                                                      11/17/2023  15:14:24  PAGE 31


  B:00C0H.5       PUBLIC        STA
  B:00C0H.4       PUBLIC        STO
  B:00C0H.2       PUBLIC        ARBLOST
  B:00C0H.1       PUBLIC        ACK
  B:00C0H.0       PUBLIC        SI
  C:701CH         PUBLIC        SMBUS0_Init
  C:6EB6H         PUBLIC        SMB_Write
  C:6E20H         PUBLIC        SMB_Read
  C:6A8AH         PUBLIC        _i2c_master_read
  C:6D81H         PUBLIC        _i2c_master_write
  C:404EH         PUBLIC        TIMER3_ISR
  C:6890H         PUBLIC        SMBUS0_ISR
  X:0880H         PUBLIC        g_I2C_Err_Cnt
  X:0881H         SYMBOL        number_wd
  X:0882H         SYMBOL        number_rd
  X:0883H         SYMBOL        SMB_DATA_IN
  X:0887H         SYMBOL        SMB_DATA_OUT
  X:088BH         SYMBOL        TARGET
  X:088CH         SYMBOL        SMB_BUSY
  X:088DH         SYMBOL        SMB_RW
  X:088EH         SYMBOL        NUM_ERRORS
  -------         PROC          SMBUS0_INIT
  -------         DO            
  D:0007H         SYMBOL        i
  D:0006H         SYMBOL        SFRPAGE_save
  -------         ENDDO         
  C:701CH         LINE#         38
  C:701CH         LINE#         39
  C:701CH         LINE#         40
  C:701EH         LINE#         42
  C:7020H         LINE#         43
  C:7022H         LINE#         45
  C:7025H         LINE#         53
  C:7028H         LINE#         55
  C:702BH         LINE#         57
  C:702DH         LINE#         62
  C:7033H         LINE#         63
  C:7033H         LINE#         64
  C:703FH         LINE#         65
  C:704BH         LINE#         66
  C:704EH         LINE#         67
  C:7053H         LINE#         68
  C:7055H         LINE#         70
  C:7059H         LINE#         71
  C:705BH         LINE#         72
  C:705DH         LINE#         73
  C:705FH         LINE#         75
  -------         ENDPROC       SMBUS0_INIT
  -------         PROC          _I2C_MASTER_READ
  X:09CFH         SYMBOL        slave_addr
  D:0004H         SYMBOL        addr
  X:09D0H         SYMBOL        Byte_Length
  -------         DO            
  X:09D1H         SYMBOL        dat
  X:09D3H         SYMBOL        i
  -------         ENDDO         
  C:6A8AH         LINE#         77
BL51 BANKED LINKER/LOCATER V6.22                                                      11/17/2023  15:14:24  PAGE 32


  C:6A92H         LINE#         78
  C:6A92H         LINE#         79
  C:6A97H         LINE#         80
  C:6A99H         LINE#         82
  C:6A9EH         LINE#         83
  C:6AA0H         LINE#         85
  C:6AA5H         LINE#         88
  C:6AACH         LINE#         89
  C:6AACH         LINE#         90
  C:6AB2H         LINE#         91
  C:6AB4H         LINE#         92
  C:6AB9H         LINE#         93
  C:6ABCH         LINE#         94
  C:6ABEH         LINE#         96
  C:6ABEH         LINE#         97
  C:6AC4H         LINE#         98
  C:6AC6H         LINE#         99
  C:6ACBH         LINE#         100
  C:6ACBH         LINE#         103
  C:6AD3H         LINE#         104
  C:6AD6H         LINE#         107
  C:6ADEH         LINE#         108
  C:6AE1H         LINE#         110
  C:6AEEH         LINE#         111
  C:6AF5H         LINE#         112
  C:6AF5H         LINE#         113
  C:6B08H         LINE#         114
  C:6B08H         LINE#         116
  C:6B17H         LINE#         117
  C:6B17H         LINE#         118
  C:6B23H         LINE#         119
  C:6B2BH         LINE#         121
  C:6B34H         LINE#         122
  C:6B36H         LINE#         123
  C:6B3CH         LINE#         124
  C:6B3CH         LINE#         126
  C:6B44H         LINE#         127
  -------         ENDPROC       _I2C_MASTER_READ
  -------         PROC          _I2C_MASTER_WRITE
  D:0001H         SYMBOL        slave_addr
  D:0004H         SYMBOL        addr
  D:0002H         SYMBOL        dat
  X:099AH         SYMBOL        Byte_Length
  -------         DO            
  X:099BH         SYMBOL        addr_num
  -------         ENDDO         
  C:6D81H         LINE#         130
  C:6D84H         LINE#         131
  C:6D84H         LINE#         132
  C:6D89H         LINE#         133
  C:6D8DH         LINE#         135
  C:6D95H         LINE#         136
  C:6D95H         LINE#         137
  C:6D9BH         LINE#         138
  C:6D9EH         LINE#         140
  C:6DA3H         LINE#         141
  C:6DA6H         LINE#         142
BL51 BANKED LINKER/LOCATER V6.22                                                      11/17/2023  15:14:24  PAGE 33


  C:6DA9H         LINE#         143
  C:6DACH         LINE#         144
  C:6DAEH         LINE#         146
  C:6DAEH         LINE#         147
  C:6DB4H         LINE#         148
  C:6DB7H         LINE#         149
  C:6DBCH         LINE#         150
  C:6DBFH         LINE#         151
  C:6DBFH         LINE#         152
  C:6DC4H         LINE#         153
  C:6DC7H         LINE#         155
  C:6DD0H         LINE#         156
  C:6DD2H         LINE#         157
  C:6DD2H         LINE#         158
  -------         ENDPROC       _I2C_MASTER_WRITE
  -------         PROC          TIMER3_ISR
  C:404EH         LINE#         174
  C:4054H         LINE#         179
  C:4057H         LINE#         180
  C:405AH         LINE#         181
  C:405DH         LINE#         182
  C:405FH         LINE#         183
  C:4064H         LINE#         184
  -------         ENDPROC       TIMER3_ISR
  -------         PROC          SMBUS0_ISR
  -------         DO            
  X:087DH         SYMBOL        status
  X:087EH         SYMBOL        rec_byte_counter
  X:087FH         SYMBOL        sent_byte_counter
  D:0007H         SYMBOL        FAIL
  -------         ENDDO         
  C:6890H         LINE#         197
  C:68A1H         LINE#         206
  C:68A3H         LINE#         208
  C:68AAH         LINE#         210
  C:68B0H         LINE#         211
  C:68B0H         LINE#         213
  C:68B3H         LINE#         214
  C:68B7H         LINE#         216
  C:68C6H         LINE#         217
  C:68C6H         LINE#         219
  C:68C6H         LINE#         220
  C:68D2H         LINE#         221
  C:68D4H         LINE#         222
  C:68DAH         LINE#         223
  C:68DCH         LINE#         224
  C:68DFH         LINE#         227
  C:68DFH         LINE#         228
  C:68E7H         LINE#         229
  C:68EAH         LINE#         230
  C:68EAH         LINE#         231
  C:68F3H         LINE#         232
  C:68F3H         LINE#         233
  C:6901H         LINE#         234
  C:6901H         LINE#         236
  C:690EH         LINE#         237
  C:6914H         LINE#         238
BL51 BANKED LINKER/LOCATER V6.22                                                      11/17/2023  15:14:24  PAGE 34


  C:6916H         LINE#         240
  C:6916H         LINE#         241
  C:6918H         LINE#         242
  C:691DH         LINE#         243
  C:691DH         LINE#         244
  C:691DH         LINE#         245
  C:691FH         LINE#         247
  C:691FH         LINE#         248
  C:6921H         LINE#         249
  C:6923H         LINE#         250
  C:6929H         LINE#         251
  C:6929H         LINE#         252
  C:692BH         LINE#         255
  C:692BH         LINE#         256
  C:6939H         LINE#         257
  C:6939H         LINE#         258
  C:6946H         LINE#         259
  C:6948H         LINE#         260
  C:694EH         LINE#         261
  C:6950H         LINE#         263
  C:6950H         LINE#         264
  C:695DH         LINE#         265
  C:695FH         LINE#         266
  C:6961H         LINE#         268
  C:6966H         LINE#         269
  C:6966H         LINE#         270
  C:6968H         LINE#         272
  C:6968H         LINE#         273
  C:696AH         LINE#         274
  C:696CH         LINE#         276
  C:696CH         LINE#         277
  C:696EH         LINE#         279
  C:696EH         LINE#         281
  C:6970H         LINE#         282
  C:6970H         LINE#         284
  C:6974H         LINE#         285
  C:6974H         LINE#         286
  C:6977H         LINE#         287
  C:697AH         LINE#         288
  C:697CH         LINE#         289
  C:697EH         LINE#         290
  C:6980H         LINE#         292
  C:6985H         LINE#         294
  C:6986H         LINE#         296
  C:698CH         LINE#         299
  C:698CH         LINE#         301
  C:698EH         LINE#         302
  -------         ENDPROC       SMBUS0_ISR
  -------         PROC          SMB_WRITE
  -------         DO            
  X:0AD6H         SYMBOL        SFRPAGE_save
  X:0AD7H         SYMBOL        On_Time
  -------         ENDDO         
  C:6EB6H         LINE#         323
  C:6EB6H         LINE#         324
  C:6EB6H         LINE#         325
  C:6EBCH         LINE#         326
BL51 BANKED LINKER/LOCATER V6.22                                                      11/17/2023  15:14:24  PAGE 35


  C:6EBFH         LINE#         327
  C:6EC1H         LINE#         329
  C:6EC6H         LINE#         330
  C:6EC9H         LINE#         331
  C:6ECBH         LINE#         333
  C:6ED3H         LINE#         334
  C:6EDAH         LINE#         335
  C:6EDAH         LINE#         336
  C:6EE4H         LINE#         337
  C:6EE7H         LINE#         338
  C:6EE7H         LINE#         339
  C:6EECH         LINE#         340
  C:6EF2H         LINE#         341
  C:6EF2H         LINE#         342
  C:6EF4H         LINE#         343
  C:6EF9H         LINE#         344
  C:6EFFH         LINE#         345
  -------         ENDPROC       SMB_WRITE
  -------         PROC          SMB_READ
  -------         DO            
  X:0AD8H         SYMBOL        On_Time
  X:0AD9H         SYMBOL        SFRPAGE_save
  -------         ENDDO         
  C:6E20H         LINE#         363
  C:6E20H         LINE#         364
  C:6E20H         LINE#         365
  C:6E25H         LINE#         366
  C:6E29H         LINE#         367
  C:6E2CH         LINE#         369
  C:6E31H         LINE#         370
  C:6E33H         LINE#         372
  C:6E35H         LINE#         374
  C:6E3EH         LINE#         375
  C:6E45H         LINE#         376
  C:6E45H         LINE#         377
  C:6E4FH         LINE#         378
  C:6E52H         LINE#         379
  C:6E52H         LINE#         380
  C:6E57H         LINE#         381
  C:6E5DH         LINE#         382
  C:6E5DH         LINE#         383
  C:6E5FH         LINE#         384
  C:6E64H         LINE#         386
  C:6E6AH         LINE#         387
  -------         ENDPROC       SMB_READ
  -------         ENDMOD        DRV_I2C

  -------         MODULE        MGR_COMM
  C:0000H         SYMBOL        _ICE_DUMMY_
 C1:E237H         PUBLIC        Init_CommTask
 C1:D4ECH         PUBLIC        Operate_CommTask
 C1:E6FCH         PUBLIC        _Comm_I2C_Tx
 C1:E1D3H         PUBLIC        _Comm_I2C_Rx
 C1:F5D5H         PUBLIC        Clear_I2C_Tx_Data
 C1:F5EFH         PUBLIC        Clear_CAN_Tx_Data
 C1:D7AFH         PUBLIC        Clear_Can_Data
 C1:F71FH         PUBLIC        Clear_Sas_Data
BL51 BANKED LINKER/LOCATER V6.22                                                      11/17/2023  15:14:24  PAGE 36


 C1:B8BDH         PUBLIC        Comm_RearView_Data
 C1:F177H         PUBLIC        _Comm_Tuning_Value_Type
 C1:F5BAH         PUBLIC        _Comm_Sas_Data
 C1:F623H         PUBLIC        _Comm_Hutype_Data
 C1:F777H         PUBLIC        _Comm_Language_Data
 C1:F93CH         PUBLIC        _Comm_G_Sel_Disp_Data
 C1:F94BH         PUBLIC        _Comm_IGN_Sw_Data
 C1:F95AH         PUBLIC        _Comm_RVM_CameraOff_Data
 C1:F969H         PUBLIC        _Comm_RVM_SW_Data
 C1:FD65H         PUBLIC        _Comm_Tx_RVM_View
 C1:FD69H         PUBLIC        _Comm_Tx_RVM_SW_IND
 C1:A006H         PUBLIC        Flash_OneSpec_Write
 C1:C917H         PUBLIC        Flash_OneSpec_Read
 C1:EF40H         PUBLIC        Comm_Error_Check
  X:057EH         PUBLIC        tCAN_Rx_SAS_Msg
  D:00A8H         PUBLIC        VSTDLIB_IE
  X:0586H         PUBLIC        tCAN_Rx_Msg
  X:05DEH         SYMBOL        tI2C_Tx_Msg
  C:7347H         SYMBOL        _?ix1000
  C:7353H         SYMBOL        _?ix1001

  -------         PROC BANK=1   INIT_COMMTASK
  -------         DO            
  X:0B2DH         SYMBOL        i
  -------         ENDDO         
 C1:E237H         LINE#         25
 C1:E237H         LINE#         26
 C1:E237H         LINE#         27
 C1:E23CH         LINE#         28
 C1:E23FH         LINE#         29
 C1:E242H         LINE#         30
 C1:E24BH         LINE#         32
 C1:E24EH         LINE#         33
 C1:E251H         LINE#         34
 C1:E254H         LINE#         36
 C1:E263H         LINE#         37
 C1:E263H         LINE#         38
 C1:E275H         LINE#         39
 C1:E275H         LINE#         40
 C1:E289H         LINE#         41
 C1:E289H         LINE#         42
 C1:E291H         LINE#         44
 C1:E294H         LINE#         45
 C1:E297H         LINE#         46
  -------         ENDPROC       INIT_COMMTASK

  -------         PROC BANK=1   OPERATE_COMMTASK
  -------         DO            
  X:0B2EH         SYMBOL        On_Time
  -------         ENDDO         
 C1:D4ECH         LINE#         48
 C1:D4ECH         LINE#         49
 C1:D4ECH         LINE#         50
 C1:D4F1H         LINE#         52
 C1:D4FAH         LINE#         54
 C1:D504H         LINE#         55
 C1:D508H         LINE#         56
BL51 BANKED LINKER/LOCATER V6.22                                                      11/17/2023  15:14:24  PAGE 37


 C1:D508H         LINE#         57
 C1:D511H         LINE#         58
 C1:D51CH         LINE#         59
 C1:D527H         LINE#         60
 C1:D530H         LINE#         61
 C1:D539H         LINE#         62
 C1:D542H         LINE#         63
 C1:D54BH         LINE#         64
 C1:D554H         LINE#         66
 C1:D563H         LINE#         67
 C1:D563H         LINE#         68
 C1:D568H         LINE#         69
 C1:D56CH         LINE#         72
 C1:D579H         LINE#         73
 C1:D579H         LINE#         74
 C1:D579H         LINE#         75
 C1:D57CH         LINE#         76
  -------         ENDPROC       OPERATE_COMMTASK

  -------         PROC BANK=1   COMM_REARVIEW_DATA
 C1:B8BDH         LINE#         78
 C1:B8BDH         LINE#         79
 C1:B8BDH         LINE#         80
 C1:B8C6H         LINE#         81
 C1:B8CFH         LINE#         82
 C1:B8D8H         LINE#         83
 C1:B8E1H         LINE#         85
 C1:B8F9H         LINE#         86
 C1:B8F9H         LINE#         87
 C1:B900H         LINE#         88
 C1:B900H         LINE#         89
 C1:B906H         LINE#         90
 C1:B90EH         LINE#         91
 C1:B90EH         LINE#         92
 C1:B913H         LINE#         93
 C1:B917H         LINE#         94
 C1:B919H         LINE#         96
 C1:B919H         LINE#         97
 C1:B91FH         LINE#         98
 C1:B91FH         LINE#         99
 C1:B921H         LINE#         100
 C1:B927H         LINE#         101
 C1:B927H         LINE#         102
 C1:B92BH         LINE#         103
 C1:B930H         LINE#         104
 C1:B932H         LINE#         105
 C1:B93AH         LINE#         106
 C1:B93AH         LINE#         108
 C1:B93AH         LINE#         110
 C1:B93AH         LINE#         111
 C1:B940H         LINE#         112
 C1:B945H         LINE#         113
 C1:B945H         LINE#         114
 C1:B947H         LINE#         116
 C1:B947H         LINE#         117
 C1:B94EH         LINE#         118
 C1:B94EH         LINE#         119
BL51 BANKED LINKER/LOCATER V6.22                                                      11/17/2023  15:14:24  PAGE 38


 C1:B954H         LINE#         120
 C1:B959H         LINE#         121
 C1:B95DH         LINE#         122
 C1:B95FH         LINE#         123
 C1:B967H         LINE#         124
 C1:B967H         LINE#         126
 C1:B967H         LINE#         128
 C1:B967H         LINE#         129
 C1:B96CH         LINE#         130
 C1:B970H         LINE#         131
 C1:B974H         LINE#         132
 C1:B974H         LINE#         133
 C1:B974H         LINE#         135
 C1:B97FH         LINE#         136
 C1:B97FH         LINE#         137
 C1:B986H         LINE#         138
 C1:B986H         LINE#         139
 C1:B988H         LINE#         140
 C1:B98AH         LINE#         142
 C1:B98AH         LINE#         143
 C1:B990H         LINE#         144
 C1:B990H         LINE#         145
 C1:B990H         LINE#         147
 C1:B9A8H         LINE#         149
 C1:B9A8H         LINE#         151
 C1:B9AEH         LINE#         152
 C1:B9AEH         LINE#         154
 C1:B9B6H         LINE#         155
 C1:B9BEH         LINE#         158
 C1:B9C5H         LINE#         159
 C1:B9C5H         LINE#         160
 C1:B9CBH         LINE#         161
 C1:B9CBH         LINE#         162
 C1:B9CDH         LINE#         163
 C1:B9CDH         LINE#         164
 C1:B9CEH         LINE#         166
 C1:B9CEH         LINE#         167
 C1:B9D3H         LINE#         168
 C1:B9D3H         LINE#         169
  -------         ENDPROC       COMM_REARVIEW_DATA

  -------         PROC BANK=1   _COMM_TUNING_VALUE_TYPE
  D:0007H         SYMBOL        Type4WdErr
  D:0005H         SYMBOL        TypeEngVol
 C1:F177H         LINE#         171
 C1:F177H         LINE#         172
 C1:F177H         LINE#         173
 C1:F17BH         LINE#         174
 C1:F17BH         LINE#         175
 C1:F17FH         LINE#         176
 C1:F17FH         LINE#         177
 C1:F185H         LINE#         178
 C1:F186H         LINE#         180
 C1:F186H         LINE#         181
 C1:F18CH         LINE#         182
 C1:F18CH         LINE#         183
 C1:F18DH         LINE#         185
BL51 BANKED LINKER/LOCATER V6.22                                                      11/17/2023  15:14:24  PAGE 39


 C1:F18DH         LINE#         186
 C1:F191H         LINE#         187
 C1:F191H         LINE#         188
 C1:F197H         LINE#         189
 C1:F198H         LINE#         191
 C1:F198H         LINE#         192
 C1:F19DH         LINE#         193
 C1:F19DH         LINE#         194
 C1:F19DH         LINE#         195
  -------         ENDPROC       _COMM_TUNING_VALUE_TYPE

  -------         PROC BANK=1   _COMM_SAS_DATA
  D:0001H         SYMBOL        pa_Data
  -------         DO            
  D:0007H         SYMBOL        ret
  -------         ENDDO         
 C1:F5BAH         LINE#         197
 C1:F5BAH         LINE#         198
 C1:F5BAH         LINE#         199
 C1:F5BCH         LINE#         201
 C1:F5C3H         LINE#         202
 C1:F5CDH         LINE#         203
 C1:F5D2H         LINE#         204
 C1:F5D4H         LINE#         205
 C1:F5D4H         LINE#         206
  -------         ENDPROC       _COMM_SAS_DATA

  -------         PROC BANK=1   _COMM_LANGUAGE_DATA
  D:0001H         SYMBOL        pa_Data
  -------         DO            
  D:0007H         SYMBOL        ret
  -------         ENDDO         
 C1:F777H         LINE#         208
 C1:F777H         LINE#         209
 C1:F777H         LINE#         212
 C1:F77CH         LINE#         213
 C1:F77FH         LINE#         214
 C1:F77FH         LINE#         215
 C1:F786H         LINE#         216
 C1:F786H         LINE#         217
 C1:F78BH         LINE#         218
 C1:F78BH         LINE#         219
  -------         ENDPROC       _COMM_LANGUAGE_DATA

  -------         PROC BANK=1   _COMM_HUTYPE_DATA
  D:0001H         SYMBOL        pa_Data
  -------         DO            
  D:0007H         SYMBOL        ret
  -------         ENDDO         
 C1:F623H         LINE#         221
 C1:F623H         LINE#         222
 C1:F623H         LINE#         223
 C1:F625H         LINE#         225
 C1:F62AH         LINE#         226
 C1:F62DH         LINE#         227
 C1:F62DH         LINE#         228
 C1:F634H         LINE#         229
BL51 BANKED LINKER/LOCATER V6.22                                                      11/17/2023  15:14:24  PAGE 40


 C1:F634H         LINE#         230
 C1:F639H         LINE#         231
 C1:F639H         LINE#         232
  -------         ENDPROC       _COMM_HUTYPE_DATA

  -------         PROC BANK=1   _COMM_G_SEL_DISP_DATA
  D:0001H         SYMBOL        Data
  -------         DO            
  D:0007H         SYMBOL        ret
  -------         ENDDO         
 C1:F93CH         LINE#         234
 C1:F93CH         LINE#         235
 C1:F93CH         LINE#         238
 C1:F943H         LINE#         240
 C1:F948H         LINE#         241
 C1:F94AH         LINE#         243
 C1:F94AH         LINE#         244
  -------         ENDPROC       _COMM_G_SEL_DISP_DATA

  -------         PROC BANK=1   _COMM_IGN_SW_DATA
  D:0001H         SYMBOL        Data
  -------         DO            
  D:0007H         SYMBOL        ret
  -------         ENDDO         
 C1:F94BH         LINE#         246
 C1:F94BH         LINE#         247
 C1:F94BH         LINE#         250
 C1:F952H         LINE#         252
 C1:F957H         LINE#         253
 C1:F959H         LINE#         255
 C1:F959H         LINE#         256
  -------         ENDPROC       _COMM_IGN_SW_DATA

  -------         PROC BANK=1   _COMM_RVM_CAMERAOFF_DATA
  D:0001H         SYMBOL        Data
  -------         DO            
  D:0007H         SYMBOL        ret
  -------         ENDDO         
 C1:F95AH         LINE#         258
 C1:F95AH         LINE#         259
 C1:F95AH         LINE#         262
 C1:F961H         LINE#         264
 C1:F966H         LINE#         265
 C1:F968H         LINE#         267
 C1:F968H         LINE#         268
  -------         ENDPROC       _COMM_RVM_CAMERAOFF_DATA

  -------         PROC BANK=1   _COMM_RVM_SW_DATA
  D:0001H         SYMBOL        Data
  -------         DO            
  D:0007H         SYMBOL        ret
  -------         ENDDO         
 C1:F969H         LINE#         270
 C1:F969H         LINE#         271
 C1:F969H         LINE#         274
 C1:F970H         LINE#         276
 C1:F975H         LINE#         277
BL51 BANKED LINKER/LOCATER V6.22                                                      11/17/2023  15:14:24  PAGE 41


 C1:F977H         LINE#         279
 C1:F977H         LINE#         280
  -------         ENDPROC       _COMM_RVM_SW_DATA

  -------         PROC BANK=1   _COMM_TX_RVM_VIEW
  D:0007H         SYMBOL        sigData
 C1:FD65H         LINE#         282
 C1:FD65H         LINE#         283
 C1:FD65H         LINE#         284
 C1:FD68H         LINE#         285
  -------         ENDPROC       _COMM_TX_RVM_VIEW

  -------         PROC BANK=1   _COMM_TX_RVM_SW_IND
  D:0007H         SYMBOL        sigData
 C1:FD69H         LINE#         287
 C1:FD69H         LINE#         288
 C1:FD69H         LINE#         289
 C1:FD6CH         LINE#         290
  -------         ENDPROC       _COMM_TX_RVM_SW_IND

  -------         PROC BANK=1   COMM_ERROR_CHECK
  -------         DO            
  X:0ADAH         SYMBOL        Ret_State
  X:0ADBH         SYMBOL        On_Time
  -------         ENDDO         
 C1:EF40H         LINE#         306
 C1:EF40H         LINE#         307
 C1:EF40H         LINE#         309
 C1:EF45H         LINE#         310
 C1:EF47H         LINE#         312
 C1:EF51H         LINE#         313
 C1:EF54H         LINE#         314
 C1:EF54H         LINE#         315
 C1:EF5DH         LINE#         316
 C1:EF5DH         LINE#         317
 C1:EF5FH         LINE#         318
 C1:EF64H         LINE#         319
 C1:EF65H         LINE#         321
 C1:EF65H         LINE#         322
 C1:EF6AH         LINE#         323
 C1:EF6FH         LINE#         324
 C1:EF6FH         LINE#         325
 C1:EF6FH         LINE#         327
  -------         ENDPROC       COMM_ERROR_CHECK

  -------         PROC BANK=1   _COMM_I2C_TX
  D:0007H         SYMBOL        Slave_Addr
  D:0005H         SYMBOL        Length
  D:0002H         SYMBOL        Addr
  X:0969H         SYMBOL        TData
  X:096BH         SYMBOL        RData
 C1:E6FCH         LINE#         329
 C1:E6FCH         LINE#         330
 C1:E6FCH         LINE#         331
 C1:E701H         LINE#         332
 C1:E704H         LINE#         333
 C1:E70FH         LINE#         334
BL51 BANKED LINKER/LOCATER V6.22                                                      11/17/2023  15:14:24  PAGE 42


 C1:E71EH         LINE#         335
 C1:E72DH         LINE#         336
 C1:E733H         LINE#         338
 C1:E751H         LINE#         340
  -------         ENDPROC       _COMM_I2C_TX

  -------         PROC BANK=1   _COMM_I2C_RX
  D:0007H         SYMBOL        Slave_Addr
  D:0005H         SYMBOL        Length
  D:0002H         SYMBOL        Addr
  X:0929H         SYMBOL        TData
  X:092BH         SYMBOL        RData
  -------         DO            
  X:092DH         SYMBOL        ret
  -------         ENDDO         
 C1:E1D3H         LINE#         342
 C1:E1D3H         LINE#         343
 C1:E1D3H         LINE#         344
 C1:E1DAH         LINE#         346
 C1:E1DFH         LINE#         347
 C1:E1E2H         LINE#         348
 C1:E1EDH         LINE#         349
 C1:E1FCH         LINE#         350
 C1:E20BH         LINE#         351
 C1:E211H         LINE#         353
 C1:E22EH         LINE#         355
 C1:E236H         LINE#         357
 C1:E236H         LINE#         358
  -------         ENDPROC       _COMM_I2C_RX

  -------         PROC BANK=1   CLEAR_I2C_TX_DATA
 C1:F5D5H         LINE#         360
 C1:F5D5H         LINE#         361
 C1:F5D5H         LINE#         362
 C1:F5DAH         LINE#         363
 C1:F5DCH         LINE#         364
 C1:F5E2H         LINE#         365
 C1:F5E6H         LINE#         366
 C1:F5EAH         LINE#         367
 C1:F5EEH         LINE#         368
  -------         ENDPROC       CLEAR_I2C_TX_DATA

  -------         PROC BANK=1   CLEAR_CAN_TX_DATA
 C1:F5EFH         LINE#         370
 C1:F5EFH         LINE#         371
 C1:F5EFH         LINE#         372
 C1:F5F4H         LINE#         373
 C1:F5F6H         LINE#         374
 C1:F5FCH         LINE#         375
 C1:F600H         LINE#         376
 C1:F604H         LINE#         377
 C1:F608H         LINE#         378
  -------         ENDPROC       CLEAR_CAN_TX_DATA

  -------         PROC BANK=1   CLEAR_CAN_DATA
  -------         DO            
  D:0007H         SYMBOL        i
BL51 BANKED LINKER/LOCATER V6.22                                                      11/17/2023  15:14:24  PAGE 43


  -------         ENDDO         
 C1:D7AFH         LINE#         380
 C1:D7AFH         LINE#         381
 C1:D7AFH         LINE#         383
 C1:D7B7H         LINE#         384
 C1:D7B7H         LINE#         385
 C1:D7C7H         LINE#         386
 C1:D7D7H         LINE#         387
 C1:D7E9H         LINE#         388
 C1:D7FAH         LINE#         389
 C1:D80BH         LINE#         390
 C1:D81CH         LINE#         391
 C1:D81FH         LINE#         393
 C1:D825H         LINE#         394
 C1:D82AH         LINE#         395
 C1:D830H         LINE#         396
 C1:D835H         LINE#         397
  -------         ENDPROC       CLEAR_CAN_DATA

  -------         PROC BANK=1   CLEAR_SAS_DATA
 C1:F71FH         LINE#         400
 C1:F71FH         LINE#         401
 C1:F71FH         LINE#         402
 C1:F724H         LINE#         403
 C1:F726H         LINE#         404
 C1:F728H         LINE#         405
 C1:F72AH         LINE#         406
 C1:F72CH         LINE#         407
 C1:F730H         LINE#         408
 C1:F734H         LINE#         409
  -------         ENDPROC       CLEAR_SAS_DATA

  -------         PROC BANK=1   FLASH_ONESPEC_WRITE
  -------         DO            
  X:07C1H         SYMBOL        ret
  X:07C2H         SYMBOL        Cs
  X:07C3H         SYMBOL        Write_Buf
  X:07CFH         SYMBOL        Read_Buf
  X:07DBH         SYMBOL        Write_Address
  X:07DDH         SYMBOL        Read_Address
  X:07DFH         SYMBOL        temp_Address1
  X:07E1H         SYMBOL        temp_Address2
  X:07E3H         SYMBOL        i
  X:07E4H         SYMBOL        On_Time
  -------         ENDDO         
 C1:A006H         LINE#         411
 C1:A006H         LINE#         412
 C1:A006H         LINE#         413
 C1:A00BH         LINE#         414
 C1:A021H         LINE#         415
 C1:A038H         LINE#         416
 C1:A03FH         LINE#         417
 C1:A045H         LINE#         418
 C1:A04BH         LINE#         419
 C1:A051H         LINE#         420
 C1:A055H         LINE#         421
 C1:A057H         LINE#         423
BL51 BANKED LINKER/LOCATER V6.22                                                      11/17/2023  15:14:24  PAGE 44


 C1:A064H         LINE#         424
 C1:A073H         LINE#         426
 C1:A082H         LINE#         427
 C1:A082H         LINE#         428
 C1:A09FH         LINE#         429
 C1:A0B6H         LINE#         430
 C1:A0BEH         LINE#         431
 C1:A0C6H         LINE#         432
 C1:A0DFH         LINE#         434
 C1:A0E8H         LINE#         435
 C1:A0EFH         LINE#         436
 C1:A0EFH         LINE#         437
 C1:A0F1H         LINE#         438
 C1:A0F1H         LINE#         439
 C1:A107H         LINE#         440
 C1:A11BH         LINE#         441
 C1:A12FH         LINE#         442
 C1:A13EH         LINE#         444
 C1:A145H         LINE#         446
 C1:A145H         LINE#         447
 C1:A145H         LINE#         448
 C1:A163H         LINE#         449
 C1:A181H         LINE#         451
 C1:A19DH         LINE#         452
 C1:A1A0H         LINE#         453
 C1:A1A0H         LINE#         454
 C1:A1A9H         LINE#         456
 C1:A1BDH         LINE#         457
 C1:A1C9H         LINE#         458
 C1:A1D8H         LINE#         459
 C1:A1D8H         LINE#         460
 C1:A1DFH         LINE#         461
 C1:A1E9H         LINE#         462
 C1:A1E9H         LINE#         463
 C1:A1E9H         LINE#         465
 C1:A1E9H         LINE#         466
 C1:A1E9H         LINE#         467
 C1:A1E9H         LINE#         469
 C1:A1F3H         LINE#         470
 C1:A1FAH         LINE#         471
 C1:A1FAH         LINE#         472
 C1:A1FCH         LINE#         473
 C1:A1FCH         LINE#         474
 C1:A1FFH         LINE#         475
 C1:A204H         LINE#         476
  -------         ENDPROC       FLASH_ONESPEC_WRITE

  -------         PROC BANK=1   FLASH_ONESPEC_READ
  -------         DO            
  X:08A0H         SYMBOL        i
  X:08A1H         SYMBOL        Cs
  X:08A2H         SYMBOL        Read_Buf
  X:08AEH         SYMBOL        Read_Address
  -------         ENDDO         
 C1:C917H         LINE#         512
 C1:C917H         LINE#         513
 C1:C917H         LINE#         514
BL51 BANKED LINKER/LOCATER V6.22                                                      11/17/2023  15:14:24  PAGE 45


 C1:C91CH         LINE#         516
 C1:C922H         LINE#         518
 C1:C92FH         LINE#         520
 C1:C948H         LINE#         521
 C1:C94FH         LINE#         522
 C1:C94FH         LINE#         523
 C1:C951H         LINE#         524
 C1:C951H         LINE#         525
 C1:C96DH         LINE#         527
 C1:C98BH         LINE#         528
 C1:C999H         LINE#         529
 C1:C999H         LINE#         530
 C1:C9B1H         LINE#         531
 C1:C9B9H         LINE#         532
 C1:C9C5H         LINE#         533
 C1:C9C5H         LINE#         534
 C1:C9CBH         LINE#         535
 C1:C9D3H         LINE#         536
 C1:C9DBH         LINE#         537
 C1:C9E3H         LINE#         538
 C1:C9EBH         LINE#         541
 C1:C9EBH         LINE#         542
  -------         ENDPROC       FLASH_ONESPEC_READ
  -------         ENDMOD        MGR_COMM

  -------         MODULE        DRV_CAN
  C:0000H         SYMBOL        _ICE_DUMMY_
  D:00E7H         PUBLIC        EIE2
  B:00A8H.7       PUBLIC        EA
  D:00A8H         PUBLIC        VSTDLIB_IE
 C1:F978H         PUBLIC        _ISR_HuType
 C1:FBC9H         PUBLIC        _ISR_NaviOnOff
 C1:FBD2H         PUBLIC        _ISR_CountryCfg
 C1:F987H         PUBLIC        _ISR_LanguageInfo
 C1:FBDBH         PUBLIC        _ISR_MdpsType
 C1:F812H         PUBLIC        _ISR_SAS
 C1:FDA7H         PUBLIC        _ApplTpFatalError
 C1:FA7FH         PUBLIC        ApplNmBasicBusOffStart
 C1:FC7DH         PUBLIC        ApplNmBasicBusOffEnd
 C1:F547H         PUBLIC        ApplNmBasicFirstBusOffSlow
 C1:FDAEH         PUBLIC        ApplNmBasicBusOffRestart
 C1:FC76H         PUBLIC        ApplNmBasicEnabledCom
 C1:FDADH         PUBLIC        ApplNmBasicSwitchTransceiverOn
 C1:FC84H         PUBLIC        ApplNmBasicDisabledCom
 C1:FDA4H         PUBLIC        ApplNmBasicSwitchTransceiverOff
 C1:F19EH         PUBLIC        VCan_Init
 C1:F7B3H         PUBLIC        VCan_Start
 C1:F286H         PUBLIC        VCan_Task
 C1:DCADH         PUBLIC        _CAN_Rx_Data_Process
 C1:94F2H         PUBLIC        _CAN_Rx_Sas_Process
 C1:DA42H         PUBLIC        _CAN_Rx_Data_G_SEL_DISP_Process
 C1:D1D2H         PUBLIC        _CAN_Rx_Data_IGN_SW_Process
 C1:E7A5H         PUBLIC        _CAN_Rx_Data_RVM_CameraOff_Process
 C1:D277H         PUBLIC        _CAN_Rx_Data_FCZC_RVM_SW_Process
 C1:B67AH         PUBLIC        _CAN_Rx_Data_Eng_Vol_Process
 C1:CB82H         PUBLIC        _CAN_Rx_Data_4WD_ERR_Process
 C1:F824H         PUBLIC        _ISR_IGNSw
BL51 BANKED LINKER/LOCATER V6.22                                                      11/17/2023  15:14:24  PAGE 46


 C1:F836H         PUBLIC        _ISR_FczcRvmSw
 C1:F848H         PUBLIC        _ISR_GSelpDisp
 C1:F85AH         PUBLIC        _ISR_EngVol
 C1:F86CH         PUBLIC        _ISR_WD4Err
 C1:FC8BH         PUBLIC        ApplSAS1MsgTimeout
 C1:FDAFH         PUBLIC        ApplHU_MON_PE_01MsgTimeout
 C1:FDB0H         PUBLIC        ApplCGW4MsgTimeout
 C1:FDB1H         PUBLIC        ApplCGW2MsgTimeout
 C1:FDB2H         PUBLIC        ApplCLU15MsgTimeout
 C1:FDB3H         PUBLIC        ApplMDPS11MsgTimeout
 C1:FDB4H         PUBLIC        ApplHU_RVM_E_00TMsgTimeout
 C1:FC92H         PUBLIC        ApplCGW1MsgTimeout
 C1:FCA0H         PUBLIC        ApplCGW_PC5MsgTimeout
 C1:FCA7H         PUBLIC        ApplWD411MsgTimeout
 C1:FCAEH         PUBLIC        ApplEMS12MsgTimeout
 C1:FDA1H         PUBLIC        _ApplIlFatalError
  X:079AH         SYMBOL        g_HuType_Interrupt
  X:079BH         SYMBOL        g_LanguageInfo_Interrupt
  X:079CH         SYMBOL        g_SAS_Interrupt
  X:079DH         SYMBOL        g_SAS_Timeout
  X:079EH         SYMBOL        g_Sel_Disp_Interrupt
  X:079FH         SYMBOL        g_Sel_Disp_Timeout
  X:07A0H         SYMBOL        g_IGN_SW_Interrupt
  X:07A1H         SYMBOL        g_IGN_SW_Timeout
  X:07A2H         SYMBOL        g_RVM_CameraOff_Interrupt
  X:07A3H         SYMBOL        g_FCZC_RVM_SW_Interrupt
  X:07A4H         SYMBOL        g_FCZC_RVM_SW_Timeout
  X:07A5H         SYMBOL        g_Eng_Vol_Interrupt
  X:07A6H         SYMBOL        g_Eng_Vol_Timeout
  X:07A7H         SYMBOL        g_4WD_Err_Interrupt
  X:07A8H         SYMBOL        g_4WD_Err_Timeout
 C1:DE07H         SYMBOL        _Is_Change
 C1:BDE2H         SYMBOL        _Is_Chattering
  X:07A9H         PUBLIC        gTuning_Value
 C1:F996H         PUBLIC        _ISR_RVMCameraOff
 C1:FC99H         PUBLIC        ApplCGW6MsgTimeout

  -------         PROC BANK=1   VCAN_INIT
 C1:F19EH         LINE#         47
 C1:F19EH         LINE#         48
 C1:F19EH         LINE#         49
 C1:F1A1H         LINE#         50
 C1:F1A3H         LINE#         51
 C1:F1A5H         LINE#         53
 C1:F1A8H         LINE#         54
 C1:F1ABH         LINE#         55
 C1:F1AEH         LINE#         56
 C1:F1B1H         LINE#         57
 C1:F1B4H         LINE#         58
 C1:F1B7H         LINE#         59
 C1:F1BAH         LINE#         60
 C1:F1BDH         LINE#         61
 C1:F1C2H         LINE#         63
 C1:F1C4H         LINE#         64
  -------         ENDPROC       VCAN_INIT

  -------         PROC BANK=1   VCAN_START
BL51 BANKED LINKER/LOCATER V6.22                                                      11/17/2023  15:14:24  PAGE 47


 C1:F7B3H         LINE#         66
 C1:F7B3H         LINE#         67
 C1:F7B3H         LINE#         68
 C1:F7B6H         LINE#         69
 C1:F7B9H         LINE#         70
 C1:F7BCH         LINE#         71
 C1:F7BFH         LINE#         72
 C1:F7C2H         LINE#         73
 C1:F7C5H         LINE#         74
  -------         ENDPROC       VCAN_START

  -------         PROC BANK=1   VCAN_TASK
 C1:F286H         LINE#         76
 C1:F286H         LINE#         77
 C1:F286H         LINE#         78
 C1:F289H         LINE#         79
 C1:F28CH         LINE#         80
 C1:F28FH         LINE#         81
 C1:F292H         LINE#         82
 C1:F295H         LINE#         83
 C1:F298H         LINE#         84
 C1:F29BH         LINE#         85
 C1:F29EH         LINE#         86
 C1:F2A1H         LINE#         87
 C1:F2A4H         LINE#         88
 C1:F2A7H         LINE#         89
 C1:F2AAH         LINE#         90
  -------         ENDPROC       VCAN_TASK

  -------         PROC BANK=1   _IS_CHATTERING
  X:0A57H         SYMBOL        Rx_Datan
  -------         DO            
  D:0007H         SYMBOL        On_Time
  -------         ENDDO         
 C1:BDE2H         LINE#         92
 C1:BDEDH         LINE#         93
 C1:BDEDH         LINE#         95
 C1:BE00H         LINE#         96
 C1:BE00H         LINE#         97
 C1:BE15H         LINE#         98
 C1:BE15H         LINE#         99
 C1:BE1DH         LINE#         100
 C1:BE32H         LINE#         101
 C1:BE3EH         LINE#         102
 C1:BE3FH         LINE#         104
 C1:BE3FH         LINE#         105
 C1:BE44H         LINE#         106
 C1:BE4CH         LINE#         107
 C1:BE4CH         LINE#         108
 C1:BE61H         LINE#         109
 C1:BE70H         LINE#         110
 C1:BE70H         LINE#         111
 C1:BE84H         LINE#         112
 C1:BE8BH         LINE#         113
 C1:BE97H         LINE#         114
 C1:BE9CH         LINE#         115
 C1:BEAEH         LINE#         116
BL51 BANKED LINKER/LOCATER V6.22                                                      11/17/2023  15:14:24  PAGE 48


 C1:BEB3H         LINE#         117
 C1:BEB3H         LINE#         118
 C1:BEB3H         LINE#         119
 C1:BEB3H         LINE#         120
 C1:BEB4H         LINE#         122
 C1:BEB4H         LINE#         123
 C1:BEC8H         LINE#         124
 C1:BECFH         LINE#         125
 C1:BED6H         LINE#         126
 C1:BEDBH         LINE#         127
 C1:BEDBH         LINE#         128
  -------         ENDPROC       _IS_CHATTERING

  -------         PROC BANK=1   _IS_CHANGE
  D:0001H         SYMBOL        Rx_Datan
 C1:DE07H         LINE#         130
 C1:DE07H         LINE#         131
 C1:DE07H         LINE#         132
 C1:DE18H         LINE#         133
 C1:DE18H         LINE#         134
 C1:DE20H         LINE#         135
 C1:DE20H         LINE#         136
 C1:DE27H         LINE#         137
 C1:DE2FH         LINE#         138
 C1:DE31H         LINE#         140
 C1:DE31H         LINE#         141
 C1:DE3AH         LINE#         142
 C1:DE3AH         LINE#         143
 C1:DE41H         LINE#         144
 C1:DE43H         LINE#         146
 C1:DE43H         LINE#         147
 C1:DE4AH         LINE#         148
 C1:DE4AH         LINE#         149
 C1:DE4AH         LINE#         151
 C1:DE55H         LINE#         152
 C1:DE55H         LINE#         153
 C1:DE61H         LINE#         154
 C1:DE66H         LINE#         155
 C1:DE6FH         LINE#         156
 C1:DE77H         LINE#         157
 C1:DE77H         LINE#         158
 C1:DE77H         LINE#         159
  -------         ENDPROC       _IS_CHANGE
  -------         PROC          _CAN_RX_DATA_G_SEL_DISP_PROCESS
  X:0A5AH         SYMBOL        Rx_Data
 C1:DA42H         LINE#         161
 C1:DA4DH         LINE#         162
 C1:DA4DH         LINE#         163
 C1:DA54H         LINE#         164
 C1:DA54H         LINE#         165
 C1:DA68H         LINE#         166
 C1:DA6FH         LINE#         167
 C1:DA76H         LINE#         168
 C1:DA7BH         LINE#         169
 C1:DA8DH         LINE#         170
 C1:DA8EH         LINE#         172
 C1:DA8EH         LINE#         173
BL51 BANKED LINKER/LOCATER V6.22                                                      11/17/2023  15:14:24  PAGE 49


 C1:DAA0H         LINE#         174
 C1:DAA7H         LINE#         175
 C1:DAA7H         LINE#         176
 C1:DAA9H         LINE#         177
 C1:DABEH         LINE#         178
 C1:DAC1H         LINE#         179
 C1:DAC1H         LINE#         180
 C1:DAC1H         LINE#         181
  -------         ENDPROC       _CAN_RX_DATA_G_SEL_DISP_PROCESS

  -------         PROC BANK=1   _CAN_RX_DATA_IGN_SW_PROCESS
  X:0A5DH         SYMBOL        Rx_Data
 C1:D1D2H         LINE#         183
 C1:D1DDH         LINE#         184
 C1:D1DDH         LINE#         185
 C1:D1E4H         LINE#         186
 C1:D1E4H         LINE#         187
 C1:D1F8H         LINE#         188
 C1:D1FFH         LINE#         189
 C1:D206H         LINE#         190
 C1:D20BH         LINE#         191
 C1:D21DH         LINE#         192
 C1:D21EH         LINE#         194
 C1:D21EH         LINE#         195
 C1:D230H         LINE#         196
 C1:D238H         LINE#         197
 C1:D238H         LINE#         198
 C1:D239H         LINE#         199
 C1:D24EH         LINE#         200
 C1:D25FH         LINE#         201
 C1:D25FH         LINE#         202
 C1:D271H         LINE#         203
 C1:D276H         LINE#         204
 C1:D276H         LINE#         205
 C1:D276H         LINE#         206
 C1:D276H         LINE#         207
  -------         ENDPROC       _CAN_RX_DATA_IGN_SW_PROCESS
  -------         PROC          _CAN_RX_DATA_RVM_CAMERAOFF_PROCESS
  X:0A60H         SYMBOL        Rx_Data
 C1:E7A5H         LINE#         209
 C1:E7B0H         LINE#         210
 C1:E7B0H         LINE#         211
 C1:E7B8H         LINE#         212
 C1:E7B8H         LINE#         213
 C1:E7B9H         LINE#         214
 C1:E7CEH         LINE#         215
 C1:E7DFH         LINE#         216
 C1:E7DFH         LINE#         217
 C1:E7F1H         LINE#         218
 C1:E7F6H         LINE#         219
 C1:E7F6H         LINE#         220
 C1:E7F6H         LINE#         221
  -------         ENDPROC       _CAN_RX_DATA_RVM_CAMERAOFF_PROCESS
  -------         PROC          _CAN_RX_DATA_FCZC_RVM_SW_PROCESS
  X:0A63H         SYMBOL        Rx_Data
 C1:D277H         LINE#         223
 C1:D282H         LINE#         224
BL51 BANKED LINKER/LOCATER V6.22                                                      11/17/2023  15:14:24  PAGE 50


 C1:D282H         LINE#         225
 C1:D289H         LINE#         226
 C1:D289H         LINE#         227
 C1:D29DH         LINE#         228
 C1:D2A4H         LINE#         229
 C1:D2ABH         LINE#         230
 C1:D2B0H         LINE#         231
 C1:D2C2H         LINE#         232
 C1:D2C3H         LINE#         234
 C1:D2C3H         LINE#         235
 C1:D2D5H         LINE#         236
 C1:D2DDH         LINE#         237
 C1:D2DDH         LINE#         238
 C1:D2DEH         LINE#         239
 C1:D2F3H         LINE#         240
 C1:D304H         LINE#         241
 C1:D304H         LINE#         242
 C1:D316H         LINE#         243
 C1:D31BH         LINE#         244
 C1:D31BH         LINE#         245
 C1:D31BH         LINE#         246
 C1:D31BH         LINE#         247
  -------         ENDPROC       _CAN_RX_DATA_FCZC_RVM_SW_PROCESS

  -------         PROC BANK=1   _CAN_RX_DATA_4WD_ERR_PROCESS
  X:0A66H         SYMBOL        Rx_Data
 C1:CB82H         LINE#         249
 C1:CB8DH         LINE#         250
 C1:CB8DH         LINE#         251
 C1:CB95H         LINE#         252
 C1:CB95H         LINE#         253
 C1:CBA9H         LINE#         254
 C1:CBA9H         LINE#         255
 C1:CBAEH         LINE#         256
 C1:CBAEH         LINE#         257
 C1:CBC2H         LINE#         258
 C1:CBC9H         LINE#         259
 C1:CBD0H         LINE#         260
 C1:CBD7H         LINE#         261
 C1:CBD8H         LINE#         263
 C1:CBD8H         LINE#         264
 C1:CBE0H         LINE#         265
 C1:CBE0H         LINE#         266
 C1:CBE1H         LINE#         267
 C1:CBF6H         LINE#         269
 C1:CC01H         LINE#         270
 C1:CC01H         LINE#         271
 C1:CC14H         LINE#         272
 C1:CC19H         LINE#         273
 C1:CC2BH         LINE#         274
 C1:CC33H         LINE#         275
 C1:CC34H         LINE#         277
 C1:CC34H         LINE#         278
 C1:CC47H         LINE#         279
 C1:CC47H         LINE#         310
 C1:CC47H         LINE#         311
 C1:CC47H         LINE#         312
BL51 BANKED LINKER/LOCATER V6.22                                                      11/17/2023  15:14:24  PAGE 51


  -------         ENDPROC       _CAN_RX_DATA_4WD_ERR_PROCESS

  -------         PROC BANK=1   _CAN_RX_DATA_ENG_VOL_PROCESS
  X:0A69H         SYMBOL        Rx_Data
 C1:B67AH         LINE#         314
 C1:B685H         LINE#         315
 C1:B685H         LINE#         316
 C1:B68DH         LINE#         317
 C1:B68DH         LINE#         318
 C1:B6A1H         LINE#         319
 C1:B6A1H         LINE#         320
 C1:B6A6H         LINE#         321
 C1:B6A6H         LINE#         322
 C1:B6BAH         LINE#         323
 C1:B6C1H         LINE#         324
 C1:B6C8H         LINE#         325
 C1:B6CFH         LINE#         326
 C1:B6D0H         LINE#         328
 C1:B6D0H         LINE#         329
 C1:B6DBH         LINE#         330
 C1:B6DBH         LINE#         331
 C1:B6DCH         LINE#         332
 C1:B6F1H         LINE#         334
 C1:B705H         LINE#         335
 C1:B705H         LINE#         336
 C1:B718H         LINE#         337
 C1:B718H         LINE#         338
 C1:B71FH         LINE#         339
 C1:B727H         LINE#         340
 C1:B729H         LINE#         342
 C1:B729H         LINE#         343
 C1:B732H         LINE#         344
 C1:B732H         LINE#         345
 C1:B745H         LINE#         346
 C1:B747H         LINE#         348
 C1:B747H         LINE#         349
 C1:B759H         LINE#         350
 C1:B759H         LINE#         351
 C1:B759H         LINE#         353
 C1:B76FH         LINE#         354
 C1:B76FH         LINE#         355
 C1:B783H         LINE#         356
 C1:B788H         LINE#         357
 C1:B79AH         LINE#         358
 C1:B7A2H         LINE#         359
 C1:B7A2H         LINE#         360
 C1:B7A2H         LINE#         361
 C1:B7A2H         LINE#         362
 C1:B7A2H         LINE#         363
  -------         ENDPROC       _CAN_RX_DATA_ENG_VOL_PROCESS

  -------         PROC BANK=1   _CAN_RX_DATA_PROCESS
  D:0007H         SYMBOL        ID
  X:0A6CH         SYMBOL        Rx_Data
 C1:DCADH         LINE#         365
 C1:DCB8H         LINE#         366
 C1:DCB8H         LINE#         367
BL51 BANKED LINKER/LOCATER V6.22                                                      11/17/2023  15:14:24  PAGE 52


 C1:DCC0H         LINE#         368
 C1:DCC0H         LINE#         369
 C1:DCC0H         LINE#         370
 C1:DCC0H         LINE#         371
 C1:DCC0H         LINE#         372
 C1:DCC8H         LINE#         373
 C1:DCC8H         LINE#         374
 C1:DCC9H         LINE#         375
 C1:DCE5H         LINE#         376
 C1:DCEEH         LINE#         377
 C1:DCEEH         LINE#         378
 C1:DCFCH         LINE#         379
 C1:DCFCH         LINE#         380
 C1:DCFCH         LINE#         381
 C1:DCFDH         LINE#         382
 C1:DCFDH         LINE#         383
 C1:DD04H         LINE#         384
 C1:DD04H         LINE#         385
 C1:DD06H         LINE#         386
 C1:DD1DH         LINE#         387
 C1:DD20H         LINE#         388
 C1:DD20H         LINE#         389
 C1:DD20H         LINE#         390
 C1:DD20H         LINE#         391
 C1:DD20H         LINE#         392
 C1:DD20H         LINE#         393
 C1:DD20H         LINE#         395
 C1:DD20H         LINE#         396
 C1:DD20H         LINE#         397
 C1:DD20H         LINE#         398
  -------         ENDPROC       _CAN_RX_DATA_PROCESS

  -------         PROC BANK=1   _CAN_RX_SAS_PROCESS
  X:096DH         SYMBOL        Rx_Data
  -------         DO            
  X:0970H         SYMBOL        Cur_sign
  X:0971H         SYMBOL        iStAng_in
  X:0973H         SYMBOL        steering_cur
  X:0798H         SYMBOL        iStAng_CAN
  -------         ENDDO         
 C1:94F2H         LINE#         400
 C1:94FDH         LINE#         401
 C1:94FDH         LINE#         402
 C1:9500H         LINE#         403
 C1:9504H         LINE#         404
 C1:9508H         LINE#         407
 C1:9519H         LINE#         408
 C1:951DH         LINE#         409
 C1:951DH         LINE#         410
 C1:9533H         LINE#         411
 C1:9533H         LINE#         412
 C1:9543H         LINE#         413
 C1:9548H         LINE#         414
 C1:955AH         LINE#         415
 C1:9562H         LINE#         416
 C1:9562H         LINE#         417
 C1:9563H         LINE#         419
BL51 BANKED LINKER/LOCATER V6.22                                                      11/17/2023  15:14:24  PAGE 53


 C1:9563H         LINE#         420
 C1:9575H         LINE#         421
 C1:9580H         LINE#         422
 C1:9580H         LINE#         423
 C1:9581H         LINE#         424
 C1:958CH         LINE#         426
 C1:9594H         LINE#         427
 C1:959AH         LINE#         428
 C1:95A9H         LINE#         429
 C1:95ABH         LINE#         430
 C1:95B0H         LINE#         431
 C1:95C5H         LINE#         432
 C1:95C5H         LINE#         434
 C1:95D1H         LINE#         435
 C1:95D1H         LINE#         436
 C1:95D8H         LINE#         437
 C1:95D8H         LINE#         439
 C1:9607H         LINE#         440
 C1:9607H         LINE#         441
 C1:961CH         LINE#         442
 C1:9624H         LINE#         443
 C1:9624H         LINE#         444
 C1:965AH         LINE#         445
 C1:9682H         LINE#         446
 C1:9684H         LINE#         448
 C1:9684H         LINE#         449
 C1:96BAH         LINE#         450
 C1:96E2H         LINE#         451
 C1:96E2H         LINE#         453
 C1:96FEH         LINE#         454
 C1:9708H         LINE#         455
 C1:970BH         LINE#         457
 C1:970BH         LINE#         458
 C1:972EH         LINE#         459
 C1:9736H         LINE#         460
 C1:9736H         LINE#         461
 C1:9769H         LINE#         462
 C1:9791H         LINE#         463
 C1:9793H         LINE#         465
 C1:9793H         LINE#         466
 C1:97C9H         LINE#         467
 C1:97F1H         LINE#         468
 C1:97F1H         LINE#         469
 C1:97F1H         LINE#         471
 C1:97F8H         LINE#         472
 C1:97F8H         LINE#         473
 C1:9827H         LINE#         474
 C1:9827H         LINE#         475
 C1:982CH         LINE#         476
 C1:982CH         LINE#         477
 C1:982EH         LINE#         479
 C1:982EH         LINE#         480
 C1:985DH         LINE#         481
 C1:985DH         LINE#         482
 C1:9862H         LINE#         483
 C1:9862H         LINE#         485
 C1:9862H         LINE#         487
BL51 BANKED LINKER/LOCATER V6.22                                                      11/17/2023  15:14:24  PAGE 54


 C1:9890H         LINE#         488
 C1:9890H         LINE#         489
 C1:9897H         LINE#         490
 C1:98A1H         LINE#         491
 C1:98A6H         LINE#         492
 C1:98A6H         LINE#         493
 C1:98A6H         LINE#         494
 C1:98A6H         LINE#         495
  -------         ENDPROC       _CAN_RX_SAS_PROCESS
  -------         PROC          APPLNMBASICSWITCHTRANSCEIVERON
 C1:FDADH         LINE#         497
 C1:FDADH         LINE#         498
 C1:FDADH         LINE#         499
  -------         ENDPROC       APPLNMBASICSWITCHTRANSCEIVERON

  -------         PROC BANK=1   APPLNMBASICENABLEDCOM
 C1:FC76H         LINE#         500
 C1:FC76H         LINE#         501
 C1:FC76H         LINE#         503
 C1:FC79H         LINE#         504
 C1:FC7CH         LINE#         507
  -------         ENDPROC       APPLNMBASICENABLEDCOM

  -------         PROC BANK=1   APPLNMBASICBUSOFFEND
 C1:FC7DH         LINE#         508
 C1:FC7DH         LINE#         509
 C1:FC7DH         LINE#         512
 C1:FC80H         LINE#         513
 C1:FC83H         LINE#         516
  -------         ENDPROC       APPLNMBASICBUSOFFEND

  -------         PROC BANK=1   APPLNMBASICBUSOFFRESTART
 C1:FDAEH         LINE#         517
 C1:FDAEH         LINE#         518
 C1:FDAEH         LINE#         520
  -------         ENDPROC       APPLNMBASICBUSOFFRESTART

  -------         PROC BANK=1   APPLNMBASICBUSOFFSTART
 C1:FA7FH         LINE#         521
 C1:FA7FH         LINE#         522
 C1:FA7FH         LINE#         525
 C1:FA85H         LINE#         526
 C1:FA88H         LINE#         527
 C1:FA8BH         LINE#         530
  -------         ENDPROC       APPLNMBASICBUSOFFSTART

  -------         PROC BANK=1   APPLNMBASICDISABLEDCOM
 C1:FC84H         LINE#         531
 C1:FC84H         LINE#         532
 C1:FC84H         LINE#         534
 C1:FC87H         LINE#         535
 C1:FC8AH         LINE#         537
  -------         ENDPROC       APPLNMBASICDISABLEDCOM

  -------         PROC BANK=1   APPLNMBASICFIRSTBUSOFFSLOW
  -------         DO            
  X:0B2FH         SYMBOL        lFlgCanStatus
BL51 BANKED LINKER/LOCATER V6.22                                                      11/17/2023  15:14:24  PAGE 55


  -------         ENDDO         
 C1:F547H         LINE#         538
 C1:F547H         LINE#         539
 C1:F547H         LINE#         542
 C1:F551H         LINE#         543
 C1:F554H         LINE#         544
 C1:F559H         LINE#         545
 C1:F560H         LINE#         546
 C1:F560H         LINE#         547
 C1:F563H         LINE#         548
 C1:F563H         LINE#         549
  -------         ENDPROC       APPLNMBASICFIRSTBUSOFFSLOW

  -------         PROC BANK=1   _APPLILFATALERROR
  D:0007H         SYMBOL        errorNumber
 C1:FDA1H         LINE#         551
 C1:FDA1H         LINE#         552
 C1:FDA1H         LINE#         553
 C1:FDA3H         LINE#         554
  -------         ENDPROC       _APPLILFATALERROR
  -------         PROC          APPLNMBASICSWITCHTRANSCEIVEROFF
  -------         DO            
  D:0007H         SYMBOL        ret
  -------         ENDDO         
 C1:FDA4H         LINE#         556
 C1:FDA4H         LINE#         557
 C1:FDA4H         LINE#         558
 C1:FDA6H         LINE#         559
 C1:FDA6H         LINE#         560
  -------         ENDPROC       APPLNMBASICSWITCHTRANSCEIVEROFF

  -------         PROC BANK=1   _APPLTPFATALERROR
  D:0007H         SYMBOL        errorNumber
 C1:FDA7H         LINE#         562
 C1:FDA7H         LINE#         563
 C1:FDA7H         LINE#         564
 C1:FDA9H         LINE#         565
  -------         ENDPROC       _APPLTPFATALERROR

  -------         PROC BANK=1   _ISR_SAS
  X:0ADCH         SYMBOL        rcvObject
 C1:F812H         LINE#         567
 C1:F81AH         LINE#         568
 C1:F81AH         LINE#         569
 C1:F820H         LINE#         570
 C1:F823H         LINE#         571
  -------         ENDPROC       _ISR_SAS

  -------         PROC BANK=1   _ISR_HUTYPE
  X:0ADEH         SYMBOL        rcvObject
 C1:F978H         LINE#         574
 C1:F980H         LINE#         575
 C1:F980H         LINE#         576
 C1:F986H         LINE#         577
  -------         ENDPROC       _ISR_HUTYPE

  -------         PROC BANK=1   _ISR_NAVIONOFF
BL51 BANKED LINKER/LOCATER V6.22                                                      11/17/2023  15:14:24  PAGE 56


  X:0AE0H         SYMBOL        rcvObject
 C1:FBC9H         LINE#         581
 C1:FBD1H         LINE#         582
 C1:FBD1H         LINE#         583
  -------         ENDPROC       _ISR_NAVIONOFF

  -------         PROC BANK=1   _ISR_COUNTRYCFG
  X:0AE2H         SYMBOL        rcvObject
 C1:FBD2H         LINE#         587
 C1:FBDAH         LINE#         588
 C1:FBDAH         LINE#         589
  -------         ENDPROC       _ISR_COUNTRYCFG

  -------         PROC BANK=1   _ISR_LANGUAGEINFO
  X:0AE4H         SYMBOL        rcvObject
 C1:F987H         LINE#         593
 C1:F98FH         LINE#         594
 C1:F98FH         LINE#         595
 C1:F995H         LINE#         596
  -------         ENDPROC       _ISR_LANGUAGEINFO

  -------         PROC BANK=1   _ISR_MDPSTYPE
  X:0AE6H         SYMBOL        rcvObject
 C1:FBDBH         LINE#         600
 C1:FBE3H         LINE#         601
 C1:FBE3H         LINE#         602
  -------         ENDPROC       _ISR_MDPSTYPE

  -------         PROC BANK=1   _ISR_RVMCAMERAOFF
  X:0AE8H         SYMBOL        rcvObject
 C1:F996H         LINE#         606
 C1:F99EH         LINE#         607
 C1:F99EH         LINE#         608
 C1:F9A4H         LINE#         609
  -------         ENDPROC       _ISR_RVMCAMERAOFF

  -------         PROC BANK=1   _ISR_IGNSW
  X:0AEAH         SYMBOL        rcvObject
 C1:F824H         LINE#         613
 C1:F82CH         LINE#         614
 C1:F82CH         LINE#         615
 C1:F832H         LINE#         616
 C1:F835H         LINE#         617
  -------         ENDPROC       _ISR_IGNSW

  -------         PROC BANK=1   _ISR_FCZCRVMSW
  X:0AECH         SYMBOL        rcvObject
 C1:F836H         LINE#         621
 C1:F83EH         LINE#         622
 C1:F83EH         LINE#         623
 C1:F844H         LINE#         624
 C1:F847H         LINE#         625
  -------         ENDPROC       _ISR_FCZCRVMSW

  -------         PROC BANK=1   _ISR_GSELPDISP
  X:0AEEH         SYMBOL        rcvObject
 C1:F848H         LINE#         629
BL51 BANKED LINKER/LOCATER V6.22                                                      11/17/2023  15:14:24  PAGE 57


 C1:F850H         LINE#         630
 C1:F850H         LINE#         631
 C1:F856H         LINE#         632
 C1:F859H         LINE#         633
  -------         ENDPROC       _ISR_GSELPDISP

  -------         PROC BANK=1   _ISR_ENGVOL
  X:0AF0H         SYMBOL        rcvObject
 C1:F85AH         LINE#         637
 C1:F862H         LINE#         638
 C1:F862H         LINE#         639
 C1:F868H         LINE#         640
 C1:F86BH         LINE#         641
  -------         ENDPROC       _ISR_ENGVOL

  -------         PROC BANK=1   _ISR_WD4ERR
  X:0AF2H         SYMBOL        rcvObject
 C1:F86CH         LINE#         645
 C1:F874H         LINE#         646
 C1:F874H         LINE#         647
 C1:F87AH         LINE#         648
 C1:F87DH         LINE#         649
  -------         ENDPROC       _ISR_WD4ERR

  -------         PROC BANK=1   APPLSAS1MSGTIMEOUT
 C1:FC8BH         LINE#         653
 C1:FC8BH         LINE#         654
 C1:FC8BH         LINE#         655
 C1:FC91H         LINE#         656
  -------         ENDPROC       APPLSAS1MSGTIMEOUT

  -------         PROC BANK=1   APPLHU_MON_PE_01MSGTIMEOUT
 C1:FDAFH         LINE#         658
  -------         ENDPROC       APPLHU_MON_PE_01MSGTIMEOUT

  -------         PROC BANK=1   APPLCGW4MSGTIMEOUT
 C1:FDB0H         LINE#         659
  -------         ENDPROC       APPLCGW4MSGTIMEOUT

  -------         PROC BANK=1   APPLCGW2MSGTIMEOUT
 C1:FDB1H         LINE#         660
  -------         ENDPROC       APPLCGW2MSGTIMEOUT

  -------         PROC BANK=1   APPLCLU15MSGTIMEOUT
 C1:FDB2H         LINE#         661
  -------         ENDPROC       APPLCLU15MSGTIMEOUT

  -------         PROC BANK=1   APPLMDPS11MSGTIMEOUT
 C1:FDB3H         LINE#         662
  -------         ENDPROC       APPLMDPS11MSGTIMEOUT

  -------         PROC BANK=1   APPLHU_RVM_E_00TMSGTIMEOUT
 C1:FDB4H         LINE#         663
  -------         ENDPROC       APPLHU_RVM_E_00TMSGTIMEOUT

  -------         PROC BANK=1   APPLCGW1MSGTIMEOUT
 C1:FC92H         LINE#         665
BL51 BANKED LINKER/LOCATER V6.22                                                      11/17/2023  15:14:24  PAGE 58


 C1:FC92H         LINE#         666
 C1:FC92H         LINE#         667
 C1:FC98H         LINE#         668
  -------         ENDPROC       APPLCGW1MSGTIMEOUT

  -------         PROC BANK=1   APPLCGW6MSGTIMEOUT
 C1:FC99H         LINE#         670
 C1:FC99H         LINE#         671
 C1:FC99H         LINE#         672
 C1:FC9FH         LINE#         673
  -------         ENDPROC       APPLCGW6MSGTIMEOUT

  -------         PROC BANK=1   APPLCGW_PC5MSGTIMEOUT
 C1:FCA0H         LINE#         675
 C1:FCA0H         LINE#         676
 C1:FCA0H         LINE#         677
 C1:FCA6H         LINE#         678
  -------         ENDPROC       APPLCGW_PC5MSGTIMEOUT

  -------         PROC BANK=1   APPLWD411MSGTIMEOUT
 C1:FCA7H         LINE#         680
 C1:FCA7H         LINE#         681
 C1:FCA7H         LINE#         682
 C1:FCADH         LINE#         683
  -------         ENDPROC       APPLWD411MSGTIMEOUT

  -------         PROC BANK=1   APPLEMS12MSGTIMEOUT
 C1:FCAEH         LINE#         685
 C1:FCAEH         LINE#         686
 C1:FCAEH         LINE#         687
 C1:FCB4H         LINE#         688
  -------         ENDPROC       APPLEMS12MSGTIMEOUT
  -------         ENDMOD        DRV_CAN

  -------         MODULE        DRV_PCA
  C:0000H         SYMBOL        _ICE_DUMMY_
  D:00CEH         PUBLIC        PCA0CPL5
  D:00CFH         PUBLIC        PCA0CPH5
  D:00D8H         PUBLIC        PCA0CN
  D:00D9H         PUBLIC        PCA0MD
  D:00DAH         PUBLIC        PCA0CPM0
  D:00E6H         PUBLIC        EIE1
 C1:F91CH         PUBLIC        Watchdog_Init
 C1:FD6DH         PUBLIC        WDT_Clear
 C1:F7C6H         PUBLIC        PCA_Init

  -------         PROC BANK=1   PCA_INIT
 C1:F7C6H         LINE#         8
 C1:F7C6H         LINE#         9
 C1:F7C6H         LINE#         10
 C1:F7C9H         LINE#         11
 C1:F7CCH         LINE#         13
 C1:F7CFH         LINE#         22
 C1:F7D2H         LINE#         24
 C1:F7D5H         LINE#         26
 C1:F7D8H         LINE#         28
  -------         ENDPROC       PCA_INIT
BL51 BANKED LINKER/LOCATER V6.22                                                      11/17/2023  15:14:24  PAGE 59



  -------         PROC BANK=1   WATCHDOG_INIT
 C1:F91CH         LINE#         30
 C1:F91CH         LINE#         31
 C1:F91CH         LINE#         41
 C1:F91FH         LINE#         42
 C1:F922H         LINE#         43
 C1:F925H         LINE#         44
 C1:F928H         LINE#         45
 C1:F92BH         LINE#         47
  -------         ENDPROC       WATCHDOG_INIT

  -------         PROC BANK=1   WDT_CLEAR
 C1:FD6DH         LINE#         49
 C1:FD6DH         LINE#         50
 C1:FD6DH         LINE#         51
 C1:FD70H         LINE#         52
  -------         ENDPROC       WDT_CLEAR
  -------         ENDMOD        DRV_PCA

  -------         MODULE        DRV_SPI
  C:0000H         SYMBOL        _ICE_DUMMY_
  D:00A1H         PUBLIC        SPI0CFG
  D:00A2H         PUBLIC        SPI0CKR
  D:00A3H         PUBLIC        SPI0DAT
  D:00A7H         PUBLIC        SFRPAGE
  D:00F8H         PUBLIC        SPI0CN
  B:00F8H.7       PUBLIC        SPIF
  B:00F8H.2       PUBLIC        NSSMD0
 C1:F9A5H         PUBLIC        Flash_Wait
 C1:FD48H         PUBLIC        _Flash_DataSet
 C1:FD4DH         PUBLIC        Flash_Slave_Select
 C1:FD52H         PUBLIC        _Flash_Slave_Command
 C1:CFD6H         PUBLIC        _Flash_EraseSector
 C1:F92CH         PUBLIC        Spi_Init
 C1:CABAH         PUBLIC        Check_Flash_ID
 C1:F028H         PUBLIC        _spi_master_read
 C1:F2ABH         PUBLIC        _spi_master_write
 C1:BAE5H         PUBLIC        _Flash_Write
 C1:E3BBH         PUBLIC        _Read_Guide_Value
  X:0AF5H         SYMBOL        gTemp

  -------         PROC BANK=1   SPI_INIT
  -------         DO            
  D:0007H         SYMBOL        SFRPAGE_save
  -------         ENDDO         
 C1:F92CH         LINE#         12
 C1:F92CH         LINE#         13
 C1:F92CH         LINE#         14
 C1:F92EH         LINE#         16
 C1:F931H         LINE#         18
 C1:F934H         LINE#         23
 C1:F937H         LINE#         26
 C1:F939H         LINE#         28
 C1:F93BH         LINE#         29
  -------         ENDPROC       SPI_INIT

BL51 BANKED LINKER/LOCATER V6.22                                                      11/17/2023  15:14:24  PAGE 60


  -------         PROC BANK=1   _SPI_MASTER_READ
  D:0007H         SYMBOL        addr
  -------         DO            
  X:0B30H         SYMBOL        dat
  D:0006H         SYMBOL        rd_addr
  -------         ENDDO         
 C1:F028H         LINE#         31
 C1:F028H         LINE#         32
 C1:F028H         LINE#         33
 C1:F02DH         LINE#         34
 C1:F02EH         LINE#         36
 C1:F032H         LINE#         37
 C1:F035H         LINE#         39
 C1:F037H         LINE#         41
 C1:F03BH         LINE#         42
 C1:F03EH         LINE#         43
 C1:F040H         LINE#         44
 C1:F043H         LINE#         45
 C1:F046H         LINE#         46
 C1:F04CH         LINE#         48
 C1:F04EH         LINE#         49
 C1:F050H         LINE#         51
 C1:F052H         LINE#         52
  -------         ENDPROC       _SPI_MASTER_READ

  -------         PROC BANK=1   _SPI_MASTER_WRITE
  D:0007H         SYMBOL        addr
  X:0B31H         SYMBOL        dat
  -------         DO            
  D:0006H         SYMBOL        wr_addr
  -------         ENDDO         
 C1:F2ABH         LINE#         54
 C1:F2B0H         LINE#         55
 C1:F2B0H         LINE#         56
 C1:F2B2H         LINE#         58
 C1:F2B6H         LINE#         60
 C1:F2B8H         LINE#         62
 C1:F2BCH         LINE#         63
 C1:F2BFH         LINE#         64
 C1:F2C7H         LINE#         65
 C1:F2CAH         LINE#         67
 C1:F2CCH         LINE#         68
 C1:F2CEH         LINE#         69
  -------         ENDPROC       _SPI_MASTER_WRITE

  -------         PROC BANK=1   FLASH_WAIT
  -------         DO            
  X:0AF4H         SYMBOL        reg_4val
  -------         ENDDO         
 C1:F9A5H         LINE#         71
 C1:F9A5H         LINE#         72
 C1:F9A5H         LINE#         75
 C1:F9A5H         LINE#         76
 C1:F9ADH         LINE#         77
 C1:F9B0H         LINE#         78
 C1:F9B1H         LINE#         79
 C1:F9B1H         LINE#         80
BL51 BANKED LINKER/LOCATER V6.22                                                      11/17/2023  15:14:24  PAGE 61


 C1:F9B3H         LINE#         81
  -------         ENDPROC       FLASH_WAIT

  -------         PROC BANK=1   _FLASH_DATASET
  D:0007H         SYMBOL        flash_data
 C1:FD48H         LINE#         83
 C1:FD48H         LINE#         84
 C1:FD48H         LINE#         85
 C1:FD4AH         LINE#         86
 C1:FD4CH         LINE#         87
  -------         ENDPROC       _FLASH_DATASET

  -------         PROC BANK=1   FLASH_SLAVE_SELECT
 C1:FD4DH         LINE#         89
 C1:FD4DH         LINE#         90
 C1:FD4DH         LINE#         91
 C1:FD4FH         LINE#         92
 C1:FD51H         LINE#         93
  -------         ENDPROC       FLASH_SLAVE_SELECT

  -------         PROC BANK=1   _FLASH_SLAVE_COMMAND
  D:0007H         SYMBOL        flash_cmd
 C1:FD52H         LINE#         95
 C1:FD52H         LINE#         96
 C1:FD52H         LINE#         97
 C1:FD54H         LINE#         98
 C1:FD56H         LINE#         99
  -------         ENDPROC       _FLASH_SLAVE_COMMAND

  -------         PROC BANK=1   _READ_GUIDE_VALUE
  X:0A6FH         SYMBOL        Value
  -------         DO            
  D:0006H         SYMBOL        rtn
  D:0005H         SYMBOL        i
  -------         ENDDO         
 C1:E3BBH         LINE#         101
 C1:E3C6H         LINE#         102
 C1:E3C6H         LINE#         103
 C1:E3CAH         LINE#         105
 C1:E3CCH         LINE#         107
 C1:E3D1H         LINE#         108
 C1:E3D4H         LINE#         110
 C1:E3D9H         LINE#         111
 C1:E3DCH         LINE#         113
 C1:E3E0H         LINE#         114
 C1:E3E3H         LINE#         116
 C1:E3E8H         LINE#         117
 C1:E3EBH         LINE#         119
 C1:E3F2H         LINE#         120
 C1:E3F2H         LINE#         121
 C1:E3F7H         LINE#         122
 C1:E3FAH         LINE#         124
 C1:E3FCH         LINE#         125
 C1:E411H         LINE#         126
 C1:E414H         LINE#         128
 C1:E416H         LINE#         130
 C1:E419H         LINE#         131
BL51 BANKED LINKER/LOCATER V6.22                                                      11/17/2023  15:14:24  PAGE 62


  -------         ENDPROC       _READ_GUIDE_VALUE

  -------         PROC BANK=1   CHECK_FLASH_ID
  -------         DO            
  D:0006H         SYMBOL        rtn
  X:0B32H         SYMBOL        i
  -------         ENDDO         
 C1:CABAH         LINE#         133
 C1:CABAH         LINE#         134
 C1:CABAH         LINE#         135
 C1:CAC1H         LINE#         138
 C1:CAC6H         LINE#         139
 C1:CAC9H         LINE#         141
 C1:CACEH         LINE#         142
 C1:CAD1H         LINE#         144
 C1:CAD5H         LINE#         145
 C1:CAD8H         LINE#         147
 C1:CADCH         LINE#         148
 C1:CADFH         LINE#         150
 C1:CAE3H         LINE#         151
 C1:CAE6H         LINE#         153
 C1:CAE8H         LINE#         154
 C1:CAEEH         LINE#         156
 C1:CAF3H         LINE#         158
 C1:CAF5H         LINE#         159
 C1:CAF8H         LINE#         160
 C1:CAFBH         LINE#         162
 C1:CB00H         LINE#         163
 C1:CB03H         LINE#         165
 C1:CB08H         LINE#         166
 C1:CB0BH         LINE#         168
 C1:CB0FH         LINE#         169
 C1:CB12H         LINE#         171
 C1:CB16H         LINE#         172
 C1:CB19H         LINE#         174
 C1:CB1BH         LINE#         175
 C1:CB1EH         LINE#         176
 C1:CB21H         LINE#         177
 C1:CB27H         LINE#         179
 C1:CB2CH         LINE#         180
 C1:CB2EH         LINE#         182
 C1:CB30H         LINE#         184
 C1:CB32H         LINE#         185
 C1:CB35H         LINE#         186
 C1:CB38H         LINE#         188
 C1:CB3BH         LINE#         189
 C1:CB41H         LINE#         191
 C1:CB46H         LINE#         192
 C1:CB48H         LINE#         193
 C1:CB48H         LINE#         194
 C1:CB48H         LINE#         195
 C1:CB4AH         LINE#         196
 C1:CB4CH         LINE#         198
 C1:CB4CH         LINE#         200
 C1:CB4FH         LINE#         201
 C1:CB52H         LINE#         203
 C1:CB55H         LINE#         204
BL51 BANKED LINKER/LOCATER V6.22                                                      11/17/2023  15:14:24  PAGE 63


 C1:CB5BH         LINE#         206
 C1:CB60H         LINE#         207
 C1:CB62H         LINE#         208
 C1:CB64H         LINE#         210
 C1:CB64H         LINE#         211
 C1:CB69H         LINE#         212
 C1:CB6CH         LINE#         214
 C1:CB71H         LINE#         215
 C1:CB74H         LINE#         217
 C1:CB76H         LINE#         218
 C1:CB7CH         LINE#         220
 C1:CB7EH         LINE#         221
 C1:CB7EH         LINE#         222
 C1:CB7EH         LINE#         224
 C1:CB81H         LINE#         225
  -------         ENDPROC       CHECK_FLASH_ID

  -------         PROC BANK=1   _FLASH_WRITE
  X:08D8H         SYMBOL        Addr
  X:08DCH         SYMBOL        Data
  X:08DFH         SYMBOL        Len
  -------         DO            
  X:08E1H         SYMBOL        lp
  -------         ENDDO         
 C1:BAE5H         LINE#         348
 C1:BAF6H         LINE#         349
 C1:BAF6H         LINE#         350
 C1:BAFDH         LINE#         353
 C1:BB02H         LINE#         354
 C1:BB05H         LINE#         356
 C1:BB08H         LINE#         358
 C1:BB0FH         LINE#         360
 C1:BB14H         LINE#         361
 C1:BB17H         LINE#         363
 C1:BB2EH         LINE#         364
 C1:BB31H         LINE#         366
 C1:BB48H         LINE#         367
 C1:BB4BH         LINE#         369
 C1:BB5DH         LINE#         370
 C1:BB60H         LINE#         372
 C1:BB62H         LINE#         375
 C1:BB7DH         LINE#         376
 C1:BB7DH         LINE#         377
 C1:BB93H         LINE#         378
 C1:BB96H         LINE#         380
 C1:BB98H         LINE#         381
 C1:BBA8H         LINE#         383
 C1:BBAAH         LINE#         385
 C1:BBB1H         LINE#         387
 C1:BBB3H         LINE#         389
 C1:BBB3H         LINE#         390
 C1:BBB3H         LINE#         391
 C1:BBB8H         LINE#         392
 C1:BBBBH         LINE#         394
 C1:BBBDH         LINE#         395
 C1:BBC0H         LINE#         396
 C1:BBC3H         LINE#         397
BL51 BANKED LINKER/LOCATER V6.22                                                      11/17/2023  15:14:24  PAGE 64


 C1:BBC9H         LINE#         399
 C1:BBCDH         LINE#         400
 C1:BBCFH         LINE#         401
 C1:BBCFH         LINE#         402
 C1:BBD1H         LINE#         404
 C1:BBD3H         LINE#         406
 C1:BBDAH         LINE#         408
 C1:BBDFH         LINE#         409
 C1:BBE2H         LINE#         411
 C1:BBE5H         LINE#         413
  -------         ENDPROC       _FLASH_WRITE

  -------         PROC BANK=1   _FLASH_ERASESECTOR
  X:0A01H         SYMBOL        Addr
 C1:CFD6H         LINE#         416
 C1:CFDCH         LINE#         417
 C1:CFDCH         LINE#         419
 C1:CFE1H         LINE#         420
 C1:CFE4H         LINE#         422
 C1:CFE7H         LINE#         424
 C1:CFEEH         LINE#         426
 C1:CFF3H         LINE#         427
 C1:CFF6H         LINE#         429
 C1:D00DH         LINE#         430
 C1:D010H         LINE#         432
 C1:D027H         LINE#         433
 C1:D02AH         LINE#         435
 C1:D03CH         LINE#         436
 C1:D03FH         LINE#         438
 C1:D042H         LINE#         440
 C1:D049H         LINE#         442
 C1:D04BH         LINE#         444
 C1:D04BH         LINE#         445
 C1:D04BH         LINE#         446
 C1:D04EH         LINE#         447
 C1:D051H         LINE#         449
 C1:D053H         LINE#         450
 C1:D056H         LINE#         451
 C1:D059H         LINE#         452
 C1:D05FH         LINE#         454
 C1:D063H         LINE#         455
 C1:D063H         LINE#         456
 C1:D063H         LINE#         457
 C1:D06AH         LINE#         458
 C1:D06CH         LINE#         460
 C1:D06EH         LINE#         462
 C1:D075H         LINE#         464
 C1:D07AH         LINE#         465
 C1:D07DH         LINE#         467
 C1:D080H         LINE#         468
  -------         ENDPROC       _FLASH_ERASESECTOR
  -------         ENDMOD        DRV_SPI

  -------         MODULE        ?BANK?SWITCHING
  C:402EH         SEGMENT       ?BANK?SELECT
  D:001FH         SEGMENT       ?BANK?DATA
  C:5500H         SEGMENT       ?BANK?SWITCH
BL51 BANKED LINKER/LOCATER V6.22                                                      11/17/2023  15:14:24  PAGE 65


  C:5500H         PUBLIC        ?B_BANK0
  C:5511H         PUBLIC        ?B_BANK1
  C:5522H         PUBLIC        ?B_BANK2
  C:5533H         PUBLIC        ?B_BANK3
  D:001FH         PUBLIC        ?B_CURRENTBANK
  N:0000H         PUBLIC        ?B_FACTOR
  N:0003H         PUBLIC        ?B_MASK
  N:0004H         PUBLIC        ?B_MODE
  N:0004H         PUBLIC        ?B_NBANKS
  N:00FFH         PUBLIC        ?B_RST_BANK
  C:550AH         PUBLIC        ?B_SWITCH0
  C:551BH         PUBLIC        ?B_SWITCH1
  C:552CH         PUBLIC        ?B_SWITCH2
  C:553DH         PUBLIC        ?B_SWITCH3
  C:402EH         PUBLIC        _SWITCHBANK
  N:0000H         SYMBOL        ?BANK?SWITCHING
  N:0000H         SYMBOL        ?B_FIRSTBIT
  N:0000H         SYMBOL        ?B_RTX
  N:0000H         SYMBOL        ?B_VAR_BANKING
  D:00E0H         SYMBOL        ACC
  D:00F0H         SYMBOL        B
  N:0044H         SYMBOL        B_SWITCH_SIZE
  C:5500H         SYMBOL        B_SWITCH_START
  N:0004H         SYMBOL        CNT
  D:0083H         SYMBOL        DPH
  D:0082H         SYMBOL        DPL
  B:00A8H.7       SYMBOL        EA
  D:00A8H         SYMBOL        IE
  N:0003H         SYMBOL        MASK
  D:00F5H         SYMBOL        PSBANK
  C:4036H         SYMBOL        SWITCH_TAB
  C:402FH         SYMBOL        _SWITCHBANK_A
  -------         ENDMOD        ?BANK?SWITCHING

  -------         MODULE        MGR_DIAG
  C:0000H         SYMBOL        _ICE_DUMMY_
  D:00E6H         PUBLIC        EIE1
  D:00F5H         PUBLIC        PSBANK
  B:0090H.4       PUBLIC        MCU_F_ENABLE
 C1:FB42H         PUBLIC        Init_DiagTask
 C1:B173H         PUBLIC        Operate_DiagTask
 C1:FA2CH         PUBLIC        Diag_Ecu_Reset
 C1:FA8CH         PUBLIC        Diag_Clear_DTC
 C1:EC36H         PUBLIC        _Diag_Read_Dtc
 C1:FD71H         PUBLIC        Diag_Sensor_Reset
 C1:FD75H         PUBLIC        _Diag_Guid_OnOff
 C1:ED2AH         PUBLIC        Clear_DTC_Struct
 C1:F053H         PUBLIC        Clear_DTC_Status
 C1:ABC8H         PUBLIC        _Record_DTC_Error
 C1:CD0EH         PUBLIC        _Record_DTC_Clear
 C1:90F5H         PUBLIC        _Diag_Read_Sys
 C1:CC48H         PUBLIC        _Diag_Write_Sys
 C1:FBA1H         PUBLIC        Firmware_Update
 C1:8759H         PUBLIC        _Diag_Write_Transfer_Data
 C1:FCF4H         PUBLIC        Diag_DTC_Set_On
 C1:FCB5H         PUBLIC        Diag_DTC_Set_Off
 C1:A3FDH         PUBLIC        Flash_DTC_Write
BL51 BANKED LINKER/LOCATER V6.22                                                      11/17/2023  15:14:24  PAGE 66


 C1:BCE7H         PUBLIC        Flash_DTC_Read
 C1:FDB5H         PUBLIC        Diag_Exit_Update
 C1:F7D9H         PUBLIC        Diag_Get_Time
 C1:A74EH         PUBLIC        _SYS_Flash_Read
 C1:9DE8H         PUBLIC        _Diag_Read_Address
 C1:A5B3H         PUBLIC        _Diag_Extra_Data_Process
 C1:F87EH         PUBLIC        Diag_Eeprom_Update
 C1:E41AH         PUBLIC        Diag_Calibration_Mode_start
 C1:A205H         PUBLIC        _Diag_Calibration_Mode
  X:020FH         PUBLIC        CalibrationMode_OnOff
  X:0210H         PUBLIC        OpticOffset_Set
  X:0211H         PUBLIC        ga_Ext_tDTC_Type_Msg
  D:00A8H         PUBLIC        VSTDLIB_IE
  X:022AH         SYMBOL        DTC_Set_Off
  X:022BH         SYMBOL        DTC_Write_Set
  X:022CH         SYMBOL        DTC_Err_Sensor_Reset
  X:022DH         SYMBOL        Calibration_Data
  X:0230H         PUBLIC        IGN_ON_Status
  C:5EE3H         SYMBOL        _?ix1000
  C:5EE6H         SYMBOL        _?ix1001
  C:5EF8H         SYMBOL        _?ix1002
  C:5FF8H         SYMBOL        _?ix1003
  C:6012H         SYMBOL        _?ix1004
  C:602CH         SYMBOL        _?ix1005
  C:6046H         SYMBOL        _?ix1006
  C:606DH         SYMBOL        _?ix1007
  C:6073H         SYMBOL        _?ix1008
  C:6099H         SYMBOL        _?ix1009

  -------         PROC BANK=1   INIT_DIAGTASK
 C1:FB42H         LINE#         40
 C1:FB42H         LINE#         41
 C1:FB42H         LINE#         42
 C1:FB45H         LINE#         43
 C1:FB48H         LINE#         44
 C1:FB4DH         LINE#         87
  -------         ENDPROC       INIT_DIAGTASK

  -------         PROC BANK=1   CLEAR_DTC_STRUCT
  -------         DO            
  D:0007H         SYMBOL        i
  -------         ENDDO         
 C1:ED2AH         LINE#         89
 C1:ED2AH         LINE#         90
 C1:ED2AH         LINE#         91
 C1:ED2CH         LINE#         92
 C1:ED32H         LINE#         93
 C1:ED32H         LINE#         94
 C1:ED41H         LINE#         95
 C1:ED4FH         LINE#         96
 C1:ED52H         LINE#         97
 C1:ED57H         LINE#         98
 C1:ED59H         LINE#         99
 C1:ED5BH         LINE#         100
 C1:ED5DH         LINE#         101
 C1:ED5FH         LINE#         102
 C1:ED61H         LINE#         103
BL51 BANKED LINKER/LOCATER V6.22                                                      11/17/2023  15:14:24  PAGE 67


  -------         ENDPROC       CLEAR_DTC_STRUCT

  -------         PROC BANK=1   CLEAR_DTC_STATUS
  -------         DO            
  D:0007H         SYMBOL        i
  -------         ENDDO         
 C1:F053H         LINE#         105
 C1:F053H         LINE#         106
 C1:F053H         LINE#         107
 C1:F055H         LINE#         108
 C1:F05DH         LINE#         109
 C1:F05DH         LINE#         110
 C1:F06CH         LINE#         111
 C1:F07AH         LINE#         112
 C1:F07DH         LINE#         113
  -------         ENDPROC       CLEAR_DTC_STATUS

  -------         PROC BANK=1   OPERATE_DIAGTASK
  -------         DO            
  X:0A05H         SYMBOL        ID
  X:0A06H         SYMBOL        On_Time
  X:0A07H         SYMBOL        Reserved_Address
  X:0A08H         SYMBOL        i
  -------         ENDDO         
 C1:B173H         LINE#         115
 C1:B173H         LINE#         116
 C1:B173H         LINE#         117
 C1:B179H         LINE#         118
 C1:B17CH         LINE#         119
 C1:B17EH         LINE#         120
 C1:B180H         LINE#         122
 C1:B183H         LINE#         124
 C1:B18DH         LINE#         125
 C1:B190H         LINE#         126
 C1:B190H         LINE#         127
 C1:B193H         LINE#         128
 C1:B193H         LINE#         129
 C1:B196H         LINE#         130
 C1:B1A0H         LINE#         131
 C1:B1A3H         LINE#         132
 C1:B1A3H         LINE#         133
 C1:B1A6H         LINE#         134
 C1:B1AFH         LINE#         135
 C1:B1AFH         LINE#         136
 C1:B1B2H         LINE#         138
 C1:B1BCH         LINE#         139
 C1:B1C0H         LINE#         140
 C1:B1C0H         LINE#         141
 C1:B1C7H         LINE#         142
 C1:B1C7H         LINE#         143
 C1:B1CAH         LINE#         144
 C1:B1CFH         LINE#         145
 C1:B1CFH         LINE#         147
 C1:B1D7H         LINE#         148
 C1:B1D7H         LINE#         149
 C1:B1D8H         LINE#         151
 C1:B1DDH         LINE#         153
BL51 BANKED LINKER/LOCATER V6.22                                                      11/17/2023  15:14:24  PAGE 68


 C1:B1E2H         LINE#         154
 C1:B1E7H         LINE#         155
 C1:B1ECH         LINE#         157
 C1:B1FCH         LINE#         158
 C1:B1FCH         LINE#         159
 C1:B20AH         LINE#         160
 C1:B212H         LINE#         162
 C1:B215H         LINE#         163
 C1:B218H         LINE#         164
 C1:B218H         LINE#         165
 C1:B218H         LINE#         168
 C1:B223H         LINE#         169
 C1:B223H         LINE#         170
 C1:B22AH         LINE#         171
 C1:B22AH         LINE#         172
 C1:B230H         LINE#         173
 C1:B236H         LINE#         174
 C1:B236H         LINE#         175
 C1:B23CH         LINE#         176
 C1:B240H         LINE#         178
 C1:B245H         LINE#         179
 C1:B24BH         LINE#         180
 C1:B24BH         LINE#         181
 C1:B251H         LINE#         182
 C1:B251H         LINE#         184
 C1:B258H         LINE#         185
 C1:B258H         LINE#         186
 C1:B25EH         LINE#         187
 C1:B264H         LINE#         188
 C1:B264H         LINE#         189
 C1:B26AH         LINE#         190
 C1:B26EH         LINE#         191
 C1:B272H         LINE#         192
 C1:B276H         LINE#         193
 C1:B27AH         LINE#         195
 C1:B27FH         LINE#         196
 C1:B285H         LINE#         197
 C1:B285H         LINE#         198
 C1:B28BH         LINE#         199
 C1:B28BH         LINE#         201
 C1:B292H         LINE#         202
 C1:B292H         LINE#         203
 C1:B298H         LINE#         204
 C1:B29EH         LINE#         205
 C1:B29EH         LINE#         206
 C1:B2A4H         LINE#         207
 C1:B2A8H         LINE#         209
 C1:B2ADH         LINE#         210
 C1:B2B3H         LINE#         211
 C1:B2B3H         LINE#         212
 C1:B2B9H         LINE#         213
 C1:B2B9H         LINE#         214
 C1:B2BFH         LINE#         215
 C1:B2BFH         LINE#         216
  -------         ENDPROC       OPERATE_DIAGTASK

  -------         PROC BANK=1   _RECORD_DTC_ERROR
BL51 BANKED LINKER/LOCATER V6.22                                                      11/17/2023  15:14:24  PAGE 69


  X:0B33H         SYMBOL        ID
  -------         DO            
  D:0007H         SYMBOL        is_error
  -------         ENDDO         
 C1:ABC8H         LINE#         218
 C1:ABCDH         LINE#         219
 C1:ABCDH         LINE#         220
 C1:ABCFH         LINE#         222
 C1:ABD8H         LINE#         223
 C1:ABD8H         LINE#         224
 C1:ABEFH         LINE#         225
 C1:ABEFH         LINE#         226
 C1:AC02H         LINE#         227
 C1:AC05H         LINE#         228
 C1:AC05H         LINE#         229
 C1:AC0FH         LINE#         230
 C1:AC0FH         LINE#         231
 C1:AC17H         LINE#         232
 C1:AC17H         LINE#         233
 C1:AC22H         LINE#         234
 C1:AC22H         LINE#         235
 C1:AC26H         LINE#         236
 C1:AC26H         LINE#         237
 C1:AC31H         LINE#         238
 C1:AC31H         LINE#         239
 C1:AC38H         LINE#         240
 C1:AC38H         LINE#         241
 C1:AC43H         LINE#         242
 C1:AC43H         LINE#         243
 C1:AC4BH         LINE#         244
 C1:AC4BH         LINE#         245
 C1:AC56H         LINE#         246
 C1:AC56H         LINE#         247
 C1:AC5AH         LINE#         248
 C1:AC5AH         LINE#         249
 C1:AC65H         LINE#         250
 C1:AC65H         LINE#         251
 C1:AC6CH         LINE#         252
 C1:AC6CH         LINE#         253
 C1:AC77H         LINE#         254
 C1:AC77H         LINE#         255
 C1:AC7FH         LINE#         256
 C1:AC7FH         LINE#         257
 C1:AC8AH         LINE#         258
 C1:AC8AH         LINE#         259
 C1:AC8EH         LINE#         260
 C1:AC8EH         LINE#         261
 C1:AC99H         LINE#         262
 C1:AC99H         LINE#         264
 C1:ACA1H         LINE#         265
 C1:ACA1H         LINE#         266
 C1:ACA4H         LINE#         267
 C1:ACB6H         LINE#         268
 C1:ACBCH         LINE#         269
 C1:ACBCH         LINE#         270
 C1:ACCBH         LINE#         271
 C1:ACCFH         LINE#         272
BL51 BANKED LINKER/LOCATER V6.22                                                      11/17/2023  15:14:24  PAGE 70


 C1:ACD4H         LINE#         273
 C1:ACD6H         LINE#         275
 C1:ACD6H         LINE#         276
 C1:ACE5H         LINE#         277
 C1:AD01H         LINE#         279
 C1:AD01H         LINE#         280
 C1:AD0FH         LINE#         282
 C1:AD0FH         LINE#         283
 C1:AD15H         LINE#         284
 C1:AD15H         LINE#         286
 C1:AD1BH         LINE#         287
 C1:AD20H         LINE#         288
 C1:AD22H         LINE#         289
 C1:AD2FH         LINE#         290
 C1:AD2FH         LINE#         291
 C1:AD35H         LINE#         292
 C1:AD3AH         LINE#         293
 C1:AD3AH         LINE#         294
 C1:AD3AH         LINE#         295
 C1:AD3AH         LINE#         296
 C1:AD40H         LINE#         297
 C1:AD40H         LINE#         298
 C1:AD40H         LINE#         299
 C1:AD40H         LINE#         300
  -------         ENDPROC       _RECORD_DTC_ERROR

  -------         PROC BANK=1   _RECORD_DTC_CLEAR
  D:0007H         SYMBOL        ID
 C1:CD0EH         LINE#         302
 C1:CD0EH         LINE#         303
 C1:CD0EH         LINE#         306
 C1:CD1FH         LINE#         307
 C1:CD1FH         LINE#         308
 C1:CD31H         LINE#         309
 C1:CD31H         LINE#         310
 C1:CD3FH         LINE#         312
 C1:CD3FH         LINE#         313
 C1:CD40H         LINE#         314
 C1:CD45H         LINE#         315
 C1:CD45H         LINE#         316
 C1:CD53H         LINE#         317
 C1:CD62H         LINE#         319
 C1:CD68H         LINE#         320
 C1:CD68H         LINE#         321
 C1:CD6DH         LINE#         322
 C1:CD73H         LINE#         323
 C1:CD75H         LINE#         324
 C1:CD8DH         LINE#         326
 C1:CD8DH         LINE#         327
 C1:CD92H         LINE#         328
 C1:CD98H         LINE#         329
 C1:CD9AH         LINE#         330
 C1:CDA3H         LINE#         331
 C1:CDA3H         LINE#         332
 C1:CDA8H         LINE#         333
 C1:CDAEH         LINE#         334
 C1:CDAEH         LINE#         335
BL51 BANKED LINKER/LOCATER V6.22                                                      11/17/2023  15:14:24  PAGE 71


 C1:CDAEH         LINE#         336
 C1:CDB4H         LINE#         337
 C1:CDB5H         LINE#         339
 C1:CDB5H         LINE#         340
 C1:CDC3H         LINE#         341
 C1:CDC3H         LINE#         343
  -------         ENDPROC       _RECORD_DTC_CLEAR

  -------         PROC BANK=1   DIAG_ECU_RESET
 C1:FA2CH         LINE#         344
 C1:FA2CH         LINE#         345
 C1:FA2CH         LINE#         346
 C1:FA31H         LINE#         347
 C1:FA39H         LINE#         348
  -------         ENDPROC       DIAG_ECU_RESET

  -------         PROC BANK=1   DIAG_CLEAR_DTC
 C1:FA8CH         LINE#         350
 C1:FA8CH         LINE#         351
 C1:FA8CH         LINE#         352
 C1:FA95H         LINE#         353
 C1:FA98H         LINE#         354
  -------         ENDPROC       DIAG_CLEAR_DTC

  -------         PROC BANK=1   _DIAG_READ_DTC
  D:0007H         SYMBOL        index
  -------         DO            
  D:0006H         SYMBOL        ret
  -------         ENDDO         
 C1:EC36H         LINE#         356
 C1:EC36H         LINE#         357
 C1:EC36H         LINE#         358
 C1:EC38H         LINE#         359
 C1:EC3CH         LINE#         360
 C1:EC3CH         LINE#         361
 C1:EC44H         LINE#         362
 C1:EC44H         LINE#         363
 C1:EC47H         LINE#         364
 C1:EC49H         LINE#         366
 C1:EC49H         LINE#         367
 C1:EC4BH         LINE#         368
 C1:EC4BH         LINE#         369
 C1:EC4BH         LINE#         370
 C1:EC4FH         LINE#         371
 C1:EC4FH         LINE#         372
 C1:EC57H         LINE#         373
 C1:EC57H         LINE#         374
 C1:EC5AH         LINE#         375
 C1:EC5CH         LINE#         377
 C1:EC5CH         LINE#         378
 C1:EC5EH         LINE#         379
 C1:EC5EH         LINE#         380
 C1:EC5EH         LINE#         381
 C1:EC62H         LINE#         382
 C1:EC62H         LINE#         383
 C1:EC6AH         LINE#         384
 C1:EC6AH         LINE#         385
BL51 BANKED LINKER/LOCATER V6.22                                                      11/17/2023  15:14:24  PAGE 72


 C1:EC6DH         LINE#         386
 C1:EC6FH         LINE#         388
 C1:EC6FH         LINE#         389
 C1:EC71H         LINE#         390
 C1:EC71H         LINE#         391
 C1:EC71H         LINE#         393
 C1:EC74H         LINE#         394
  -------         ENDPROC       _DIAG_READ_DTC

  -------         PROC BANK=1   _DIAG_READ_SYS
  X:084DH         SYMBOL        ID
  X:084EH         SYMBOL        Buf
  X:0851H         SYMBOL        Length
  -------         DO            
  X:0852H         SYMBOL        ret
  X:0853H         SYMBOL        ret16
  X:0855H         SYMBOL        Flash_Data
  X:0858H         SYMBOL        temp_buf
  -------         ENDDO         
 C1:90F5H         LINE#         396
 C1:9103H         LINE#         397
 C1:9103H         LINE#         398
 C1:9108H         LINE#         399
 C1:910CH         LINE#         400
 C1:911EH         LINE#         401
 C1:9131H         LINE#         403
 C1:9148H         LINE#         405
 C1:9153H         LINE#         406
 C1:9153H         LINE#         407
 C1:9161H         LINE#         408
 C1:9174H         LINE#         409
 C1:917BH         LINE#         410
 C1:9182H         LINE#         412
 C1:9190H         LINE#         413
 C1:919EH         LINE#         415
 C1:91A8H         LINE#         416
 C1:91BAH         LINE#         417
 C1:91BCH         LINE#         418
 C1:91CFH         LINE#         419
 C1:91CFH         LINE#         420
 C1:91E1H         LINE#         422
 C1:91EBH         LINE#         423
 C1:91F2H         LINE#         424
 C1:91F4H         LINE#         425
 C1:91FCH         LINE#         426
 C1:91FCH         LINE#         427
 C1:9203H         LINE#         429
 C1:920FH         LINE#         430
 C1:920FH         LINE#         431
 C1:9214H         LINE#         432
 C1:9214H         LINE#         434
 C1:9219H         LINE#         435
 C1:921BH         LINE#         436
 C1:921BH         LINE#         437
 C1:921BH         LINE#         438
 C1:9232H         LINE#         439
 C1:923CH         LINE#         441
BL51 BANKED LINKER/LOCATER V6.22                                                      11/17/2023  15:14:24  PAGE 73


 C1:9246H         LINE#         442
 C1:925BH         LINE#         444
 C1:9266H         LINE#         446
 C1:9282H         LINE#         447
 C1:9289H         LINE#         449
 C1:92ABH         LINE#         450
 C1:92C7H         LINE#         451
 C1:92C7H         LINE#         453
 C1:92E9H         LINE#         454
 C1:9305H         LINE#         455
 C1:9305H         LINE#         457
 C1:9327H         LINE#         458
 C1:9343H         LINE#         459
 C1:9343H         LINE#         461
 C1:9365H         LINE#         462
 C1:9381H         LINE#         463
 C1:9381H         LINE#         465
 C1:93A3H         LINE#         466
 C1:93BFH         LINE#         467
 C1:93BFH         LINE#         469
 C1:93E1H         LINE#         470
 C1:93FDH         LINE#         471
 C1:93FDH         LINE#         473
 C1:941FH         LINE#         474
 C1:943BH         LINE#         475
 C1:943BH         LINE#         477
 C1:945DH         LINE#         478
 C1:9479H         LINE#         479
 C1:9479H         LINE#         481
 C1:949BH         LINE#         482
 C1:94B9H         LINE#         483
 C1:94B9H         LINE#         484
 C1:94B9H         LINE#         486
 C1:94B9H         LINE#         487
 C1:94D0H         LINE#         488
 C1:94D0H         LINE#         489
 C1:94D6H         LINE#         490
 C1:94F1H         LINE#         491
  -------         ENDPROC       _DIAG_READ_SYS

  -------         PROC BANK=1   FIRMWARE_UPDATE
 C1:FBA1H         LINE#         493
 C1:FBA1H         LINE#         494
 C1:FBA1H         LINE#         495
 C1:FBAAH         LINE#         496
  -------         ENDPROC       FIRMWARE_UPDATE

  -------         PROC BANK=1   DIAG_EEPROM_UPDATE
 C1:F87EH         LINE#         498
 C1:F87EH         LINE#         499
 C1:F87EH         LINE#         500
 C1:F881H         LINE#         501
 C1:F887H         LINE#         502
 C1:F889H         LINE#         504
 C1:F88CH         LINE#         505
 C1:F88FH         LINE#         506
  -------         ENDPROC       DIAG_EEPROM_UPDATE
BL51 BANKED LINKER/LOCATER V6.22                                                      11/17/2023  15:14:24  PAGE 74



  -------         PROC BANK=1   _DIAG_WRITE_TRANSFER_DATA
  X:0391H         SYMBOL        Buf
  -------         DO            
  X:0394H         SYMBOL        address
  X:0000H         SYMBOL        cnt
  X:0004H         SYMBOL        erase_cnt
  X:0008H         SYMBOL        lotation
  X:000CH         SYMBOL        Buf1
  X:010CH         SYMBOL        Buf2
  X:020CH         SYMBOL        buf1_index
  X:020DH         SYMBOL        buf2_index
  X:020EH         SYMBOL        loop_index
  X:0398H         SYMBOL        Write_Buf
  -------         ENDDO         
 C1:8759H         LINE#         508
 C1:8764H         LINE#         509
 C1:8764H         LINE#         510
 C1:876CH         LINE#         519
 C1:877FH         LINE#         521
 C1:879DH         LINE#         522
 C1:879DH         LINE#         523
 C1:87B6H         LINE#         524
 C1:87DBH         LINE#         525
 C1:87E2H         LINE#         526
 C1:87E2H         LINE#         527
 C1:87FBH         LINE#         528
 C1:87FBH         LINE#         529
 C1:8809H         LINE#         530
 C1:8818H         LINE#         531
 C1:8845H         LINE#         532
 C1:8848H         LINE#         534
 C1:8848H         LINE#         535
 C1:8851H         LINE#         536
 C1:8851H         LINE#         537
 C1:8859H         LINE#         538
 C1:8859H         LINE#         539
 C1:8886H         LINE#         541
 C1:888CH         LINE#         542
 C1:8890H         LINE#         543
 C1:8893H         LINE#         544
 C1:88B8H         LINE#         545
 C1:88BBH         LINE#         547
 C1:88BBH         LINE#         548
 C1:88E8H         LINE#         549
 C1:8908H         LINE#         551
 C1:893EH         LINE#         552
 C1:8951H         LINE#         554
 C1:8971H         LINE#         556
 C1:8980H         LINE#         557
 C1:89ABH         LINE#         558
 C1:89BAH         LINE#         559
 C1:89C1H         LINE#         560
 C1:89C6H         LINE#         561
 C1:89C6H         LINE#         562
 C1:89C9H         LINE#         564
 C1:89D4H         LINE#         565
BL51 BANKED LINKER/LOCATER V6.22                                                      11/17/2023  15:14:24  PAGE 75


 C1:89D4H         LINE#         566
 C1:89DCH         LINE#         567
 C1:89DCH         LINE#         568
 C1:8A09H         LINE#         569
 C1:8A0FH         LINE#         570
 C1:8A13H         LINE#         571
 C1:8A16H         LINE#         572
 C1:8A3BH         LINE#         573
 C1:8A3EH         LINE#         575
 C1:8A3EH         LINE#         576
 C1:8A6BH         LINE#         577
 C1:8A8BH         LINE#         579
 C1:8AC1H         LINE#         580
 C1:8AD4H         LINE#         582
 C1:8AF4H         LINE#         584
 C1:8B03H         LINE#         585
 C1:8B2EH         LINE#         586
 C1:8B3DH         LINE#         587
 C1:8B44H         LINE#         588
 C1:8B49H         LINE#         589
 C1:8B49H         LINE#         591
 C1:8B4CH         LINE#         592
 C1:8B57H         LINE#         593
 C1:8B57H         LINE#         594
 C1:8B5DH         LINE#         595
 C1:8B5DH         LINE#         596
 C1:8B8AH         LINE#         597
 C1:8B90H         LINE#         598
 C1:8B94H         LINE#         599
 C1:8B97H         LINE#         600
 C1:8BBCH         LINE#         601
 C1:8BBFH         LINE#         603
 C1:8BBFH         LINE#         604
 C1:8BECH         LINE#         605
 C1:8C0CH         LINE#         607
 C1:8C42H         LINE#         608
 C1:8C55H         LINE#         610
 C1:8C75H         LINE#         612
 C1:8C84H         LINE#         613
 C1:8CAFH         LINE#         614
 C1:8CBEH         LINE#         615
 C1:8CC5H         LINE#         616
 C1:8CCAH         LINE#         617
 C1:8CCAH         LINE#         618
 C1:8CCAH         LINE#         620
 C1:8CCAH         LINE#         621
 C1:8CCAH         LINE#         623
 C1:8CCAH         LINE#         624
 C1:8CEFH         LINE#         625
  -------         ENDPROC       _DIAG_WRITE_TRANSFER_DATA

  -------         PROC BANK=1   DIAG_SENSOR_RESET
 C1:FD71H         LINE#         627
 C1:FD71H         LINE#         628
 C1:FD71H         LINE#         629
 C1:FD74H         LINE#         630
  -------         ENDPROC       DIAG_SENSOR_RESET
BL51 BANKED LINKER/LOCATER V6.22                                                      11/17/2023  15:14:24  PAGE 76



  -------         PROC BANK=1   _DIAG_GUID_ONOFF
  D:0007H         SYMBOL        OnOff
 C1:FD75H         LINE#         632
 C1:FD75H         LINE#         633
 C1:FD75H         LINE#         634
 C1:FD78H         LINE#         635
  -------         ENDPROC       _DIAG_GUID_ONOFF

  -------         PROC BANK=1   DIAG_CALIBRATION_MODE_START
 C1:E41AH         LINE#         637
 C1:E41AH         LINE#         638
 C1:E41AH         LINE#         639
 C1:E420H         LINE#         641
 C1:E42EH         LINE#         643
 C1:E448H         LINE#         645
 C1:E454H         LINE#         646
 C1:E454H         LINE#         647
 C1:E459H         LINE#         648
 C1:E459H         LINE#         650
 C1:E45EH         LINE#         651
 C1:E460H         LINE#         652
 C1:E460H         LINE#         653
 C1:E460H         LINE#         655
 C1:E46CH         LINE#         656
 C1:E46CH         LINE#         657
 C1:E471H         LINE#         658
 C1:E471H         LINE#         660
 C1:E476H         LINE#         661
 C1:E478H         LINE#         662
 C1:E478H         LINE#         663
 C1:E478H         LINE#         666
  -------         ENDPROC       DIAG_CALIBRATION_MODE_START

  -------         PROC BANK=1   _DIAG_CALIBRATION_MODE
  X:09D4H         SYMBOL        Ctrl_Para
  -------         DO            
  X:09D5H         SYMBOL        i
  X:09D6H         SYMBOL        Cs
  X:09D7H         SYMBOL        X_Axis
  X:09D8H         SYMBOL        Y_Axis
  -------         ENDDO         
 C1:A205H         LINE#         668
 C1:A20AH         LINE#         669
 C1:A20AH         LINE#         670
 C1:A20FH         LINE#         674
 C1:A21AH         LINE#         675
 C1:A21AH         LINE#         676
 C1:A242H         LINE#         677
 C1:A242H         LINE#         678
 C1:A242H         LINE#         679
 C1:A245H         LINE#         680
 C1:A24BH         LINE#         681
 C1:A24EH         LINE#         682
 C1:A251H         LINE#         684
 C1:A251H         LINE#         685
 C1:A25AH         LINE#         686
BL51 BANKED LINKER/LOCATER V6.22                                                      11/17/2023  15:14:24  PAGE 77


 C1:A274H         LINE#         688
 C1:A27AH         LINE#         689
 C1:A27FH         LINE#         690
 C1:A282H         LINE#         691
 C1:A285H         LINE#         693
 C1:A285H         LINE#         694
 C1:A28AH         LINE#         695
 C1:A28CH         LINE#         697
 C1:A28FH         LINE#         699
 C1:A28FH         LINE#         700
 C1:A29DH         LINE#         702
 C1:A2A9H         LINE#         703
 C1:A2A9H         LINE#         704
 C1:A2B5H         LINE#         705
 C1:A2BAH         LINE#         706
 C1:A2BCH         LINE#         708
 C1:A2BCH         LINE#         709
 C1:A2C5H         LINE#         710
 C1:A2C5H         LINE#         711
 C1:A2CDH         LINE#         713
 C1:A2D0H         LINE#         715
 C1:A2D0H         LINE#         716
 C1:A2DEH         LINE#         718
 C1:A2E9H         LINE#         719
 C1:A2E9H         LINE#         720
 C1:A2F6H         LINE#         721
 C1:A2FBH         LINE#         722
 C1:A2FDH         LINE#         724
 C1:A2FDH         LINE#         725
 C1:A306H         LINE#         726
 C1:A306H         LINE#         727
 C1:A30EH         LINE#         729
 C1:A310H         LINE#         731
 C1:A310H         LINE#         732
 C1:A31EH         LINE#         734
 C1:A329H         LINE#         735
 C1:A329H         LINE#         736
 C1:A336H         LINE#         737
 C1:A33BH         LINE#         738
 C1:A33DH         LINE#         740
 C1:A33DH         LINE#         741
 C1:A346H         LINE#         742
 C1:A346H         LINE#         743
 C1:A34EH         LINE#         745
 C1:A350H         LINE#         747
 C1:A350H         LINE#         748
 C1:A35EH         LINE#         750
 C1:A36AH         LINE#         751
 C1:A36AH         LINE#         752
 C1:A376H         LINE#         753
 C1:A37BH         LINE#         754
 C1:A37DH         LINE#         756
 C1:A37DH         LINE#         757
 C1:A386H         LINE#         758
 C1:A386H         LINE#         759
 C1:A38EH         LINE#         761
 C1:A38EH         LINE#         763
BL51 BANKED LINKER/LOCATER V6.22                                                      11/17/2023  15:14:24  PAGE 78


 C1:A38EH         LINE#         765
 C1:A38EH         LINE#         766
 C1:A38EH         LINE#         768
 C1:A39EH         LINE#         769
 C1:A39EH         LINE#         770
 C1:A3AAH         LINE#         771
 C1:A3AAH         LINE#         772
 C1:A3C2H         LINE#         773
 C1:A3CAH         LINE#         774
 C1:A3D2H         LINE#         776
 C1:A3E9H         LINE#         778
 C1:A3EFH         LINE#         779
 C1:A3EFH         LINE#         780
 C1:A3F0H         LINE#         782
 C1:A3F0H         LINE#         783
 C1:A3F6H         LINE#         784
 C1:A3F6H         LINE#         785
 C1:A3F9H         LINE#         786
 C1:A3FCH         LINE#         787
 C1:A3FCH         LINE#         788
 C1:A3FCH         LINE#         789
  -------         ENDPROC       _DIAG_CALIBRATION_MODE

  -------         PROC BANK=1   DIAG_EXIT_UPDATE
 C1:FDB5H         LINE#         791
 C1:FDB5H         LINE#         792
 C1:FDB5H         LINE#         794
  -------         ENDPROC       DIAG_EXIT_UPDATE

  -------         PROC BANK=1   DIAG_DTC_SET_ON
 C1:FCF4H         LINE#         796
 C1:FCF4H         LINE#         797
 C1:FCF4H         LINE#         798
 C1:FCF9H         LINE#         799
  -------         ENDPROC       DIAG_DTC_SET_ON

  -------         PROC BANK=1   DIAG_DTC_SET_OFF
 C1:FCB5H         LINE#         801
 C1:FCB5H         LINE#         802
 C1:FCB5H         LINE#         803
 C1:FCBBH         LINE#         804
  -------         ENDPROC       DIAG_DTC_SET_OFF

  -------         PROC BANK=1   FLASH_DTC_WRITE
  -------         DO            
  X:068CH         SYMBOL        ret
  X:068DH         SYMBOL        i
  X:068EH         SYMBOL        Cs
  X:068FH         SYMBOL        Write_Buf
  X:06A9H         SYMBOL        Read_Buf
  X:06C3H         SYMBOL        Write_Address
  X:06C5H         SYMBOL        Read_Address
  X:06C7H         SYMBOL        temp_Address1
  X:06C9H         SYMBOL        temp_Address2
  -------         ENDDO         
 C1:A3FDH         LINE#         806
 C1:A3FDH         LINE#         807
BL51 BANKED LINKER/LOCATER V6.22                                                      11/17/2023  15:14:24  PAGE 79


 C1:A3FDH         LINE#         808
 C1:A402H         LINE#         809
 C1:A418H         LINE#         810
 C1:A42FH         LINE#         811
 C1:A436H         LINE#         812
 C1:A43AH         LINE#         813
 C1:A43EH         LINE#         814
 C1:A442H         LINE#         816
 C1:A44FH         LINE#         817
 C1:A45EH         LINE#         819
 C1:A475H         LINE#         821
 C1:A483H         LINE#         822
 C1:A483H         LINE#         823
 C1:A49BH         LINE#         824
 C1:A4A3H         LINE#         825
 C1:A4ABH         LINE#         827
 C1:A4C4H         LINE#         828
 C1:A4CDH         LINE#         830
 C1:A4D4H         LINE#         831
 C1:A4D4H         LINE#         832
 C1:A4D6H         LINE#         833
 C1:A4D6H         LINE#         835
 C1:A4ECH         LINE#         836
 C1:A4FEH         LINE#         837
 C1:A50CH         LINE#         838
 C1:A512H         LINE#         840
 C1:A512H         LINE#         841
 C1:A512H         LINE#         842
 C1:A530H         LINE#         843
 C1:A54EH         LINE#         845
 C1:A56AH         LINE#         846
 C1:A56DH         LINE#         847
 C1:A56DH         LINE#         848
 C1:A576H         LINE#         849
 C1:A584H         LINE#         850
 C1:A58FH         LINE#         852
 C1:A59AH         LINE#         853
 C1:A59AH         LINE#         854
 C1:A5A4H         LINE#         855
 C1:A5ACH         LINE#         856
 C1:A5ACH         LINE#         857
 C1:A5AFH         LINE#         859
 C1:A5AFH         LINE#         860
 C1:A5AFH         LINE#         861
 C1:A5AFH         LINE#         862
 C1:A5B2H         LINE#         863
  -------         ENDPROC       FLASH_DTC_WRITE

  -------         PROC BANK=1   FLASH_DTC_READ
  -------         DO            
  X:082BH         SYMBOL        i
  X:082CH         SYMBOL        Cs
  X:082DH         SYMBOL        Read_Buf
  X:0847H         SYMBOL        Read_Address
  X:0849H         SYMBOL        temp_Address1
  X:084BH         SYMBOL        temp_Address2
  -------         ENDDO         
BL51 BANKED LINKER/LOCATER V6.22                                                      11/17/2023  15:14:24  PAGE 80


 C1:BCE7H         LINE#         870
 C1:BCE7H         LINE#         871
 C1:BCE7H         LINE#         872
 C1:BCECH         LINE#         875
 C1:BD02H         LINE#         878
 C1:BD09H         LINE#         879
 C1:BD0FH         LINE#         880
 C1:BD13H         LINE#         883
 C1:BD20H         LINE#         887
 C1:BD39H         LINE#         890
 C1:BD40H         LINE#         891
 C1:BD40H         LINE#         892
 C1:BD42H         LINE#         893
 C1:BD42H         LINE#         897
 C1:BD58H         LINE#         898
 C1:BD6AH         LINE#         900
 C1:BD77H         LINE#         903
 C1:BD95H         LINE#         906
 C1:BDA3H         LINE#         907
 C1:BDA3H         LINE#         908
 C1:BDBBH         LINE#         909
 C1:BDC3H         LINE#         912
 C1:BDCFH         LINE#         913
 C1:BDCFH         LINE#         915
 C1:BDE1H         LINE#         916
 C1:BDE1H         LINE#         917
  -------         ENDPROC       FLASH_DTC_READ

  -------         PROC BANK=1   _DIAG_WRITE_SYS
  X:073CH         SYMBOL        Write_Buf
  X:073FH         SYMBOL        Length
  -------         DO            
  X:0740H         SYMBOL        i
  X:0741H         SYMBOL        Cs
  X:0742H         SYMBOL        Cs_size
  X:0743H         SYMBOL        len
  X:0744H         SYMBOL        Buf
  -------         ENDDO         
 C1:CC48H         LINE#         918
 C1:CC56H         LINE#         919
 C1:CC56H         LINE#         921
 C1:CC6DH         LINE#         923
 C1:CC75H         LINE#         924
 C1:CC7BH         LINE#         925
 C1:CC84H         LINE#         926
 C1:CC93H         LINE#         927
 C1:CCAFH         LINE#         929
 C1:CCC1H         LINE#         930
 C1:CCC1H         LINE#         931
 C1:CCD9H         LINE#         932
 C1:CCE1H         LINE#         933
 C1:CCF3H         LINE#         934
 C1:CD0DH         LINE#         936
  -------         ENDPROC       _DIAG_WRITE_SYS

  -------         PROC BANK=1   _DIAG_EXTRA_DATA_PROCESS
  X:08E3H         SYMBOL        Write_Buf
BL51 BANKED LINKER/LOCATER V6.22                                                      11/17/2023  15:14:24  PAGE 81


  -------         DO            
  X:08E6H         SYMBOL        i
  X:08E7H         SYMBOL        Cs
  X:08E8H         SYMBOL        Buf
  -------         ENDDO         
 C1:A5B3H         LINE#         938
 C1:A5BEH         LINE#         939
 C1:A5BEH         LINE#         941
 C1:A5D5H         LINE#         943
 C1:A5E8H         LINE#         944
 C1:A5E8H         LINE#         945
 C1:A5F0H         LINE#         947
 C1:A5FFH         LINE#         948
 C1:A62CH         LINE#         949
 C1:A659H         LINE#         951
 C1:A667H         LINE#         952
 C1:A667H         LINE#         953
 C1:A67FH         LINE#         954
 C1:A687H         LINE#         955
 C1:A68FH         LINE#         957
 C1:A69EH         LINE#         958
 C1:A69EH         LINE#         959
 C1:A6B6H         LINE#         960
 C1:A6BEH         LINE#         961
 C1:A6C6H         LINE#         963
 C1:A6E0H         LINE#         964
 C1:A6E3H         LINE#         965
 C1:A6E4H         LINE#         966
 C1:A6F5H         LINE#         967
 C1:A6F5H         LINE#         968
 C1:A6FEH         LINE#         969
 C1:A701H         LINE#         970
 C1:A702H         LINE#         971
 C1:A714H         LINE#         972
 C1:A714H         LINE#         973
 C1:A717H         LINE#         974
 C1:A71DH         LINE#         975
 C1:A71FH         LINE#         976
 C1:A726H         LINE#         978
 C1:A734H         LINE#         979
 C1:A734H         LINE#         980
 C1:A742H         LINE#         981
 C1:A745H         LINE#         982
 C1:A74DH         LINE#         983
 C1:A74DH         LINE#         984
 C1:A74DH         LINE#         985
  -------         ENDPROC       _DIAG_EXTRA_DATA_PROCESS

  -------         PROC BANK=1   _SYS_FLASH_READ
  X:076BH         SYMBOL        ID
  X:076CH         SYMBOL        Read_Buf
  X:076FH         SYMBOL        Length
  -------         DO            
  X:0770H         SYMBOL        i
  X:0771H         SYMBOL        Cs
  X:0772H         SYMBOL        Buf
  -------         ENDDO         
BL51 BANKED LINKER/LOCATER V6.22                                                      11/17/2023  15:14:24  PAGE 82


 C1:A74EH         LINE#         987
 C1:A75CH         LINE#         988
 C1:A75CH         LINE#         990
 C1:A773H         LINE#         992
 C1:A785H         LINE#         994
 C1:A79FH         LINE#         996
 C1:A7ADH         LINE#         997
 C1:A7ADH         LINE#         998
 C1:A7C5H         LINE#         999
 C1:A7CDH         LINE#         1000
 C1:A7D5H         LINE#         1001
 C1:A7E4H         LINE#         1002
 C1:A7E4H         LINE#         1003
 C1:A807H         LINE#         1004
 C1:A807H         LINE#         1005
 C1:A807H         LINE#         1006
 C1:A828H         LINE#         1007
 C1:A829H         LINE#         1008
 C1:A829H         LINE#         1009
 C1:A84AH         LINE#         1010
 C1:A84BH         LINE#         1011
 C1:A84BH         LINE#         1012
 C1:A86CH         LINE#         1013
 C1:A86DH         LINE#         1014
 C1:A86DH         LINE#         1015
 C1:A88EH         LINE#         1016
 C1:A88FH         LINE#         1017
 C1:A88FH         LINE#         1018
 C1:A8B0H         LINE#         1019
 C1:A8B1H         LINE#         1020
 C1:A8B1H         LINE#         1021
 C1:A8D2H         LINE#         1022
 C1:A8D2H         LINE#         1023
 C1:A8D2H         LINE#         1024
 C1:A8D2H         LINE#         1025
 C1:A8D2H         LINE#         1026
 C1:A8D2H         LINE#         1027
  -------         ENDPROC       _SYS_FLASH_READ

  -------         PROC BANK=1   _DIAG_READ_ADDRESS
  X:07E5H         SYMBOL        Read_Buf
  X:07E8H         SYMBOL        DataAddr
  X:07ECH         SYMBOL        DataLen
  -------         DO            
  X:07EEH         SYMBOL        DataBuf
  X:07FEH         SYMBOL        CodeBank1
  X:07FFH         SYMBOL        CodeBank2
  X:0800H         SYMBOL        Read_Address1
  X:0802H         SYMBOL        Read_Address2
  X:0804H         SYMBOL        Length1
  X:0806H         SYMBOL        Length2
  -------         ENDDO         
 C1:9DE8H         LINE#         1029
 C1:9DF7H         LINE#         1030
 C1:9DF7H         LINE#         1031
 C1:9E0EH         LINE#         1032
 C1:9E13H         LINE#         1033
BL51 BANKED LINKER/LOCATER V6.22                                                      11/17/2023  15:14:24  PAGE 83


 C1:9E15H         LINE#         1034
 C1:9E19H         LINE#         1035
 C1:9E1FH         LINE#         1036
 C1:9E25H         LINE#         1037
 C1:9E2BH         LINE#         1040
 C1:9E46H         LINE#         1041
 C1:9E87H         LINE#         1043
 C1:9E8DH         LINE#         1044
 C1:9E8DH         LINE#         1045
 C1:9E8FH         LINE#         1046
 C1:9E91H         LINE#         1047
 C1:9E91H         LINE#         1049
 C1:9E9DH         LINE#         1050
 C1:9E9DH         LINE#         1051
 C1:9EC4H         LINE#         1052
 C1:9ED3H         LINE#         1053
 C1:9EDBH         LINE#         1054
 C1:9F03H         LINE#         1055
 C1:9F06H         LINE#         1057
 C1:9F06H         LINE#         1058
 C1:9F30H         LINE#         1059
 C1:9F57H         LINE#         1060
 C1:9F5FH         LINE#         1062
 C1:9F68H         LINE#         1063
 C1:9F83H         LINE#         1064
 C1:9F8BH         LINE#         1066
 C1:9FB1H         LINE#         1067
 C1:9FE3H         LINE#         1068
 C1:9FE3H         LINE#         1070
 C1:A005H         LINE#         1071
  -------         ENDPROC       _DIAG_READ_ADDRESS

  -------         PROC BANK=1   DIAG_GET_TIME
  -------         DO            
  X:0AF6H         SYMBOL        Cur_Time
  -------         ENDDO         
 C1:F7D9H         LINE#         1073
 C1:F7D9H         LINE#         1074
 C1:F7D9H         LINE#         1075
 C1:F7E0H         LINE#         1076
 C1:F7EBH         LINE#         1077
 C1:F7EBH         LINE#         1078
  -------         ENDPROC       DIAG_GET_TIME
  -------         ENDMOD        MGR_DIAG

  -------         MODULE        DRV_MEM
  C:0000H         SYMBOL        _ICE_DUMMY_
  D:008FH         PUBLIC        PSCTL
  D:00A7H         PUBLIC        SFRPAGE
  D:00B6H         PUBLIC        FLSCL
  D:00B7H         PUBLIC        FLKEY
  D:00EFH         PUBLIC        RSTSRC
  D:00F5H         PUBLIC        PSBANK
  D:00FFH         PUBLIC        VDM0CN
  B:00A8H.7       PUBLIC        EA
  X:0AF8H         PUBLIC        FLKEY1
  X:0AF9H         PUBLIC        FLKEY2
BL51 BANKED LINKER/LOCATER V6.22                                                      11/17/2023  15:14:24  PAGE 84


 C1:FE07H         PUBLIC        _FLASH_ByteWrite
 C1:EFD0H         PUBLIC        _FLASH_ByteRead
 C1:FED5H         PUBLIC        _FLASH_PageErase
 C1:D455H         PUBLIC        _FLASH_Write_Buf
 C1:DBBCH         PUBLIC        _FLASH_Read_Buf
 C1:F890H         PUBLIC        _FLASH_Erase_Buf
 C1:FE00H         PUBLIC        FLASH_ResetTrap
 C1:F7ECH         PUBLIC        FLASH_SetFlashKey
 C1:FBF6H         PUBLIC        FLASH_ClearFlashKey

  -------         PROC BANK=1   FLASH_SETFLASHKEY
 C1:F7ECH         LINE#         28
 C1:F7ECH         LINE#         29
 C1:F7ECH         LINE#         30
 C1:F7F2H         LINE#         31
 C1:F7F6H         LINE#         33
 C1:F7FAH         LINE#         34
 C1:F7FEH         LINE#         35
  -------         ENDPROC       FLASH_SETFLASHKEY

  -------         PROC BANK=1   FLASH_CLEARFLASHKEY
 C1:FBF6H         LINE#         41
 C1:FBF6H         LINE#         42
 C1:FBF6H         LINE#         43
 C1:FBFBH         LINE#         44
 C1:FBFDH         LINE#         45
  -------         ENDPROC       FLASH_CLEARFLASHKEY

  -------         PROC BANK=1   FLASH_RESETTRAP
 C1:FE00H         LINE#         52
 C1:FE00H         LINE#         53
 C1:FE00H         LINE#         54
 C1:FE03H         LINE#         55
 C1:FE06H         LINE#         56
  -------         ENDPROC       FLASH_RESETTRAP

  -------         PROC BANK=1   _FLASH_BYTEWRITE
  X:099CH         SYMBOL        addr
  D:0002H         SYMBOL        byte
  D:0003H         SYMBOL        bank
  X:09A0H         SYMBOL        flkey1
  X:09A1H         SYMBOL        flkey2
  -------         DO            
  B:0020H.1       SYMBOL        EA_SAVE
  D:0013H         SYMBOL        pwrite
  D:0007H         SYMBOL        ret
  D:0006H         SYMBOL        i
  X:09A2H         SYMBOL        Save_Bank
  D:0001H         SYMBOL        SFRPAGE_save
  -------         ENDDO         
 C1:FE07H         LINE#         79
 C1:FE12H         LINE#         80
 C1:FE12H         LINE#         82
 C1:FE16H         LINE#         87
 C1:FE18H         LINE#         88
 C1:FE19H         LINE#         89
 C1:FE1FH         LINE#         90
BL51 BANKED LINKER/LOCATER V6.22                                                      11/17/2023  15:14:24  PAGE 85


 C1:FE21H         LINE#         92
 C1:FE24H         LINE#         94
 C1:FE26H         LINE#         95
 C1:FE28H         LINE#         97
 C1:FE43H         LINE#         98
 C1:FE43H         LINE#         99
 C1:FE46H         LINE#         100
 C1:FE49H         LINE#         101
 C1:FE49H         LINE#         103
 C1:FE4CH         LINE#         105
 C1:FE4FH         LINE#         106
 C1:FE54H         LINE#         108
 C1:FE57H         LINE#         110
 C1:FE5AH         LINE#         112
 C1:FE64H         LINE#         114
 C1:FE6AH         LINE#         115
 C1:FE6AH         LINE#         116
 C1:FE6BH         LINE#         117
 C1:FE6EH         LINE#         118
 C1:FE78H         LINE#         119
 C1:FE7BH         LINE#         120
 C1:FE7DH         LINE#         122
 C1:FE7DH         LINE#         123
 C1:FE7FH         LINE#         124
 C1:FE82H         LINE#         127
 C1:FE8DH         LINE#         129
 C1:FE90H         LINE#         130
 C1:FE93H         LINE#         132
 C1:FE99H         LINE#         133
 C1:FE9DH         LINE#         135
 C1:FEA0H         LINE#         137
 C1:FEA3H         LINE#         139
 C1:FEABH         LINE#         141
 C1:FEAEH         LINE#         143
 C1:FEB1H         LINE#         144
 C1:FEBCH         LINE#         145
 C1:FEBFH         LINE#         148
 C1:FEC2H         LINE#         149
 C1:FEC2H         LINE#         150
 C1:FEC8H         LINE#         151
 C1:FECDH         LINE#         153
 C1:FED0H         LINE#         154
 C1:FED4H         LINE#         156
 C1:FED4H         LINE#         157
  -------         ENDPROC       _FLASH_BYTEWRITE

  -------         PROC BANK=1   _FLASH_BYTEREAD
  D:0006H         SYMBOL        addr
  D:0005H         SYMBOL        bank
  -------         DO            
  B:0020H.2       SYMBOL        EA_SAVE
  D:0015H         SYMBOL        pread
  D:0004H         SYMBOL        byte
  D:0001H         SYMBOL        Save_Bank
  D:0003H         SYMBOL        SFRPAGE_SAVE
  -------         ENDDO         
 C1:EFD0H         LINE#         173
BL51 BANKED LINKER/LOCATER V6.22                                                      11/17/2023  15:14:24  PAGE 86


 C1:EFD0H         LINE#         174
 C1:EFD0H         LINE#         176
 C1:EFD4H         LINE#         181
 C1:EFD6H         LINE#         182
 C1:EFD8H         LINE#         183
 C1:EFDAH         LINE#         185
 C1:EFDCH         LINE#         186
 C1:EFDEH         LINE#         188
 C1:EFE0H         LINE#         190
 C1:EFE2H         LINE#         192
 C1:EFE6H         LINE#         194
 C1:EFECH         LINE#         196
 C1:EFF1H         LINE#         197
 C1:EFF6H         LINE#         198
 C1:EFFAH         LINE#         200
 C1:EFFBH         LINE#         201
  -------         ENDPROC       _FLASH_BYTEREAD

  -------         PROC BANK=1   _FLASH_PAGEERASE
  X:09B1H         SYMBOL        addr
  D:0002H         SYMBOL        bank
  D:0003H         SYMBOL        flkey1
  X:09B5H         SYMBOL        flkey2
  -------         DO            
  B:0020H.3       SYMBOL        EA_SAVE
  D:0017H         SYMBOL        pwrite
  D:0007H         SYMBOL        ret
  D:0006H         SYMBOL        i
  X:09B6H         SYMBOL        Save_Bank
  D:0001H         SYMBOL        SFRPAGE_save
  -------         ENDDO         
 C1:FED5H         LINE#         227
 C1:FEE0H         LINE#         228
 C1:FEE0H         LINE#         230
 C1:FEE4H         LINE#         235
 C1:FEE6H         LINE#         236
 C1:FEE7H         LINE#         237
 C1:FEEDH         LINE#         238
 C1:FEEFH         LINE#         240
 C1:FEF2H         LINE#         242
 C1:FEF4H         LINE#         243
 C1:FEF6H         LINE#         245
 C1:FF11H         LINE#         246
 C1:FF11H         LINE#         247
 C1:FF14H         LINE#         248
 C1:FF17H         LINE#         249
 C1:FF17H         LINE#         251
 C1:FF1AH         LINE#         253
 C1:FF1DH         LINE#         254
 C1:FF22H         LINE#         256
 C1:FF25H         LINE#         258
 C1:FF28H         LINE#         260
 C1:FF32H         LINE#         262
 C1:FF38H         LINE#         263
 C1:FF38H         LINE#         264
 C1:FF39H         LINE#         265
 C1:FF3CH         LINE#         266
BL51 BANKED LINKER/LOCATER V6.22                                                      11/17/2023  15:14:24  PAGE 87


 C1:FF46H         LINE#         267
 C1:FF49H         LINE#         268
 C1:FF4BH         LINE#         270
 C1:FF4BH         LINE#         271
 C1:FF4DH         LINE#         273
 C1:FF50H         LINE#         275
 C1:FF5BH         LINE#         277
 C1:FF5EH         LINE#         279
 C1:FF63H         LINE#         280
 C1:FF69H         LINE#         282
 C1:FF6CH         LINE#         283
 C1:FF6FH         LINE#         285
 C1:FF77H         LINE#         287
 C1:FF7AH         LINE#         288
 C1:FF7DH         LINE#         290
 C1:FF87H         LINE#         291
 C1:FF8AH         LINE#         294
 C1:FF8DH         LINE#         295
 C1:FF8DH         LINE#         296
 C1:FF93H         LINE#         297
 C1:FF98H         LINE#         299
 C1:FF9BH         LINE#         300
 C1:FF9FH         LINE#         302
 C1:FF9FH         LINE#         303
  -------         ENDPROC       _FLASH_PAGEERASE

  -------         PROC BANK=1   _FLASH_WRITE_BUF
  X:08EEH         SYMBOL        dest
  X:08F0H         SYMBOL        src
  X:08F3H         SYMBOL        numbytes
  X:08F5H         SYMBOL        bank
  -------         DO            
  X:08F6H         SYMBOL        i
  X:08F8H         SYMBOL        index
  -------         ENDDO         
 C1:D455H         LINE#         306
 C1:D468H         LINE#         307
 C1:D468H         LINE#         308
 C1:D46FH         LINE#         309
 C1:D471H         LINE#         311
 C1:D49AH         LINE#         312
 C1:D49AH         LINE#         313
 C1:D49DH         LINE#         314
 C1:D4D5H         LINE#         315
 C1:D4DBH         LINE#         316
 C1:D4EBH         LINE#         317
  -------         ENDPROC       _FLASH_WRITE_BUF

  -------         PROC BANK=1   _FLASH_READ_BUF
  X:08F9H         SYMBOL        dest
  X:08FCH         SYMBOL        src
  X:08FEH         SYMBOL        numbytes
  X:0900H         SYMBOL        bank
  -------         DO            
  X:0901H         SYMBOL        i
  X:0903H         SYMBOL        index
  -------         ENDDO         
BL51 BANKED LINKER/LOCATER V6.22                                                      11/17/2023  15:14:24  PAGE 88


 C1:DBBCH         LINE#         319
 C1:DBCDH         LINE#         320
 C1:DBCDH         LINE#         321
 C1:DBD4H         LINE#         322
 C1:DBD6H         LINE#         324
 C1:DBF2H         LINE#         325
 C1:DBF2H         LINE#         326
 C1:DC1EH         LINE#         327
 C1:DC24H         LINE#         328
 C1:DC34H         LINE#         329
  -------         ENDPROC       _FLASH_READ_BUF

  -------         PROC BANK=1   _FLASH_ERASE_BUF
  D:0006H         SYMBOL        dest
  D:0005H         SYMBOL        bank
 C1:F890H         LINE#         331
 C1:F890H         LINE#         332
 C1:F890H         LINE#         333
 C1:F893H         LINE#         334
 C1:F8A1H         LINE#         335
  -------         ENDPROC       _FLASH_ERASE_BUF
  -------         ENDMOD        DRV_MEM

  -------         MODULE        MGR_ISP
  C:0000H         SYMBOL        _ICE_DUMMY_
  B:00A0H.2       PUBLIC        AMP_V_STB
  B:00A0H.4       PUBLIC        MCU_SENSOR_RESET
 C1:D836H         PUBLIC        Init_IspTask
 C1:B9D4H         SYMBOL        _Sensor_XY_Offset_set
 C1:E037H         PUBLIC        CheckCommandStatusLoop
 C1:D081H         PUBLIC        Isp_InterInit
 C1:C596H         PUBLIC        Operate_IspTask
 C1:BEDCH         PUBLIC        Isp_Parking_Assist_View
 C1:F33BH         PUBLIC        Isp_Driving_Assist_View
 C1:8CF0H         PUBLIC        _Isp_View_Mode_Change
 C1:FDAAH         PUBLIC        Isp_Off
 C1:FD79H         PUBLIC        Isp_On
 C1:C761H         PUBLIC        _Fixed_Guidline_On
 C1:EF70H         PUBLIC        Fixed_Guidline_Off
 C1:ED62H         PUBLIC        Guidline_On
 C1:EE76H         PUBLIC        Guidline_Off
 C1:FCFAH         PUBLIC        _isp_guide_on_off
 C1:EC75H         PUBLIC        V_STB_Check
 C1:EAA8H         PUBLIC        Video_Signal_Check
 C1:EBB5H         PUBLIC        Frame_Count_Check
 C1:F2CFH         PUBLIC        Frame_Valide_Check
 C1:D31CH         PUBLIC        Check_Isp_InitState
  X:071FH         PUBLIC        tISP_Func_Msg
  X:072BH         SYMBOL        g_Overlay_Stauts_Loop_Check_Time
  X:072CH         SYMBOL        g_Guideline_OnOff
  X:072DH         SYMBOL        g_Pre_Calibration_Mode
  X:072EH         SYMBOL        Overlay_Guideline_flag
  X:072FH         SYMBOL        warning_msg_flag
  X:0730H         SYMBOL        Asix
  X:0733H         PUBLIC        Optical_Axis_Data
 C1:BFD6H         SYMBOL        _Overlay_Guideline
 C1:E7F7H         PUBLIC        DoorbellCheck
BL51 BANKED LINKER/LOCATER V6.22                                                      11/17/2023  15:14:24  PAGE 89


 C1:B547H         SYMBOL        _warning_msg
  C:73D0H         SYMBOL        _?ix1000

  -------         PROC BANK=1   INIT_ISPTASK
 C1:D836H         LINE#         33
 C1:D836H         LINE#         34
 C1:D836H         LINE#         35
 C1:D850H         LINE#         36
 C1:D85CH         LINE#         37
 C1:D85CH         LINE#         38
 C1:D861H         LINE#         39
 C1:D861H         LINE#         41
 C1:D866H         LINE#         42
 C1:D868H         LINE#         43
 C1:D868H         LINE#         44
 C1:D868H         LINE#         46
 C1:D874H         LINE#         47
 C1:D874H         LINE#         48
 C1:D879H         LINE#         49
 C1:D879H         LINE#         51
 C1:D87EH         LINE#         52
 C1:D880H         LINE#         53
 C1:D880H         LINE#         54
 C1:D880H         LINE#         55
 C1:D883H         LINE#         57
 C1:D888H         LINE#         58
 C1:D88CH         LINE#         59
 C1:D890H         LINE#         61
 C1:D894H         LINE#         62
 C1:D898H         LINE#         63
 C1:D89AH         LINE#         64
 C1:D89EH         LINE#         65
 C1:D8A0H         LINE#         66
 C1:D8A3H         LINE#         67
 C1:D8A5H         LINE#         68
 C1:D8A9H         LINE#         69
 C1:D8ABH         LINE#         70
 C1:D8AFH         LINE#         71
 C1:D8B1H         LINE#         72
 C1:D8B4H         LINE#         74
 C1:D8B6H         LINE#         76
 C1:D8B9H         LINE#         77
  -------         ENDPROC       INIT_ISPTASK

  -------         PROC BANK=1   ISP_INTERINIT
  -------         DO            
  X:0A72H         SYMBOL        count
  X:0A74H         SYMBOL        ret
  -------         ENDDO         
 C1:D081H         LINE#         111
 C1:D081H         LINE#         112
 C1:D081H         LINE#         113
 C1:D088H         LINE#         114
 C1:D08AH         LINE#         116
 C1:D08FH         LINE#         118
 C1:D094H         LINE#         119
 C1:D099H         LINE#         120
BL51 BANKED LINKER/LOCATER V6.22                                                      11/17/2023  15:14:24  PAGE 90


 C1:D09FH         LINE#         121
 C1:D0A5H         LINE#         123
 C1:D0A8H         LINE#         125
 C1:D0B6H         LINE#         126
 C1:D0C4H         LINE#         128
 C1:D0CFH         LINE#         130
 C1:D0D4H         LINE#         131
 C1:D0DBH         LINE#         133
 C1:D0E2H         LINE#         134
 C1:D0E2H         LINE#         135
 C1:D0EFH         LINE#         136
 C1:D0F6H         LINE#         137
 C1:D0F6H         LINE#         139
 C1:D0FDH         LINE#         141
 C1:D104H         LINE#         142
 C1:D107H         LINE#         143
 C1:D110H         LINE#         144
 C1:D119H         LINE#         145
 C1:D122H         LINE#         146
 C1:D12BH         LINE#         148
  -------         ENDPROC       ISP_INTERINIT

  -------         PROC BANK=1   OPERATE_ISPTASK
  -------         DO            
  D:0007H         SYMBOL        On_Time
  X:0B34H         SYMBOL        ret
  -------         ENDDO         
 C1:C596H         LINE#         150
 C1:C596H         LINE#         151
 C1:C596H         LINE#         155
 C1:C59EH         LINE#         156
 C1:C59EH         LINE#         157
 C1:C59FH         LINE#         159
 C1:C5ADH         LINE#         160
 C1:C5BBH         LINE#         162
 C1:C5C6H         LINE#         163
 C1:C5C6H         LINE#         165
 C1:C5D3H         LINE#         166
 C1:C5D3H         LINE#         167
 C1:C5D9H         LINE#         168
 C1:C5DFH         LINE#         169
 C1:C5E6H         LINE#         170
 C1:C5E6H         LINE#         172
 C1:C5E9H         LINE#         173
 C1:C601H         LINE#         174
 C1:C601H         LINE#         175
 C1:C609H         LINE#         176
 C1:C611H         LINE#         178
 C1:C61EH         LINE#         179
 C1:C61EH         LINE#         180
 C1:C626H         LINE#         181
 C1:C626H         LINE#         182
 C1:C62EH         LINE#         183
 C1:C636H         LINE#         184
 C1:C636H         LINE#         186
 C1:C63EH         LINE#         187
 C1:C63EH         LINE#         188
BL51 BANKED LINKER/LOCATER V6.22                                                      11/17/2023  15:14:24  PAGE 91


 C1:C645H         LINE#         189
 C1:C645H         LINE#         190
 C1:C648H         LINE#         191
 C1:C64AH         LINE#         193
 C1:C64AH         LINE#         194
 C1:C64DH         LINE#         195
 C1:C64DH         LINE#         196
 C1:C64DH         LINE#         198
 C1:C652H         LINE#         199
 C1:C657H         LINE#         200
 C1:C657H         LINE#         201
 C1:C65FH         LINE#         202
 C1:C661H         LINE#         203
 C1:C661H         LINE#         204
 C1:C666H         LINE#         205
 C1:C66BH         LINE#         206
 C1:C66CH         LINE#         207
 C1:C673H         LINE#         208
 C1:C673H         LINE#         209
 C1:C679H         LINE#         210
 C1:C67EH         LINE#         211
 C1:C67FH         LINE#         213
 C1:C67FH         LINE#         214
 C1:C684H         LINE#         215
 C1:C684H         LINE#         216
 C1:C684H         LINE#         217
  -------         ENDPROC       OPERATE_ISPTASK

  -------         PROC BANK=1   ISP_PARKING_ASSIST_VIEW
  -------         DO            
  X:09D9H         SYMBOL        Sas_Data
  X:09DBH         SYMBOL        HU_Type_Data
  X:09DCH         SYMBOL        Language_Data
  D:0007H         SYMBOL        On_Time
  X:09DDH         SYMBOL        ret
  X:0706H         SYMBOL        overlay_flag
  -------         ENDDO         
 C1:BEDCH         LINE#         219
 C1:BEDCH         LINE#         220
 C1:BEDCH         LINE#         221
 C1:BEEFH         LINE#         222
 C1:BEF4H         LINE#         223
 C1:BEF6H         LINE#         229
 C1:BF01H         LINE#         230
 C1:BF01H         LINE#         231
 C1:BF06H         LINE#         232
 C1:BF0EH         LINE#         233
 C1:BF0EH         LINE#         234
 C1:BF14H         LINE#         235
 C1:BF14H         LINE#         236
 C1:BF22H         LINE#         237
 C1:BF2AH         LINE#         238
 C1:BF32H         LINE#         239
 C1:BF34H         LINE#         241
 C1:BF34H         LINE#         242
 C1:BF39H         LINE#         243
 C1:BF3DH         LINE#         244
BL51 BANKED LINKER/LOCATER V6.22                                                      11/17/2023  15:14:24  PAGE 92


 C1:BF3FH         LINE#         245
 C1:BF3FH         LINE#         247
 C1:BF46H         LINE#         248
 C1:BF46H         LINE#         249
 C1:BF4BH         LINE#         251
 C1:BF51H         LINE#         252
 C1:BF53H         LINE#         253
 C1:BF5AH         LINE#         254
 C1:BF5AH         LINE#         255
 C1:BF61H         LINE#         256
 C1:BF61H         LINE#         257
 C1:BF6CH         LINE#         259
 C1:BF6CH         LINE#         260
 C1:BF71H         LINE#         261
 C1:BF73H         LINE#         263
 C1:BF73H         LINE#         264
 C1:BF80H         LINE#         265
 C1:BF86H         LINE#         266
 C1:BF86H         LINE#         267
 C1:BF86H         LINE#         268
 C1:BF88H         LINE#         270
 C1:BF88H         LINE#         271
 C1:BF8FH         LINE#         272
 C1:BF8FH         LINE#         274
 C1:BF95H         LINE#         275
 C1:BF95H         LINE#         276
 C1:BFA4H         LINE#         277
 C1:BFA4H         LINE#         278
 C1:BFA9H         LINE#         279
 C1:BFADH         LINE#         280
 C1:BFB5H         LINE#         281
 C1:BFB5H         LINE#         282
 C1:BFB8H         LINE#         283
 C1:BFB8H         LINE#         284
 C1:BFC5H         LINE#         285
 C1:BFCCH         LINE#         286
 C1:BFCCH         LINE#         288
 C1:BFD3H         LINE#         289
 C1:BFD3H         LINE#         290
 C1:BFD5H         LINE#         291
 C1:BFD5H         LINE#         292
 C1:BFD5H         LINE#         293
  -------         ENDPROC       ISP_PARKING_ASSIST_VIEW

  -------         PROC BANK=1   ISP_DRIVING_ASSIST_VIEW
  -------         DO            
  X:0707H         SYMBOL        overlay_flag
  D:0007H         SYMBOL        On_Time
  -------         ENDDO         
 C1:F33BH         LINE#         295
 C1:F33BH         LINE#         296
 C1:F33BH         LINE#         300
 C1:F340H         LINE#         301
 C1:F344H         LINE#         302
 C1:F344H         LINE#         303
 C1:F34DH         LINE#         304
 C1:F34DH         LINE#         305
BL51 BANKED LINKER/LOCATER V6.22                                                      11/17/2023  15:14:24  PAGE 93


 C1:F352H         LINE#         306
 C1:F357H         LINE#         307
 C1:F357H         LINE#         309
 C1:F35DH         LINE#         310
 C1:F35DH         LINE#         311
  -------         ENDPROC       ISP_DRIVING_ASSIST_VIEW

  -------         PROC BANK=1   _ISP_VIEW_MODE_CHANGE
  X:0AFAH         SYMBOL        ViewMode
  -------         DO            
  X:0708H         SYMBOL        read_data
  X:070AH         SYMBOL        chk_Buffer
  X:0AFBH         SYMBOL        i
  -------         ENDDO         
 C1:8CF0H         LINE#         313
 C1:8CF5H         LINE#         314
 C1:8CF5H         LINE#         316
 C1:8CF8H         LINE#         318
 C1:8CFBH         LINE#         322
 C1:8D10H         LINE#         323
 C1:8D29H         LINE#         324
 C1:8D41H         LINE#         325
 C1:8D5AH         LINE#         326
 C1:8D5DH         LINE#         329
 C1:8D68H         LINE#         330
 C1:8D68H         LINE#         331
 C1:8D7EH         LINE#         332
 C1:8D94H         LINE#         333
 C1:8DADH         LINE#         334
 C1:8DB0H         LINE#         335
 C1:8DC7H         LINE#         336
 C1:8DDDH         LINE#         337
 C1:8DF6H         LINE#         338
 C1:8DF9H         LINE#         341
 C1:8E17H         LINE#         342
 C1:8E1AH         LINE#         343
 C1:8E1AH         LINE#         344
 C1:8E31H         LINE#         345
 C1:8E47H         LINE#         346
 C1:8E60H         LINE#         347
 C1:8E63H         LINE#         348
 C1:8E63H         LINE#         349
 C1:8E81H         LINE#         350
 C1:8E84H         LINE#         351
 C1:8E84H         LINE#         352
 C1:8E9BH         LINE#         353
 C1:8EB1H         LINE#         354
 C1:8ECAH         LINE#         355
 C1:8ECDH         LINE#         356
 C1:8ECDH         LINE#         357
 C1:8ECDH         LINE#         360
 C1:8ED4H         LINE#         361
 C1:8ED4H         LINE#         362
 C1:8ED9H         LINE#         363
 C1:8EDBH         LINE#         365
 C1:8EDBH         LINE#         366
 C1:8EE0H         LINE#         367
BL51 BANKED LINKER/LOCATER V6.22                                                      11/17/2023  15:14:24  PAGE 94


 C1:8EE7H         LINE#         368
 C1:8EE7H         LINE#         369
 C1:8EF4H         LINE#         370
 C1:8EF4H         LINE#         371
 C1:8EF4H         LINE#         374
 C1:8F0CH         LINE#         375
 C1:8F13H         LINE#         376
 C1:8F13H         LINE#         377
 C1:8F2AH         LINE#         378
 C1:8F2CH         LINE#         380
 C1:8F2CH         LINE#         381
 C1:8F41H         LINE#         382
 C1:8F41H         LINE#         383
 C1:8F5AH         LINE#         385
 C1:8F5DH         LINE#         386
 C1:8F5DH         LINE#         387
 C1:8F5DH         LINE#         388
 C1:8F76H         LINE#         389
 C1:8F7DH         LINE#         390
 C1:8F9AH         LINE#         391
 C1:8F9FH         LINE#         392
 C1:8F9FH         LINE#         393
 C1:8F9FH         LINE#         394
 C1:8F9FH         LINE#         395
 C1:8FA2H         LINE#         396
 C1:8FA4H         LINE#         399
 C1:8FBBH         LINE#         400
 C1:8FD2H         LINE#         401
 C1:8FD5H         LINE#         402
 C1:8FECH         LINE#         403
 C1:9003H         LINE#         404
 C1:9006H         LINE#         405
 C1:901FH         LINE#         408
 C1:9034H         LINE#         409
 C1:904AH         LINE#         410
 C1:9063H         LINE#         411
 C1:9066H         LINE#         413
 C1:9084H         LINE#         414
 C1:9087H         LINE#         415
 C1:9087H         LINE#         416
 C1:909CH         LINE#         417
 C1:90B2H         LINE#         418
 C1:90CBH         LINE#         419
 C1:90CEH         LINE#         420
 C1:90CEH         LINE#         424
 C1:90DEH         LINE#         425
 C1:90DEH         LINE#         426
 C1:90ECH         LINE#         427
 C1:90F4H         LINE#         428
  -------         ENDPROC       _ISP_VIEW_MODE_CHANGE

  -------         PROC BANK=1   V_STB_CHECK
  -------         DO            
  D:0007H         SYMBOL        ret
  X:070CH         SYMBOL        v_stb_error_count
  X:070DH         SYMBOL        v_stb_nomal_count
  -------         ENDDO         
BL51 BANKED LINKER/LOCATER V6.22                                                      11/17/2023  15:14:24  PAGE 95


 C1:EC75H         LINE#         430
 C1:EC75H         LINE#         431
 C1:EC75H         LINE#         432
 C1:EC77H         LINE#         436
 C1:EC7BH         LINE#         437
 C1:EC7EH         LINE#         438
 C1:EC7EH         LINE#         439
 C1:EC83H         LINE#         440
 C1:EC89H         LINE#         441
 C1:EC8FH         LINE#         442
 C1:EC8FH         LINE#         443
 C1:EC94H         LINE#         444
 C1:EC99H         LINE#         445
 C1:EC99H         LINE#         446
 C1:EC9AH         LINE#         448
 C1:EC9AH         LINE#         449
 C1:EC9FH         LINE#         450
 C1:ECA3H         LINE#         451
 C1:ECA9H         LINE#         452
 C1:ECA9H         LINE#         453
 C1:ECAEH         LINE#         454
 C1:ECB3H         LINE#         455
 C1:ECB3H         LINE#         456
 C1:ECB3H         LINE#         457
  -------         ENDPROC       V_STB_CHECK

  -------         PROC BANK=1   CHECK_ISP_INITSTATE
  -------         DO            
  X:070EH         SYMBOL        chk_data
  X:0710H         SYMBOL        lpcn
  X:0B35H         SYMBOL        Ret_State
  -------         ENDDO         
 C1:D31CH         LINE#         459
 C1:D31CH         LINE#         460
 C1:D31CH         LINE#         464
 C1:D321H         LINE#         465
 C1:D325H         LINE#         466
 C1:D33EH         LINE#         467
 C1:D33EH         LINE#         468
 C1:D33EH         LINE#         469
 C1:D35BH         LINE#         470
 C1:D35FH         LINE#         471
 C1:D35FH         LINE#         472
 C1:D37CH         LINE#         473
 C1:D37FH         LINE#         474
 C1:D383H         LINE#         475
 C1:D396H         LINE#         476
 C1:D396H         LINE#         477
 C1:D39CH         LINE#         478
 C1:D39CH         LINE#         479
 C1:D3A1H         LINE#         480
 C1:D3A3H         LINE#         482
 C1:D3A3H         LINE#         483
 C1:D3A8H         LINE#         484
 C1:D3A8H         LINE#         485
 C1:D3AAH         LINE#         486
 C1:D3AAH         LINE#         487
BL51 BANKED LINKER/LOCATER V6.22                                                      11/17/2023  15:14:24  PAGE 96


 C1:D3B1H         LINE#         488
 C1:D3B1H         LINE#         490
 C1:D3B3H         LINE#         491
 C1:D3B8H         LINE#         492
  -------         ENDPROC       CHECK_ISP_INITSTATE

  -------         PROC BANK=1   FRAME_COUNT_CHECK
  -------         DO            
  X:0711H         SYMBOL        Cur_FC_Data
  X:0713H         SYMBOL        Pre_FC_Data
  -------         ENDDO         
 C1:EBB5H         LINE#         494
 C1:EBB5H         LINE#         495
 C1:EBB5H         LINE#         499
 C1:EBD3H         LINE#         501
 C1:EBDDH         LINE#         502
 C1:EBDDH         LINE#         503
 C1:EBE2H         LINE#         504
 C1:EBE3H         LINE#         506
 C1:EBE3H         LINE#         507
 C1:EBE8H         LINE#         508
 C1:EBF5H         LINE#         509
 C1:EBF5H         LINE#         510
  -------         ENDPROC       FRAME_COUNT_CHECK

  -------         PROC BANK=1   FRAME_VALIDE_CHECK
  -------         DO            
  X:0B36H         SYMBOL        Frame_value
  -------         ENDDO         
 C1:F2CFH         LINE#         512
 C1:F2CFH         LINE#         513
 C1:F2CFH         LINE#         514
 C1:F2D4H         LINE#         515
 C1:F2DCH         LINE#         517
 C1:F2E7H         LINE#         518
 C1:F2E7H         LINE#         519
 C1:F2ECH         LINE#         520
 C1:F2EDH         LINE#         522
 C1:F2EDH         LINE#         523
 C1:F2F2H         LINE#         524
 C1:F2F2H         LINE#         525
  -------         ENDPROC       FRAME_VALIDE_CHECK

  -------         PROC BANK=1   VIDEO_SIGNAL_CHECK
  -------         DO            
  X:0B37H         SYMBOL        ret
  X:0715H         SYMBOL        video_error_count
  X:0716H         SYMBOL        video_nomal_count
  -------         ENDDO         
 C1:EAA8H         LINE#         527
 C1:EAA8H         LINE#         528
 C1:EAA8H         LINE#         529
 C1:EAAEH         LINE#         534
 C1:EAB6H         LINE#         535
 C1:EAB8H         LINE#         536
 C1:EAB8H         LINE#         537
 C1:EABCH         LINE#         538
BL51 BANKED LINKER/LOCATER V6.22                                                      11/17/2023  15:14:24  PAGE 97


 C1:EAC2H         LINE#         539
 C1:EAC8H         LINE#         540
 C1:EAC8H         LINE#         541
 C1:EACDH         LINE#         542
 C1:EAD2H         LINE#         543
 C1:EAD2H         LINE#         544
 C1:EAD3H         LINE#         546
 C1:EAD3H         LINE#         547
 C1:EAD8H         LINE#         548
 C1:EADCH         LINE#         549
 C1:EAE2H         LINE#         550
 C1:EAE2H         LINE#         551
 C1:EAE7H         LINE#         552
 C1:EAECH         LINE#         553
 C1:EAECH         LINE#         554
 C1:EAECH         LINE#         555
  -------         ENDPROC       VIDEO_SIGNAL_CHECK

  -------         PROC BANK=1   DOORBELLCHECK
  -------         DO            
  X:0B38H         SYMBOL        On_Time
  D:0010H         SYMBOL        chk_data
  D:0012H         SYMBOL        lpcnt
  -------         ENDDO         
 C1:E7F7H         LINE#         557
 C1:E7F7H         LINE#         558
 C1:E7F7H         LINE#         559
 C1:E7FCH         LINE#         560
 C1:E801H         LINE#         561
 C1:E803H         LINE#         563
 C1:E80BH         LINE#         565
 C1:E80BH         LINE#         566
 C1:E815H         LINE#         567
 C1:E818H         LINE#         568
 C1:E818H         LINE#         569
 C1:E81AH         LINE#         571
 C1:E833H         LINE#         572
 C1:E836H         LINE#         573
 C1:E836H         LINE#         574
 C1:E836H         LINE#         575
 C1:E842H         LINE#         577
 C1:E847H         LINE#         578
  -------         ENDPROC       DOORBELLCHECK

  -------         PROC BANK=1   _OVERLAY_GUIDELINE
  X:0A75H         SYMBOL        steering_cur
  X:0A77H         SYMBOL        sign
  -------         DO            
  D:0019H         SYMBOL        read_data
  -------         ENDDO         
 C1:BFD6H         LINE#         580
 C1:BFE1H         LINE#         581
 C1:BFE1H         LINE#         582
 C1:BFE6H         LINE#         585
 C1:BFE9H         LINE#         587
 C1:BFEFH         LINE#         588
 C1:BFEFH         LINE#         589
BL51 BANKED LINKER/LOCATER V6.22                                                      11/17/2023  15:14:24  PAGE 98


 C1:C004H         LINE#         590
 C1:C004H         LINE#         592
 C1:C012H         LINE#         594
 C1:C018H         LINE#         596
 C1:C02FH         LINE#         597
 C1:C035H         LINE#         598
 C1:C037H         LINE#         599
 C1:C037H         LINE#         601
 C1:C04FH         LINE#         602
 C1:C054H         LINE#         603
 C1:C054H         LINE#         605
 C1:C073H         LINE#         606
 C1:C07AH         LINE#         607
 C1:C07AH         LINE#         608
 C1:C092H         LINE#         609
 C1:C094H         LINE#         611
 C1:C094H         LINE#         612
 C1:C0AAH         LINE#         613
 C1:C0AAH         LINE#         614
 C1:C0ADH         LINE#         615
 C1:C0C6H         LINE#         616
 C1:C0CBH         LINE#         619
 C1:C0CEH         LINE#         620
  -------         ENDPROC       _OVERLAY_GUIDELINE

  -------         PROC BANK=1   CHECKCOMMANDSTATUSLOOP
  -------         DO            
  X:0717H         SYMBOL        chk_data
  X:0719H         SYMBOL        lpcnt
  X:0B39H         SYMBOL        ret
  -------         ENDDO         
 C1:E037H         LINE#         625
 C1:E037H         LINE#         626
 C1:E037H         LINE#         629
 C1:E03DH         LINE#         631
 C1:E043H         LINE#         633
 C1:E060H         LINE#         634
 C1:E064H         LINE#         635
 C1:E064H         LINE#         636
 C1:E06AH         LINE#         637
 C1:E06FH         LINE#         638
 C1:E074H         LINE#         639
 C1:E077H         LINE#         640
 C1:E079H         LINE#         642
 C1:E079H         LINE#         643
 C1:E082H         LINE#         644
 C1:E082H         LINE#         646
 C1:E085H         LINE#         648
 C1:E08AH         LINE#         649
 C1:E08EH         LINE#         650
 C1:E093H         LINE#         651
 C1:E095H         LINE#         653
 C1:E095H         LINE#         654
 C1:E09BH         LINE#         655
 C1:E09BH         LINE#         656
 C1:E09BH         LINE#         657
 C1:E0A0H         LINE#         658
BL51 BANKED LINKER/LOCATER V6.22                                                      11/17/2023  15:14:24  PAGE 99


  -------         ENDPROC       CHECKCOMMANDSTATUSLOOP

  -------         PROC BANK=1   GUIDLINE_OFF
 C1:EE76H         LINE#         660
 C1:EE76H         LINE#         661
 C1:EE76H         LINE#         662
 C1:EE8CH         LINE#         663
 C1:EEA5H         LINE#         664
 C1:EEAAH         LINE#         665
  -------         ENDPROC       GUIDLINE_OFF

  -------         PROC BANK=1   GUIDLINE_ON
 C1:ED62H         LINE#         667
 C1:ED62H         LINE#         668
 C1:ED62H         LINE#         669
 C1:ED7AH         LINE#         670
 C1:ED93H         LINE#         671
 C1:ED99H         LINE#         672
  -------         ENDPROC       GUIDLINE_ON

  -------         PROC BANK=1   ISP_OFF
 C1:FDAAH         LINE#         674
 C1:FDAAH         LINE#         675
 C1:FDAAH         LINE#         676
 C1:FDACH         LINE#         677
  -------         ENDPROC       ISP_OFF

  -------         PROC BANK=1   ISP_ON
 C1:FD79H         LINE#         679
 C1:FD79H         LINE#         680
 C1:FD79H         LINE#         681
 C1:FD7CH         LINE#         682
  -------         ENDPROC       ISP_ON

  -------         PROC BANK=1   _FIXED_GUIDLINE_ON
  X:0B3AH         SYMBOL        ViewMode
  -------         DO            
  X:071AH         SYMBOL        overlay_buffer_flag
  -------         ENDDO         
 C1:C761H         LINE#         684
 C1:C766H         LINE#         685
 C1:C766H         LINE#         688
 C1:C769H         LINE#         690
 C1:C76FH         LINE#         691
 C1:C76FH         LINE#         692
 C1:C787H         LINE#         693
 C1:C78DH         LINE#         694
 C1:C78FH         LINE#         696
 C1:C78FH         LINE#         697
 C1:C7A8H         LINE#         698
 C1:C7ADH         LINE#         699
 C1:C7ADH         LINE#         700
 C1:C7B4H         LINE#         701
 C1:C7B4H         LINE#         702
 C1:C7CDH         LINE#         703
 C1:C7CFH         LINE#         705
 C1:C7CFH         LINE#         706
BL51 BANKED LINKER/LOCATER V6.22                                                      11/17/2023  15:14:24  PAGE 100


 C1:C7E8H         LINE#         707
 C1:C7E8H         LINE#         708
 C1:C7EFH         LINE#         709
 C1:C7EFH         LINE#         710
 C1:C807H         LINE#         711
 C1:C809H         LINE#         713
 C1:C809H         LINE#         714
 C1:C81FH         LINE#         715
 C1:C81FH         LINE#         716
 C1:C838H         LINE#         718
 C1:C83BH         LINE#         719
  -------         ENDPROC       _FIXED_GUIDLINE_ON

  -------         PROC BANK=1   FIXED_GUIDLINE_OFF
 C1:EF70H         LINE#         721
 C1:EF70H         LINE#         722
 C1:EF70H         LINE#         723
 C1:EF86H         LINE#         724
 C1:EF9FH         LINE#         725
  -------         ENDPROC       FIXED_GUIDLINE_OFF

  -------         PROC BANK=1   _WARNING_MSG
  X:0A78H         SYMBOL        hutype
  X:0A79H         SYMBOL        Lang
  -------         DO            
  X:071BH         SYMBOL        lan_start_addr
  X:071DH         SYMBOL        Pre_Lang
  D:001BH         SYMBOL        read_data
  X:0A7AH         SYMBOL        ret
  -------         ENDDO         
 C1:B547H         LINE#         727
 C1:B54FH         LINE#         728
 C1:B54FH         LINE#         731
 C1:B554H         LINE#         732
 C1:B556H         LINE#         734
 C1:B559H         LINE#         736
 C1:B58DH         LINE#         738
 C1:B58DH         LINE#         739
 C1:B592H         LINE#         740
 C1:B594H         LINE#         742
 C1:B594H         LINE#         743
 C1:B59AH         LINE#         744
 C1:B59AH         LINE#         746
 C1:B5A2H         LINE#         747
 C1:B5A2H         LINE#         748
 C1:B5A5H         LINE#         749
 C1:B5A5H         LINE#         751
 C1:B5ACH         LINE#         752
 C1:B5ACH         LINE#         753
 C1:B5B0H         LINE#         754
 C1:B5B0H         LINE#         755
 C1:B5BAH         LINE#         756
 C1:B5BCH         LINE#         758
 C1:B5BCH         LINE#         759
 C1:B5C9H         LINE#         760
 C1:B5C9H         LINE#         761
 C1:B5CBH         LINE#         763
BL51 BANKED LINKER/LOCATER V6.22                                                      11/17/2023  15:14:24  PAGE 101


 C1:B5CBH         LINE#         764
 C1:B5D1H         LINE#         765
 C1:B5D1H         LINE#         767
 C1:B5DEH         LINE#         769
 C1:B5E4H         LINE#         770
 C1:B5E4H         LINE#         771
 C1:B5FDH         LINE#         772
 C1:B603H         LINE#         773
 C1:B605H         LINE#         775
 C1:B605H         LINE#         776
 C1:B61CH         LINE#         777
 C1:B621H         LINE#         778
 C1:B621H         LINE#         779
 C1:B63EH         LINE#         780
 C1:B645H         LINE#         781
 C1:B645H         LINE#         782
 C1:B65DH         LINE#         783
 C1:B65DH         LINE#         784
 C1:B676H         LINE#         786
 C1:B679H         LINE#         787
  -------         ENDPROC       _WARNING_MSG

  -------         PROC BANK=1   _SENSOR_XY_OFFSET_SET
  D:0007H         SYMBOL        x
  D:0005H         SYMBOL        y
  -------         DO            
  D:001DH         SYMBOL        read_data
  X:0AFCH         SYMBOL        write_data
  -------         ENDDO         
 C1:B9D4H         LINE#         789
 C1:B9D4H         LINE#         790
 C1:B9D4H         LINE#         791
 C1:B9D9H         LINE#         792
 C1:B9DFH         LINE#         794
 C1:B9EAH         LINE#         796
 C1:B9EDH         LINE#         798
 C1:B9EDH         LINE#         799
 C1:B9EDH         LINE#         800
 C1:BA06H         LINE#         801
 C1:BA0DH         LINE#         802
 C1:BA26H         LINE#         803
 C1:BA2EH         LINE#         804
 C1:BA2EH         LINE#         805
 C1:BA2EH         LINE#         806
 C1:BA2EH         LINE#         807
 C1:BA31H         LINE#         808
 C1:BA33H         LINE#         810
 C1:BA4DH         LINE#         811
 C1:BA6CH         LINE#         813
 C1:BA83H         LINE#         814
 C1:BA9AH         LINE#         815
 C1:BAB1H         LINE#         816
 C1:BAC8H         LINE#         817
 C1:BAE1H         LINE#         819
 C1:BAE4H         LINE#         820
  -------         ENDPROC       _SENSOR_XY_OFFSET_SET

BL51 BANKED LINKER/LOCATER V6.22                                                      11/17/2023  15:14:24  PAGE 102


  -------         PROC BANK=1   _ISP_GUIDE_ON_OFF
  D:0007H         SYMBOL        Guide_On_Off
 C1:FCFAH         LINE#         822
 C1:FCFAH         LINE#         823
 C1:FCFAH         LINE#         824
 C1:FCFFH         LINE#         825
  -------         ENDPROC       _ISP_GUIDE_ON_OFF
  -------         ENDMOD        MGR_ISP

  -------         MODULE        DRV_ADC
  C:0000H         SYMBOL        _ICE_DUMMY_
  D:00A7H         PUBLIC        SFRPAGE
  D:00BBH         PUBLIC        ADC0MX
  D:00BCH         PUBLIC        ADC0CF
  D:00D1H         PUBLIC        REF0CN
  D:00E6H         PUBLIC        EIE1
  D:00E8H         PUBLIC        ADC0CN
  B:00E8H.7       PUBLIC        AD0EN
 C1:F4AFH         PUBLIC        ADC_Init
 C1:F735H         PUBLIC        Get_Video_Signal
 C1:FD00H         PUBLIC        Get_Temperature
  X:0A7BH         PUBLIC        RESULT
  X:0A7DH         PUBLIC        Temperature

  -------         PROC BANK=1   ADC_INIT
  -------         DO            
  D:0007H         SYMBOL        SFRPAGE_save
  -------         ENDDO         
 C1:F4AFH         LINE#         14
 C1:F4AFH         LINE#         15
 C1:F4AFH         LINE#         16
 C1:F4B1H         LINE#         18
 C1:F4B8H         LINE#         19
 C1:F4BAH         LINE#         42
 C1:F4BDH         LINE#         46
 C1:F4C0H         LINE#         47
 C1:F4C3H         LINE#         49
 C1:F4C6H         LINE#         51
 C1:F4C9H         LINE#         53
 C1:F4CBH         LINE#         55
 C1:F4CDH         LINE#         56
  -------         ENDPROC       ADC_INIT

  -------         PROC BANK=1   GET_VIDEO_SIGNAL
  -------         DO            
  D:0007H         SYMBOL        ret
  -------         ENDDO         
 C1:F735H         LINE#         58
 C1:F735H         LINE#         59
 C1:F735H         LINE#         61
 C1:F744H         LINE#         62
 C1:F744H         LINE#         63
 C1:F746H         LINE#         64
 C1:F748H         LINE#         66
 C1:F748H         LINE#         67
 C1:F74AH         LINE#         68
 C1:F74AH         LINE#         69
BL51 BANKED LINKER/LOCATER V6.22                                                      11/17/2023  15:14:24  PAGE 103


 C1:F74AH         LINE#         70
  -------         ENDPROC       GET_VIDEO_SIGNAL

  -------         PROC BANK=1   GET_TEMPERATURE
 C1:FD00H         LINE#         72
 C1:FD00H         LINE#         73
 C1:FD00H         LINE#         74
 C1:FD05H         LINE#         75
  -------         ENDPROC       GET_TEMPERATURE
  -------         ENDMOD        DRV_ADC

  -------         MODULE        F50X_TARGET_CAM_INFOBLOCK
  C:0000H         SYMBOL        _ICE_DUMMY_
 C1:FFF0H         PUBLIC        CAMINFOBLOCK
  -------         ENDMOD        F50X_TARGET_CAM_INFOBLOCK

  -------         MODULE        CAN_DRV
  C:0000H         SYMBOL        _ICE_DUMMY_
  D:00A8H         PUBLIC        VSTDLIB_IE
  B:00A8H.7       PUBLIC        VSTDLIB_EA
  C:72F8H         PUBLIC        kCanMainVersion
  C:72F9H         PUBLIC        kCanSubVersion
  C:72FAH         PUBLIC        kCanBugFixVersion
  X:05E7H         PUBLIC        canRxHandle
  I:004FH         PUBLIC        CanConfirmationFlags
  X:05E9H         PUBLIC        canRDSRxPtr
  X:05ECH         PUBLIC        canRDSTxPtr
  C:6E6BH         PUBLIC        CanInitPowerOn
  C:5A6DH         PUBLIC        _CanInit
  C:5CDAH         PUBLIC        _?CanTransmit
  C:69A0H         PUBLIC        _CanCancelTransmit
  C:72FBH         PUBLIC        CanOnline
  C:7225H         PUBLIC        _?CanOffline
  C:7315H         PUBLIC        _CanSetPartOffline
  C:732EH         PUBLIC        _CanSetPartOnline
  C:73ACH         PUBLIC        CanGetPartMode
  C:54F8H         PUBLIC        _?CanGetStatus
  C:735FH         PUBLIC        CanSleep
  C:73BEH         PUBLIC        CanWakeUp
  C:4016H         PUBLIC        CanStart
  C:7254H         PUBLIC        CanStop
  C:6DD3H         PUBLIC        _?CanCanInterruptDisable
  C:6F00H         PUBLIC        _?CanCanInterruptRestore
  C:70E5H         PUBLIC        _?CanTxGetActHandle
  C:7158H         PUBLIC        _?CanRxActualErrorCounter
  C:718DH         PUBLIC        _?CanTxActualErrorCounter
  C:70A4H         PUBLIC        _?CanLL_HwIsStop
  C:6F4AH         PUBLIC        _?CanLL_HwIsPassive
  C:6F91H         PUBLIC        _?CanLL_HwIsWarning
  D:00E7H         PUBLIC        EIE2
  D:00A7H         PUBLIC        SFRPAGE
  D:0094H         PUBLIC        CAN0STAT
  D:0096H         PUBLIC        CAN0ERRL
  D:0097H         PUBLIC        CAN0ERRH
  D:009AH         PUBLIC        CAN0BTL
  D:009BH         PUBLIC        CAN0BTH
  D:009CH         PUBLIC        CAN0IIDL
BL51 BANKED LINKER/LOCATER V6.22                                                      11/17/2023  15:14:24  PAGE 104


  D:009DH         PUBLIC        CAN0IIDH
  D:009EH         PUBLIC        CAN0TST
  D:00A1H         PUBLIC        CAN0BRPE
  D:00A2H         PUBLIC        CAN0TR1L
  D:00A3H         PUBLIC        CAN0TR1H
  D:00A4H         PUBLIC        CAN0TR2L
  D:00A5H         PUBLIC        CAN0TR2H
  D:00BEH         PUBLIC        CAN0IF1CRL
  D:00BFH         PUBLIC        CAN0IF1CRH
  D:00C0H         PUBLIC        CAN0CN
  D:00C2H         PUBLIC        CAN0IF1CML
  D:00C3H         PUBLIC        CAN0IF1CMH
  D:00C4H         PUBLIC        CAN0IF1M1L
  D:00C5H         PUBLIC        CAN0IF1M1H
  D:00C6H         PUBLIC        CAN0IF1M2L
  D:00C7H         PUBLIC        CAN0IF1M2H
  D:00CAH         PUBLIC        CAN0IF1A1L
  D:00CBH         PUBLIC        CAN0IF1A1H
  D:00CCH         PUBLIC        CAN0IF1A2L
  D:00CDH         PUBLIC        CAN0IF1A2H
  D:00CEH         PUBLIC        CAN0IF2MCL
  D:00CFH         PUBLIC        CAN0IF2MCH
  D:00D2H         PUBLIC        CAN0IF1MCL
  D:00D3H         PUBLIC        CAN0IF1MCH
  D:00D4H         PUBLIC        CAN0IF1DA1L
  D:00D5H         PUBLIC        CAN0IF1DA1H
  D:00D6H         PUBLIC        CAN0IF1DA2L
  D:00D7H         PUBLIC        CAN0IF1DA2H
  D:00DAH         PUBLIC        CAN0IF1DB1L
  D:00DBH         PUBLIC        CAN0IF1DB1H
  D:00DCH         PUBLIC        CAN0IF1DB2L
  D:00DDH         PUBLIC        CAN0IF1DB2H
  D:00DEH         PUBLIC        CAN0IF2CRL
  D:00DFH         PUBLIC        CAN0IF2CRH
  D:00E2H         PUBLIC        CAN0IF2CML
  D:00E3H         PUBLIC        CAN0IF2CMH
  D:00F2H         PUBLIC        CAN0IF2A2L
  D:00F3H         PUBLIC        CAN0IF2A2H
  D:00F6H         PUBLIC        CAN0IF2DA1L
  D:00F7H         PUBLIC        CAN0IF2DA1H
  D:00FAH         PUBLIC        CAN0IF2DA2L
  D:00FBH         PUBLIC        CAN0IF2DA2H
  D:00FCH         PUBLIC        CAN0IF2DB1L
  D:00FDH         PUBLIC        CAN0IF2DB1H
  D:00FEH         PUBLIC        CAN0IF2DB2L
  D:00FFH         PUBLIC        CAN0IF2DB2H
  C:72E0H         SYMBOL        CanShiftLookUp
  C:72E8H         SYMBOL        CanGetHighestFlagFromNibble
  X:05F5H         PUBLIC        txMsgObj
  X:061FH         PUBLIC        rxMsgObj
  X:062FH         SYMBOL        canHandleCurTxObj
  X:0635H         SYMBOL        canStatus
  X:0636H         SYMBOL        canTxPartOffline
  X:0637H         SYMBOL        canCanInterruptCounter
  X:0638H         SYMBOL        canCanInterruptOldStatus
  X:0639H         SYMBOL        lastInitObject
  X:063AH         SYMBOL        canRxInfoStruct
BL51 BANKED LINKER/LOCATER V6.22                                                      11/17/2023  15:14:24  PAGE 105


  X:0643H         SYMBOL        canTxQueueFlags
  X:0644H         SYMBOL        canllStatus
  X:0646H         SYMBOL        status_busoff
  X:0648H         SYMBOL        txsendflag
  C:60A9H         SYMBOL        CanHL_ReceivedRxHandle
  C:71F6H         SYMBOL        _CanHL_IndRxHandle
  C:64FDH         SYMBOL        _CanFullCanMsgReceived
  C:57F2H         SYMBOL        _CanHL_TxConfirmation
  C:48D0H         SYMBOL        _?CanCopyDataAndStartTransmission
  C:6644H         SYMBOL        _?CanDelQueuedObj
  C:7121H         SYMBOL        CanHL_ErrorHandling
  C:5433H         SYMBOL        Can_CellIsr
  C:71C2H         SYMBOL        _CanLL_HandleIllIrptNumber
  C:6B45H         SYMBOL        _CanLL_TxIsHWObjFree
  C:72C5H         PUBLIC        CanIsr_0
  -------         PROC          _CANLL_TXISHWOBJFREE
  X:0000H         SYMBOL        localchannel
  D:0005H         SYMBOL        txObjHandle
  -------         DO            
  D:0001H         SYMBOL        SFRPAGE_save
  D:0004H         SYMBOL        returnvalue
  -------         ENDDO         
  C:6B45H         LINE#         1787
  C:6B45H         LINE#         1788
  C:6B45H         LINE#         1793
  C:6B45H         LINE#         1796
  C:6B47H         LINE#         1797
  C:6B4AH         LINE#         1802
  C:6B50H         LINE#         1803
  C:6B50H         LINE#         1804
  C:6B71H         LINE#         1805
  C:6B73H         LINE#         1806
  C:6B75H         LINE#         1809
  C:6B75H         LINE#         1810
  C:6B7BH         LINE#         1811
  C:6B7BH         LINE#         1812
  C:6B9CH         LINE#         1813
  C:6B9EH         LINE#         1814
  C:6BA0H         LINE#         1816
  C:6BA0H         LINE#         1817
  C:6BA6H         LINE#         1818
  C:6BA6H         LINE#         1819
  C:6BC7H         LINE#         1820
  C:6BC9H         LINE#         1821
  C:6BCBH         LINE#         1823
  C:6BCBH         LINE#         1824
  C:6BEEH         LINE#         1825
  C:6BF0H         LINE#         1826
  C:6BF0H         LINE#         1827
  C:6BF0H         LINE#         1828
  C:6BF0H         LINE#         1836
  C:6BF5H         LINE#         1839
  C:6BF8H         LINE#         1841
  -------         ENDPROC       _CANLL_TXISHWOBJFREE
  -------         PROC          _?CANRXACTUALERRORCOUNTER
  -------         DO            
  x:0000H         SYMBOL        SFRPAGE_save
BL51 BANKED LINKER/LOCATER V6.22                                                      11/17/2023  15:14:24  PAGE 106


  x:0001H         SYMBOL        returnvalue
  -------         ENDDO         
  C:7158H         LINE#         1857
  C:715EH         LINE#         1862
  C:7167H         LINE#         1863
  C:716AH         LINE#         1864
  C:7174H         LINE#         1865
  C:717DH         LINE#         1867
  C:7186H         LINE#         1868
  -------         ENDPROC       _?CANRXACTUALERRORCOUNTER
  -------         PROC          _?CANTXACTUALERRORCOUNTER
  -------         DO            
  x:0000H         SYMBOL        SFRPAGE_save
  x:0001H         SYMBOL        returnvalue
  -------         ENDDO         
  C:718DH         LINE#         1882
  C:7193H         LINE#         1887
  C:719CH         LINE#         1888
  C:719FH         LINE#         1889
  C:71A9H         LINE#         1890
  C:71B2H         LINE#         1892
  C:71BBH         LINE#         1893
  -------         ENDPROC       _?CANTXACTUALERRORCOUNTER
  -------         PROC          _?CANLL_HWISSTOP
  -------         DO            
  x:0000H         SYMBOL        SFRPAGE_save
  x:0001H         SYMBOL        returnvalue
  -------         ENDDO         
  C:70A4H         LINE#         1907
  C:70AAH         LINE#         1912
  C:70B3H         LINE#         1913
  C:70B6H         LINE#         1914
  C:70CCH         LINE#         1915
  C:70D5H         LINE#         1917
  C:70DEH         LINE#         1918
  -------         ENDPROC       _?CANLL_HWISSTOP
  -------         PROC          _?CANLL_HWISPASSIVE
  -------         DO            
  x:0000H         SYMBOL        SFRPAGE_save
  x:0001H         SYMBOL        returnvalue
  -------         ENDDO         
  C:6F4AH         LINE#         1932
  C:6F50H         LINE#         1937
  C:6F59H         LINE#         1938
  C:6F5CH         LINE#         1939
  C:6F78H         LINE#         1940
  C:6F81H         LINE#         1942
  C:6F8AH         LINE#         1943
  -------         ENDPROC       _?CANLL_HWISPASSIVE
  -------         PROC          _?CANLL_HWISWARNING
  -------         DO            
  x:0000H         SYMBOL        SFRPAGE_save
  x:0001H         SYMBOL        returnvalue
  -------         ENDDO         
  C:6F91H         LINE#         1957
  C:6F97H         LINE#         1962
  C:6FA0H         LINE#         1963
BL51 BANKED LINKER/LOCATER V6.22                                                      11/17/2023  15:14:24  PAGE 107


  C:6FA3H         LINE#         1964
  C:6FBFH         LINE#         1965
  C:6FC8H         LINE#         1967
  C:6FD1H         LINE#         1968
  -------         ENDPROC       _?CANLL_HWISWARNING
  -------         PROC          _CANLL_HANDLEILLIRPTNUMBER
  X:0A7EH         SYMBOL        intnumber
  -------         DO            
  X:0A80H         SYMBOL        SFRPAGE_save
  -------         ENDDO         
  C:71C2H         LINE#         1990
  C:71CAH         LINE#         1991
  C:71CAH         LINE#         1995
  C:71CAH         LINE#         1997
  C:71CEH         LINE#         1998
  C:71D1H         LINE#         2001
  C:71E3H         LINE#         2005
  C:71E6H         LINE#         2007
  C:71E9H         LINE#         2009
  C:71F1H         LINE#         2012
  C:71F5H         LINE#         2013
  C:71F5H         LINE#         2017
  -------         ENDPROC       _CANLL_HANDLEILLIRPTNUMBER
  -------         PROC          CAN_CELLISR
  -------         DO            
  X:0A81H         SYMBOL        intnumber
  X:0A83H         SYMBOL        SFRPAGE_save
  -------         ENDDO         
  C:5433H         LINE#         2236
  C:5433H         LINE#         2237
  C:5433H         LINE#         2242
  C:5439H         LINE#         2243
  C:543CH         LINE#         2246
  C:544BH         LINE#         2249
  C:544FH         LINE#         2252
  C:5459H         LINE#         2253
  C:5459H         LINE#         2254
  C:545EH         LINE#         2255
  C:545FH         LINE#         2257
  C:545FH         LINE#         2262
  C:545FH         LINE#         2263
  C:5467H         LINE#         2264
  C:5467H         LINE#         2278
  C:546AH         LINE#         2280
  C:546CH         LINE#         2282
  C:546CH         LINE#         2286
  C:5485H         LINE#         2287
  C:5495H         LINE#         2288
  C:5495H         LINE#         2299
  C:5495H         LINE#         2301
  C:5495H         LINE#         2302
  C:549EH         LINE#         2303
  C:549EH         LINE#         2311
  C:54A1H         LINE#         2314
  C:54A3H         LINE#         2316
  C:54A3H         LINE#         2317
  C:54B2H         LINE#         2318
BL51 BANKED LINKER/LOCATER V6.22                                                      11/17/2023  15:14:24  PAGE 108


  C:54B2H         LINE#         2322
  C:54B7H         LINE#         2323
  C:54C2H         LINE#         2324
  C:54C4H         LINE#         2326
  C:54C4H         LINE#         2334
  C:54CEH         LINE#         2337
  C:54CEH         LINE#         2338
  C:54CEH         LINE#         2339
  C:54CEH         LINE#         2340
  C:54CEH         LINE#         2344
  C:54D4H         LINE#         2345
  C:54D7H         LINE#         2347
  C:54E6H         LINE#         2349
  C:54EAH         LINE#         2355
  C:54EAH         LINE#         2356
  C:54F7H         LINE#         2357
  C:54F7H         LINE#         2361
  -------         ENDPROC       CAN_CELLISR
  -------         PROC          CANISR_0
  C:72C5H         LINE#         2407
  C:72D2H         LINE#         2415
  C:72D5H         LINE#         2420
  -------         ENDPROC       CANISR_0
  -------         PROC          _CANINIT
  X:09B7H         SYMBOL        initObject
  -------         DO            
  X:09B8H         SYMBOL        hwObjHandle
  D:0006H         SYMBOL        txHandle
  D:0004H         SYMBOL        rxHandle
  X:09B9H         SYMBOL        logTxObjHandle
  X:09BAH         SYMBOL        SFRPAGE_save
  -------         DO            
  X:09BBH         SYMBOL        unusedObject
  -------         ENDDO         
  -------         ENDDO         
  C:5A6DH         LINE#         2436
  C:5A72H         LINE#         2437
  C:5A72H         LINE#         2456
  C:5A78H         LINE#         2457
  C:5A7BH         LINE#         2462
  C:5A83H         LINE#         2474
  C:5A92H         LINE#         2475
  C:5AA5H         LINE#         2481
  C:5AA5H         LINE#         2487
  C:5AACH         LINE#         2490
  C:5AB1H         LINE#         2525
  C:5AB4H         LINE#         2526
  C:5ABEH         LINE#         2527
  C:5AC1H         LINE#         2533
  C:5ADCH         LINE#         2534
  C:5ADFH         LINE#         2537
  C:5AF5H         LINE#         2546
  C:5AF5H         LINE#         2555
  C:5B08H         LINE#         2556
  C:5B08H         LINE#         2557
  C:5B0CH         LINE#         2560
  C:5B13H         LINE#         2561
BL51 BANKED LINKER/LOCATER V6.22                                                      11/17/2023  15:14:24  PAGE 109


  C:5B13H         LINE#         2563
  C:5B27H         LINE#         2566
  C:5B2FH         LINE#         2567
  C:5B2FH         LINE#         2568
  C:5B32H         LINE#         2569
  C:5B32H         LINE#         2571
  C:5B32H         LINE#         2574
  C:5B46H         LINE#         2589
  C:5B46H         LINE#         2591
  C:5B46H         LINE#         2595
  C:5B4FH         LINE#         2600
  C:5B4FH         LINE#         2607
  C:5B52H         LINE#         2609
  C:5B55H         LINE#         2612
  C:5B57H         LINE#         2613
  C:5B5AH         LINE#         2615
  C:5B5CH         LINE#         2616
  C:5B5EH         LINE#         2619
  C:5B5EH         LINE#         2620
  C:5B61H         LINE#         2621
  C:5B63H         LINE#         2622
  C:5B63H         LINE#         2625
  C:5B65H         LINE#         2626
  C:5B67H         LINE#         2627
  C:5B69H         LINE#         2628
  C:5B6CH         LINE#         2629
  C:5B6EH         LINE#         2630
  C:5B70H         LINE#         2631
  C:5B72H         LINE#         2632
  C:5B74H         LINE#         2633
  C:5B76H         LINE#         2634
  C:5B78H         LINE#         2635
  C:5B7AH         LINE#         2636
  C:5B7CH         LINE#         2641
  C:5B82H         LINE#         2645
  C:5B88H         LINE#         2647
  C:5B88H         LINE#         2650
  C:5B97H         LINE#         2651
  C:5B97H         LINE#         2655
  C:5B97H         LINE#         2657
  C:5B97H         LINE#         2661
  C:5BA0H         LINE#         2666
  C:5BA0H         LINE#         2672
  C:5BA3H         LINE#         2674
  C:5BA6H         LINE#         2677
  C:5BA8H         LINE#         2678
  C:5BAAH         LINE#         2679
  C:5BACH         LINE#         2680
  C:5BAEH         LINE#         2683
  C:5BB0H         LINE#         2684
  C:5BB2H         LINE#         2685
  C:5BB4H         LINE#         2686
  C:5BB6H         LINE#         2687
  C:5BB8H         LINE#         2688
  C:5BBAH         LINE#         2689
  C:5BBCH         LINE#         2690
  C:5BBEH         LINE#         2691
BL51 BANKED LINKER/LOCATER V6.22                                                      11/17/2023  15:14:24  PAGE 110


  C:5BC0H         LINE#         2692
  C:5BC2H         LINE#         2693
  C:5BC4H         LINE#         2694
  C:5BC6H         LINE#         2696
  C:5BC9H         LINE#         2697
  C:5BCBH         LINE#         2701
  C:5BD1H         LINE#         2705
  C:5BD6H         LINE#         2710
  C:5BE6H         LINE#         2711
  C:5BE6H         LINE#         2713
  C:5BF1H         LINE#         2731
  C:5BF1H         LINE#         2733
  C:5BF1H         LINE#         2737
  C:5BFAH         LINE#         2742
  C:5BFAH         LINE#         2748
  C:5BFDH         LINE#         2750
  C:5C00H         LINE#         2753
  C:5C19H         LINE#         2754
  C:5C1EH         LINE#         2802
  C:5C21H         LINE#         2803
  C:5C23H         LINE#         2804
  C:5C25H         LINE#         2805
  C:5C28H         LINE#         2807
  C:5C2BH         LINE#         2809
  C:5C2BH         LINE#         2810
  C:5C2EH         LINE#         2811
  C:5C2EH         LINE#         2816
  C:5C30H         LINE#         2817
  C:5C32H         LINE#         2818
  C:5C34H         LINE#         2819
  C:5C36H         LINE#         2820
  C:5C38H         LINE#         2821
  C:5C3AH         LINE#         2822
  C:5C3CH         LINE#         2823
  C:5C3EH         LINE#         2828
  C:5C52H         LINE#         2829
  C:5C58H         LINE#         2834
  C:5C5EH         LINE#         2911
  C:5C5EH         LINE#         2925
  C:5C68H         LINE#         2931
  C:5C80H         LINE#         2932
  C:5C80H         LINE#         2935
  C:5C80H         LINE#         2937
  C:5C80H         LINE#         2940
  C:5C89H         LINE#         2943
  C:5C89H         LINE#         2947
  C:5C8CH         LINE#         2949
  C:5C8FH         LINE#         2952
  C:5C91H         LINE#         2953
  C:5C93H         LINE#         2954
  C:5C95H         LINE#         2955
  C:5C97H         LINE#         2958
  C:5C99H         LINE#         2959
  C:5C9BH         LINE#         2960
  C:5C9DH         LINE#         2961
  C:5C9FH         LINE#         2962
  C:5CA1H         LINE#         2963
BL51 BANKED LINKER/LOCATER V6.22                                                      11/17/2023  15:14:24  PAGE 111


  C:5CA3H         LINE#         2964
  C:5CA5H         LINE#         2965
  C:5CA7H         LINE#         2966
  C:5CA9H         LINE#         2967
  C:5CABH         LINE#         2968
  C:5CADH         LINE#         2969
  C:5CAFH         LINE#         2971
  C:5CB2H         LINE#         2972
  C:5CB4H         LINE#         2975
  C:5CBCH         LINE#         2976
  C:5CC9H         LINE#         2982
  C:5CC9H         LINE#         2998
  C:5CCCH         LINE#         3004
  C:5CD2H         LINE#         3010
  C:5CD2H         LINE#         3013
  C:5CD9H         LINE#         3028
  -------         ENDPROC       _CANINIT
  -------         PROC          CANINITPOWERON
  -------         DO            
  D:0006H         SYMBOL        txHandle
  -------         ENDDO         
  C:6E6BH         LINE#         3043
  C:6E6BH         LINE#         3044
  C:6E6BH         LINE#         3058
  C:6E6EH         LINE#         3092
  C:6E7AH         LINE#         3093
  C:6E80H         LINE#         3094
  C:6E87H         LINE#         3105
  C:6E8EH         LINE#         3124
  C:6E8EH         LINE#         3130
  C:6E92H         LINE#         3142
  C:6E96H         LINE#         3144
  C:6E9AH         LINE#         3183
  C:6E9EH         LINE#         3189
  C:6EA6H         LINE#         3191
  C:6EA6H         LINE#         3194
  C:6EA9H         LINE#         3197
  C:6EAEH         LINE#         3200
  C:6EB5H         LINE#         3201
  C:6EB5H         LINE#         3203
  C:6EB5H         LINE#         3205
  -------         ENDPROC       CANINITPOWERON
  -------         PROC          _?CANDELQUEUEDOBJ
  -------         DO            
  x:0000H         SYMBOL        queueElementIdx
  x:0001H         SYMBOL        elementBitIdx
  x:0002H         SYMBOL        txHandle
  x:0004H         SYMBOL        elem
  -------         ENDDO         
  C:6644H         LINE#         3219
  C:664AH         LINE#         3236
  C:6654H         LINE#         3237
  C:6654H         LINE#         3238
  C:6657H         LINE#         3239
  C:6671H         LINE#         3240
  C:6671H         LINE#         3241
  C:668AH         LINE#         3242
BL51 BANKED LINKER/LOCATER V6.22                                                      11/17/2023  15:14:24  PAGE 112


  C:6696H         LINE#         3243
  C:6696H         LINE#         3245
  C:66B0H         LINE#         3246
  C:66B0H         LINE#         3247
  C:66CCH         LINE#         3248
  C:66CCH         LINE#         3249
  C:6701H         LINE#         3250
  C:6711H         LINE#         3251
  C:6711H         LINE#         3252
  C:671DH         LINE#         3253
  C:6735H         LINE#         3254
  C:6735H         LINE#         3255
  C:6741H         LINE#         3256
  C:6744H         LINE#         3257
  C:6746H         LINE#         3260
  C:6746H         LINE#         3261
  C:675DH         LINE#         3262
  C:675DH         LINE#         3263
  C:676EH         LINE#         3264
  C:6779H         LINE#         3265
  C:6779H         LINE#         3272
  -------         ENDPROC       _?CANDELQUEUEDOBJ
  -------         PROC          _CANCANCELTRANSMIT
  X:0A09H         SYMBOL        txHandle
  -------         DO            
  X:0A0BH         SYMBOL        localInterruptOldStatus
  D:0005H         SYMBOL        logTxObjHandle
  D:0007H         SYMBOL        queueElementIdx
  X:0A0CH         SYMBOL        elementBitIdx
  D:0004H         SYMBOL        queueBitPos
  -------         ENDDO         
  C:69A0H         LINE#         3287
  C:69A8H         LINE#         3288
  C:69A8H         LINE#         3305
  C:69B3H         LINE#         3306
  C:69B3H         LINE#         3315
  C:69BBH         LINE#         3332
  C:69C6H         LINE#         3333
  C:69D0H         LINE#         3334
  C:69D7H         LINE#         3335
  C:69FDH         LINE#         3336
  C:69FDH         LINE#         3339
  C:6A2BH         LINE#         3341
  C:6A36H         LINE#         3342
  C:6A36H         LINE#         3346
  C:6A4BH         LINE#         3350
  C:6A61H         LINE#         3351
  C:6A61H         LINE#         3352
  C:6A76H         LINE#         3436
  C:6A81H         LINE#         3437
  C:6A81H         LINE#         3439
  C:6A89H         LINE#         3440
  C:6A89H         LINE#         3441
  -------         ENDPROC       _CANCANCELTRANSMIT
  -------         PROC          _?CANTRANSMIT
  x:0008H         SYMBOL        txHandle
  -------         DO            
BL51 BANKED LINKER/LOCATER V6.22                                                      11/17/2023  15:14:24  PAGE 113


  x:0000H         SYMBOL        localInterruptOldStatus
  x:0001H         SYMBOL        txObjHandle
  x:0002H         SYMBOL        logTxObjHandle
  x:0003H         SYMBOL        rc
  x:0004H         SYMBOL        queueElementIdx
  x:0005H         SYMBOL        elementBitIdx
  x:0006H         SYMBOL        queueBitPos
  -------         ENDDO         
  C:5CDAH         LINE#         3487
  C:5CEBH         LINE#         3530
  C:5D07H         LINE#         3541
  C:5D0EH         LINE#         3542
  C:5D0EH         LINE#         3543
  C:5D13H         LINE#         3544
  C:5D13H         LINE#         3547
  C:5D30H         LINE#         3548
  C:5D30H         LINE#         3549
  C:5D35H         LINE#         3550
  C:5D35H         LINE#         3563
  C:5D40H         LINE#         3628
  C:5D5EH         LINE#         3633
  C:5D71H         LINE#         3636
  C:5D7EH         LINE#         3639
  C:5D85H         LINE#         3640
  C:5D85H         LINE#         3641
  C:5D90H         LINE#         3642
  C:5D95H         LINE#         3643
  C:5D95H         LINE#         3661
  C:5DBFH         LINE#         3666
  C:5DBFH         LINE#         3669
  C:5DCAH         LINE#         3670
  C:5DEAH         LINE#         3671
  C:5DF6H         LINE#         3672
  C:5E30H         LINE#         3674
  C:5E3BH         LINE#         3675
  C:5E40H         LINE#         3676
  C:5E40H         LINE#         3688
  C:5E40H         LINE#         3691
  C:5E70H         LINE#         3696
  C:5E70H         LINE#         3698
  C:5E7BH         LINE#         3699
  C:5E7FH         LINE#         3700
  C:5E7FH         LINE#         3701
  C:5E7FH         LINE#         3704
  C:5EA3H         LINE#         3705
  C:5EAEH         LINE#         3707
  C:5EC2H         LINE#         3710
  C:5ECCH         LINE#         3711
  C:5ECCH         LINE#         3712
  C:5ED4H         LINE#         3713
  C:5ED4H         LINE#         3717
  C:5EDCH         LINE#         3722
  -------         ENDPROC       _?CANTRANSMIT
  -------         PROC          _?CANCOPYDATAANDSTARTTRANSMISSION
  x:0009H         SYMBOL        txObjHandle
  x:000AH         SYMBOL        txHandle
  -------         DO            
BL51 BANKED LINKER/LOCATER V6.22                                                      11/17/2023  15:14:24  PAGE 114


  x:0000H         SYMBOL        localInterruptOldStatus
  x:0001H         SYMBOL        rc
  x:0002H         SYMBOL        logTxObjHandle
  x:0003H         SYMBOL        CanMemCopySrcPtr
  x:0006H         SYMBOL        SFRPAGE_save
  -------         DO            
  x:0007H         SYMBOL        copy_counter
  -------         ENDDO         
  -------         ENDDO         
  C:48D0H         LINE#         3741
  C:48E9H         LINE#         3759
  C:48F2H         LINE#         3760
  C:48F5H         LINE#         3767
  C:4911H         LINE#         3785
  C:4927H         LINE#         3786
  C:4939H         LINE#         3788
  C:4946H         LINE#         3792
  C:4956H         LINE#         3797
  C:4956H         LINE#         3897
  C:4994H         LINE#         3911
  C:49B4H         LINE#         3938
  C:49B4H         LINE#         3981
  C:49B4H         LINE#         3982
  C:49E9H         LINE#         3983
  C:49E9H         LINE#         3985
  C:49FBH         LINE#         3986
  C:49FBH         LINE#         3988
  C:4A08H         LINE#         3992
  C:4A08H         LINE#         3995
  C:4A25H         LINE#         3996
  C:4A25H         LINE#         3997
  C:4A57H         LINE#         3998
  C:4A65H         LINE#         3999
  C:4A74H         LINE#         4000
  C:4A74H         LINE#         4005
  C:4A7FH         LINE#         4007
  C:4A7FH         LINE#         4018
  C:4A8CH         LINE#         4021
  C:4ABDH         LINE#         4022
  C:4ABDH         LINE#         4030
  C:4ABDH         LINE#         4032
  C:4ABDH         LINE#         4036
  C:4AC6H         LINE#         4041
  C:4AC6H         LINE#         4047
  C:4AC9H         LINE#         4049
  C:4ACCH         LINE#         4057
  C:4AE6H         LINE#         4058
  C:4AF7H         LINE#         4061
  C:4B15H         LINE#         4063
  C:4B15H         LINE#         4064
  C:4B18H         LINE#         4066
  C:4B18H         LINE#         4068
  C:4B2BH         LINE#         4069
  C:4B45H         LINE#         4070
  C:4B58H         LINE#         4071
  C:4B72H         LINE#         4072
  C:4B85H         LINE#         4073
BL51 BANKED LINKER/LOCATER V6.22                                                      11/17/2023  15:14:24  PAGE 115


  C:4B9FH         LINE#         4074
  C:4BB2H         LINE#         4075
  C:4BCBH         LINE#         4078
  C:4BD4H         LINE#         4109
  C:4C1FH         LINE#         4115
  C:4C2CH         LINE#         4117
  C:4C36H         LINE#         4118
  C:4C39H         LINE#         4120
  C:4C39H         LINE#         4122
  C:4C65H         LINE#         4123
  C:4C65H         LINE#         4125
  C:4C6FH         LINE#         4126
  C:4C71H         LINE#         4129
  C:4C71H         LINE#         4130
  C:4C7AH         LINE#         4131
  C:4C7AH         LINE#         4133
  C:4CB5H         LINE#         4134
  C:4CCEH         LINE#         4135
  C:4CCEH         LINE#         4137
  C:4CD9H         LINE#         4141
  C:4CE2H         LINE#         4145
  C:4CEBH         LINE#         4147
  -------         ENDPROC       _?CANCOPYDATAANDSTARTTRANSMISSION
  -------         PROC          CANHL_ERRORHANDLING
  -------         DO            
  X:0B3BH         SYMBOL        SFRPAGE_save
  -------         ENDDO         
  C:7121H         LINE#         4794
  C:7121H         LINE#         4795
  C:7121H         LINE#         4799
  C:7127H         LINE#         4800
  C:712AH         LINE#         4813
  C:7134H         LINE#         4821
  C:7148H         LINE#         4824
  C:7148H         LINE#         4825
  C:714EH         LINE#         4830
  C:7151H         LINE#         4831
  C:7151H         LINE#         4835
  C:7157H         LINE#         4839
  -------         ENDPROC       CANHL_ERRORHANDLING
  -------         PROC          _CANFULLCANMSGRECEIVED
  X:0A0DH         SYMBOL        rxObjHandle
  -------         DO            
  X:0A0EH         SYMBOL        rxHandle
  X:0A10H         SYMBOL        SFRPAGE_save
  C:663DH         SYMBOL        finishRxFullCan
  -------         ENDDO         
  C:64FDH         LINE#         5593
  C:6502H         LINE#         5594
  C:6502H         LINE#         5604
  C:6508H         LINE#         5605
  C:650BH         LINE#         5630
  C:650EH         LINE#         5632
  C:6511H         LINE#         5634
  C:6517H         LINE#         5638
  C:6517H         LINE#         5640
  C:6517H         LINE#         5643
BL51 BANKED LINKER/LOCATER V6.22                                                      11/17/2023  15:14:24  PAGE 116


  C:6520H         LINE#         5646
  C:6520H         LINE#         5651
  C:652FH         LINE#         5654
  C:653CH         LINE#         5656
  C:654BH         LINE#         5657
  C:655AH         LINE#         5658
  C:6569H         LINE#         5659
  C:6578H         LINE#         5666
  C:6587H         LINE#         5684
  C:6599H         LINE#         5687
  C:65A9H         LINE#         5689
  C:65BEH         LINE#         5736
  C:65D1H         LINE#         5737
  C:65D1H         LINE#         5738
  C:65D1H         LINE#         5739
  C:65D1H         LINE#         5762
  C:65E0H         LINE#         5777
  C:6603H         LINE#         5780
  C:6615H         LINE#         5782
  C:6624H         LINE#         5784
  C:662BH         LINE#         5785
  C:662BH         LINE#         5791
  C:6636H         LINE#         5795
  C:663DH         LINE#         5801
  C:663DH         LINE#         5803
  C:663DH         LINE#         5806
  C:663DH         LINE#         5813
  C:6643H         LINE#         5819
  -------         ENDPROC       _CANFULLCANMSGRECEIVED
  -------         PROC          CANHL_RECEIVEDRXHANDLE
  -------         DO            
  X:0939H         SYMBOL        localInterruptOldStatus
  -------         DO            
  X:093AH         SYMBOL        copycount
  X:093CH         SYMBOL        sptr
  X:093FH         SYMBOL        dptr
  -------         ENDDO         
  -------         ENDDO         
  C:60A9H         LINE#         5837
  C:60A9H         LINE#         5838
  C:60A9H         LINE#         5871
  C:60D6H         LINE#         5873
  C:60D6H         LINE#         5878
  C:60D9H         LINE#         5879
  C:60D9H         LINE#         5887
  C:60E7H         LINE#         5888
  C:60E7H         LINE#         5889
  C:60EAH         LINE#         5890
  C:60EAH         LINE#         5896
  C:610FH         LINE#         5898
  C:610FH         LINE#         5900
  C:611EH         LINE#         5902
  C:6150H         LINE#         5903
  C:6150H         LINE#         5904
  C:6152H         LINE#         5905
  C:6152H         LINE#         5906
  C:6152H         LINE#         5912
BL51 BANKED LINKER/LOCATER V6.22                                                      11/17/2023  15:14:24  PAGE 117


  C:617AH         LINE#         5913
  C:617AH         LINE#         5916
  C:6184H         LINE#         5964
  C:6184H         LINE#         5986
  C:6184H         LINE#         5991
  C:6199H         LINE#         5992
  C:61C8H         LINE#         5994
  C:61EEH         LINE#         5995
  C:61EEH         LINE#         5997
  C:620CH         LINE#         5998
  C:6216H         LINE#         5999
  C:6220H         LINE#         6000
  C:6230H         LINE#         6001
  C:6230H         LINE#         6004
  C:6230H         LINE#         6006
  C:6238H         LINE#         6008
  C:6238H         LINE#         6012
  C:623AH         LINE#         6013
  -------         ENDPROC       CANHL_RECEIVEDRXHANDLE
  -------         PROC          _CANHL_INDRXHANDLE
  D:0004H         SYMBOL        rxHandle
  C:71F6H         LINE#         6027
  C:71FCH         LINE#         6028
  C:71FCH         LINE#         6048
  C:721DH         LINE#         6050
  C:721DH         LINE#         6051
  C:7224H         LINE#         6052
  C:7224H         LINE#         6054
  -------         ENDPROC       _CANHL_INDRXHANDLE
  -------         PROC          _CANHL_TXCONFIRMATION
  X:0975H         SYMBOL        txObjHandle
  -------         DO            
  X:0976H         SYMBOL        logTxObjHandle
  X:0977H         SYMBOL        txHandle
  X:0979H         SYMBOL        queueElementIdx
  X:097AH         SYMBOL        elementBitIdx
  D:0005H         SYMBOL        elem
  X:097BH         SYMBOL        localInterruptOldStatus
  D:0007H         SYMBOL        rc
  C:5A6CH         SYMBOL        finishCanHL_TxConfirmation
  -------         DO            
  X:097CH         SYMBOL        SFRPAGE_save
  -------         ENDDO         
  -------         ENDDO         
  C:57F2H         LINE#         6072
  C:57F7H         LINE#         6073
  C:57F7H         LINE#         6109
  C:57FAH         LINE#         6110
  C:5811H         LINE#         6112
  C:5811H         LINE#         6114
  C:5811H         LINE#         6128
  C:581BH         LINE#         6131
  C:581BH         LINE#         6133
  C:581BH         LINE#         6137
  C:5824H         LINE#         6142
  C:5824H         LINE#         6147
  C:5824H         LINE#         6149
BL51 BANKED LINKER/LOCATER V6.22                                                      11/17/2023  15:14:24  PAGE 118


  C:582AH         LINE#         6150
  C:582DH         LINE#         6154
  C:5830H         LINE#         6155
  C:5833H         LINE#         6158
  C:5839H         LINE#         6160
  C:583FH         LINE#         6161
  C:583FH         LINE#         6165
  C:5847H         LINE#         6166
  C:5847H         LINE#         6171
  C:5853H         LINE#         6172
  C:5853H         LINE#         6173
  C:5858H         LINE#         6174
  C:5859H         LINE#         6175
  C:5859H         LINE#         6183
  C:5859H         LINE#         6185
  C:5859H         LINE#         6186
  C:5861H         LINE#         6187
  C:5861H         LINE#         6199
  C:5861H         LINE#         6204
  C:5869H         LINE#         6205
  C:5869H         LINE#         6206
  C:587BH         LINE#         6207
  C:587BH         LINE#         6213
  C:588BH         LINE#         6214
  C:588BH         LINE#         6223
  C:5895H         LINE#         6225
  C:58B2H         LINE#         6227
  C:58BAH         LINE#         6232
  C:58BAH         LINE#         6235
  C:58E2H         LINE#         6237
  C:58E2H         LINE#         6238
  C:58E9H         LINE#         6239
  C:58E9H         LINE#         6240
  C:58E9H         LINE#         6243
  C:58E9H         LINE#         6247
  C:58F4H         LINE#         6249
  C:58F4H         LINE#         6250
  C:58FDH         LINE#         6254
  C:5911H         LINE#         6255
  C:5911H         LINE#         6256
  C:5922H         LINE#         6257
  C:5927H         LINE#         6258
  C:5927H         LINE#         6261
  C:592FH         LINE#         6265
  C:592FH         LINE#         6266
  C:592FH         LINE#         6267
  C:5937H         LINE#         6268
  C:5937H         LINE#         6269
  C:5945H         LINE#         6270
  C:5947H         LINE#         6272
  C:5947H         LINE#         6273
  C:5953H         LINE#         6274
  C:5953H         LINE#         6275
  C:5953H         LINE#         6276
  C:5953H         LINE#         6277
  C:597EH         LINE#         6278
  C:597EH         LINE#         6282
BL51 BANKED LINKER/LOCATER V6.22                                                      11/17/2023  15:14:24  PAGE 119


  C:5988H         LINE#         6285
  C:59AEH         LINE#         6286
  C:59AEH         LINE#         6287
  C:59DCH         LINE#         6290
  C:59E4H         LINE#         6291
  C:5A00H         LINE#         6293
  C:5A08H         LINE#         6294
  C:5A0DH         LINE#         6295
  C:5A0DH         LINE#         6297
  C:5A16H         LINE#         6299
  C:5A21H         LINE#         6301
  C:5A29H         LINE#         6303
  C:5A29H         LINE#         6308
  C:5A2AH         LINE#         6309
  C:5A2AH         LINE#         6311
  C:5A3EH         LINE#         6312
  C:5A46H         LINE#         6313
  C:5A47H         LINE#         6316
  C:5A47H         LINE#         6325
  C:5A47H         LINE#         6326
  C:5A50H         LINE#         6329
  C:5A64H         LINE#         6330
  C:5A6CH         LINE#         6331
  C:5A6CH         LINE#         6336
  C:5A6CH         LINE#         6341
  C:5A6CH         LINE#         6344
  -------         ENDPROC       _CANHL_TXCONFIRMATION
  -------         PROC          CANONLINE
  -------         DO            
  X:0B3CH         SYMBOL        localInterruptOldStatus
  -------         ENDDO         
  C:72FBH         LINE#         6407
  C:72FBH         LINE#         6408
  C:72FBH         LINE#         6409
  C:72FBH         LINE#         6415
  C:7305H         LINE#         6417
  C:730CH         LINE#         6422
  C:7314H         LINE#         6424
  -------         ENDPROC       CANONLINE
  -------         PROC          _?CANOFFLINE
  -------         DO            
  x:0000H         SYMBOL        localInterruptOldStatus
  -------         ENDDO         
  C:7225H         LINE#         6437
  C:722BH         LINE#         6439
  C:722BH         LINE#         6445
  C:7238H         LINE#         6447
  C:723FH         LINE#         6452
  C:724AH         LINE#         6455
  C:724DH         LINE#         6458
  -------         ENDPROC       _?CANOFFLINE
  -------         PROC          _CANSETPARTOFFLINE
  D:0007H         SYMBOL        sendGroup
  -------         DO            
  X:0B3DH         SYMBOL        localInterruptOldStatus
  -------         ENDDO         
  C:7315H         LINE#         6473
BL51 BANKED LINKER/LOCATER V6.22                                                      11/17/2023  15:14:24  PAGE 120


  C:7315H         LINE#         6474
  C:7315H         LINE#         6475
  C:7315H         LINE#         6481
  C:731FH         LINE#         6482
  C:7325H         LINE#         6483
  C:732DH         LINE#         6484
  -------         ENDPROC       _CANSETPARTOFFLINE
  -------         PROC          _CANSETPARTONLINE
  D:0007H         SYMBOL        invSendGroup
  -------         DO            
  X:0B3EH         SYMBOL        localInterruptOldStatus
  -------         ENDDO         
  C:732EH         LINE#         6497
  C:732EH         LINE#         6498
  C:732EH         LINE#         6499
  C:732EH         LINE#         6505
  C:7338H         LINE#         6506
  C:733EH         LINE#         6507
  C:7346H         LINE#         6508
  -------         ENDPROC       _CANSETPARTONLINE
  -------         PROC          CANGETPARTMODE
  C:73ACH         LINE#         6521
  C:73ACH         LINE#         6522
  C:73ACH         LINE#         6527
  C:73B1H         LINE#         6528
  -------         ENDPROC       CANGETPARTMODE
  -------         PROC          _?CANGETSTATUS
  C:54F8H         LINE#         6552
  C:54F8H         LINE#         6590
  C:54FFH         LINE#         6592
  -------         ENDPROC       _?CANGETSTATUS
  -------         PROC          CANSLEEP
  C:735FH         LINE#         6607
  C:735FH         LINE#         6608
  C:735FH         LINE#         6616
  C:7370H         LINE#         6642
  C:7372H         LINE#         6644
  -------         ENDPROC       CANSLEEP
  -------         PROC          CANWAKEUP
  C:73BEH         LINE#         6658
  C:73BEH         LINE#         6659
  C:73BEH         LINE#         6683
  C:73C0H         LINE#         6685
  -------         ENDPROC       CANWAKEUP
  -------         PROC          CANSTOP
  -------         DO            
  D:0007H         SYMBOL        canReturnCode
  -------         DO            
  X:0B3FH         SYMBOL        SFRPAGE_save
  -------         ENDDO         
  -------         ENDDO         
  C:7254H         LINE#         6701
  C:7254H         LINE#         6702
  C:7254H         LINE#         6708
  C:7266H         LINE#         6710
  C:7266H         LINE#         6715
  C:7266H         LINE#         6719
BL51 BANKED LINKER/LOCATER V6.22                                                      11/17/2023  15:14:24  PAGE 121


  C:726CH         LINE#         6720
  C:726FH         LINE#         6724
  C:7272H         LINE#         6725
  C:7275H         LINE#         6728
  C:7277H         LINE#         6731
  C:727AH         LINE#         6734
  C:727AH         LINE#         6736
  C:727AH         LINE#         6737
  C:727AH         LINE#         6738
  -------         ENDPROC       CANSTOP
  -------         PROC          CANSTART
  -------         DO            
  D:0007H         SYMBOL        canReturnCode
  -------         DO            
  X:0B40H         SYMBOL        SFRPAGE_save
  -------         ENDDO         
  -------         ENDDO         
  C:4016H         LINE#         6752
  C:4016H         LINE#         6753
  C:4016H         LINE#         6754
  C:4016H         LINE#         6762
  C:4016H         LINE#         6766
  C:401CH         LINE#         6767
  C:401FH         LINE#         6771
  C:4022H         LINE#         6772
  C:4025H         LINE#         6775
  C:4027H         LINE#         6778
  C:402AH         LINE#         6780
  C:402AH         LINE#         6782
  C:402AH         LINE#         6783
  C:402AH         LINE#         6784
  -------         ENDPROC       CANSTART
  -------         PROC          _?CANCANINTERRUPTDISABLE
  -------         DO            
  x:0000H         SYMBOL        localInterruptOldStatus
  -------         ENDDO         
  C:6DD3H         LINE#         6798
  C:6DD9H         LINE#         6817
  C:6DEEH         LINE#         6819
  C:6DFBH         LINE#         6820
  C:6E01H         LINE#         6821
  C:6E01H         LINE#         6823
  C:6E01H         LINE#         6828
  C:6E08H         LINE#         6829
  C:6E08H         LINE#         6834
  C:6E08H         LINE#         6835
  C:6E0EH         LINE#         6837
  C:6E19H         LINE#         6839
  -------         ENDPROC       _?CANCANINTERRUPTDISABLE
  -------         PROC          _?CANCANINTERRUPTRESTORE
  -------         DO            
  x:0000H         SYMBOL        localInterruptOldStatus
  -------         ENDDO         
  C:6F00H         LINE#         6852
  C:6F06H         LINE#         6865
  C:6F1CH         LINE#         6867
  C:6F29H         LINE#         6869
BL51 BANKED LINKER/LOCATER V6.22                                                      11/17/2023  15:14:24  PAGE 122


  C:6F2FH         LINE#         6871
  C:6F32H         LINE#         6872
  C:6F32H         LINE#         6874
  C:6F32H         LINE#         6879
  C:6F38H         LINE#         6880
  C:6F38H         LINE#         6886
  C:6F38H         LINE#         6887
  C:6F43H         LINE#         6889
  -------         ENDPROC       _?CANCANINTERRUPTRESTORE
  -------         PROC          _?CANTXGETACTHANDLE
  x:0000H         SYMBOL        logicalTxHdl
  C:70E5H         LINE#         7389
  C:70EDH         LINE#         7391
  C:7103H         LINE#         7393
  C:711AH         LINE#         7394
  -------         ENDPROC       _?CANTXGETACTHANDLE
  -------         ENDMOD        CAN_DRV

  -------         MODULE        IL
  C:0000H         SYMBOL        _ICE_DUMMY_
  D:00A8H         PUBLIC        VSTDLIB_IE
 C1:F4CEH         PUBLIC        _IlCanGenericPrecopy
 C1:EAEDH         PUBLIC        _IlCanCancelNotification
  X:088FH         PUBLIC        ilChannelState
  X:0890H         PUBLIC        ilRxTimeoutCounter
  I:004CH         PUBLIC        ilRxTimerFlags
  I:004DH         PUBLIC        ilRxTimeoutFlags
  I:004EH         PUBLIC        ilTxState
  X:089CH         PUBLIC        ilTxUpdateCounter
  X:089DH         PUBLIC        ilTxNSendCounter
  C:73C1H         PUBLIC        kIlMainVersion
  C:73C2H         PUBLIC        kIlSubVersion
  C:73C3H         PUBLIC        kIlReleaseVersion
 C1:FD7DH         PUBLIC        IlInitPowerOn
 C1:9BBAH         PUBLIC        IlInit
 C1:DD21H         PUBLIC        IlRxStart
 C1:D57DH         PUBLIC        IlTxStart
 C1:F8D8H         PUBLIC        IlRxStop
 C1:F8E9H         PUBLIC        IlTxStop
 C1:FA3AH         PUBLIC        IlRxWait
 C1:FA48H         PUBLIC        IlTxWait
 C1:DE78H         PUBLIC        IlRxRelease
 C1:FA56H         PUBLIC        IlTxRelease
 C1:FCBCH         PUBLIC        IlRxTask
 C1:FCC3H         PUBLIC        IlTxTask
 C1:FDB6H         PUBLIC        IlRxStateTask
 C1:C9ECH         PUBLIC        IlTxStateTask
 C1:B7A3H         PUBLIC        IlRxTimerTask
 C1:AD41H         PUBLIC        IlTxTimerTask
 C1:EDD2H         PUBLIC        _?IlSetEvent
 C1:EA5FH         PUBLIC        _?IlSecureEvent
 C1:FD06H         PUBLIC        IlGetStatus
 C1:FA64H         PUBLIC        IlResetRxTimeoutFlags
  X:089EH         SYMBOL        ilTxEventCounter
  X:089FH         SYMBOL        ilTxCyclicCounter
 C1:D3B9H         SYMBOL        _IlSendMessage

BL51 BANKED LINKER/LOCATER V6.22                                                      11/17/2023  15:14:24  PAGE 123


  -------         PROC BANK=1   _ILSENDMESSAGE
  X:0B41H         SYMBOL        ilTxHnd
 C1:D3B9H         LINE#         865
 C1:D3BEH         LINE#         866
 C1:D3BEH         LINE#         868
 C1:D3C1H         LINE#         869
 C1:D3CDH         LINE#         882
 C1:D3DAH         LINE#         886
 C1:D3DDH         LINE#         888
 C1:D3FBH         LINE#         889
 C1:D3FBH         LINE#         890
 C1:D3FEH         LINE#         891
 C1:D3FEH         LINE#         892
 C1:D40AH         LINE#         893
 C1:D40AH         LINE#         894
 C1:D416H         LINE#         895
 C1:D419H         LINE#         896
 C1:D41AH         LINE#         899
 C1:D41AH         LINE#         900
 C1:D41DH         LINE#         902
 C1:D436H         LINE#         903
 C1:D436H         LINE#         904
 C1:D446H         LINE#         905
 C1:D446H         LINE#         906
 C1:D451H         LINE#         907
 C1:D454H         LINE#         908
 C1:D454H         LINE#         911
  -------         ENDPROC       _ILSENDMESSAGE

  -------         PROC BANK=1   ILINITPOWERON
 C1:FD7DH         LINE#         921
 C1:FD7DH         LINE#         922
 C1:FD7DH         LINE#         927
 C1:FD7DH         LINE#         928
 C1:FD80H         LINE#         929
 C1:FD80H         LINE#         930
  -------         ENDPROC       ILINITPOWERON

  -------         PROC BANK=1   ILINIT
  -------         DO            
  X:0AFEH         SYMBOL        ilRxHnd
  X:0AFFH         SYMBOL        ilTxHnd
  -------         ENDDO         
 C1:9BBAH         LINE#         935
 C1:9BBAH         LINE#         936
 C1:9BBAH         LINE#         946
 C1:9BBFH         LINE#         966
 C1:9BD0H         LINE#         968
 C1:9BD0H         LINE#         969
 C1:9BE4H         LINE#         971
 C1:9C02H         LINE#         972
 C1:9C02H         LINE#         974
 C1:9C18H         LINE#         975
 C1:9C18H         LINE#         977
 C1:9C4DH         LINE#         978
 C1:9C4FH         LINE#         981
 C1:9C4FH         LINE#         983
BL51 BANKED LINKER/LOCATER V6.22                                                      11/17/2023  15:14:24  PAGE 124


 C1:9C77H         LINE#         984
 C1:9C77H         LINE#         985
 C1:9C77H         LINE#         986
 C1:9C80H         LINE#         1002
 C1:9C83H         LINE#         1004
 C1:9C90H         LINE#         1023
 C1:9CA2H         LINE#         1025
 C1:9CA2H         LINE#         1026
 C1:9CB6H         LINE#         1038
 C1:9CEDH         LINE#         1039
 C1:9CEDH         LINE#         1041
 C1:9D02H         LINE#         1042
 C1:9D02H         LINE#         1044
 C1:9D67H         LINE#         1045
 C1:9D69H         LINE#         1048
 C1:9D69H         LINE#         1051
 C1:9DB0H         LINE#         1052
 C1:9DB0H         LINE#         1053
 C1:9DB0H         LINE#         1056
 C1:9DBAH         LINE#         1059
 C1:9DC6H         LINE#         1072
 C1:9DD2H         LINE#         1081
 C1:9DDEH         LINE#         1084
 C1:9DE7H         LINE#         1100
  -------         ENDPROC       ILINIT

  -------         PROC BANK=1   ILRXSTART
  -------         DO            
  X:0B42H         SYMBOL        ilRxToHnd
  -------         ENDDO         
 C1:DD21H         LINE#         1105
 C1:DD21H         LINE#         1106
 C1:DD21H         LINE#         1117
 C1:DD28H         LINE#         1118
 C1:DD28H         LINE#         1120
 C1:DD28H         LINE#         1143
 C1:DD37H         LINE#         1145
 C1:DD37H         LINE#         1146
 C1:DD4BH         LINE#         1153
 C1:DD73H         LINE#         1155
 C1:DD7BH         LINE#         1166
 C1:DD7EH         LINE#         1168
 C1:DD8BH         LINE#         1182
 C1:DD94H         LINE#         1189
  -------         ENDPROC       ILRXSTART

  -------         PROC BANK=1   ILTXSTART
  -------         DO            
  X:0B43H         SYMBOL        ilTxHnd
  -------         ENDDO         
 C1:D57DH         LINE#         1194
 C1:D57DH         LINE#         1195
 C1:D57DH         LINE#         1200
 C1:D587H         LINE#         1201
 C1:D587H         LINE#         1203
 C1:D587H         LINE#         1209
 C1:D596H         LINE#         1211
BL51 BANKED LINKER/LOCATER V6.22                                                      11/17/2023  15:14:24  PAGE 125


 C1:D596H         LINE#         1212
 C1:D5AAH         LINE#         1227
 C1:D5BAH         LINE#         1230
 C1:D5CAH         LINE#         1233
 C1:D5D6H         LINE#         1246
 C1:D5D6H         LINE#         1248
 C1:D5ECH         LINE#         1253
 C1:D5F8H         LINE#         1255
 C1:D5F8H         LINE#         1256
 C1:D600H         LINE#         1275
 C1:D603H         LINE#         1289
 C1:D60CH         LINE#         1296
  -------         ENDPROC       ILTXSTART

  -------         PROC BANK=1   ILRXSTOP
 C1:F8D8H         LINE#         1301
 C1:F8D8H         LINE#         1302
 C1:F8D8H         LINE#         1309
 C1:F8E1H         LINE#         1310
 C1:F8E1H         LINE#         1312
 C1:F8E1H         LINE#         1314
 C1:F8E8H         LINE#         1348
  -------         ENDPROC       ILRXSTOP

  -------         PROC BANK=1   ILTXSTOP
 C1:F8E9H         LINE#         1353
 C1:F8E9H         LINE#         1354
 C1:F8E9H         LINE#         1361
 C1:F8F2H         LINE#         1362
 C1:F8F2H         LINE#         1364
 C1:F8F2H         LINE#         1365
 C1:F8F9H         LINE#         1403
  -------         ENDPROC       ILTXSTOP

  -------         PROC BANK=1   ILRXWAIT
 C1:FA3AH         LINE#         1408
 C1:FA3AH         LINE#         1409
 C1:FA3AH         LINE#         1411
 C1:FA42H         LINE#         1412
 C1:FA42H         LINE#         1413
 C1:FA47H         LINE#         1414
 C1:FA47H         LINE#         1420
  -------         ENDPROC       ILRXWAIT

  -------         PROC BANK=1   ILTXWAIT
 C1:FA48H         LINE#         1425
 C1:FA48H         LINE#         1426
 C1:FA48H         LINE#         1428
 C1:FA50H         LINE#         1429
 C1:FA50H         LINE#         1430
 C1:FA55H         LINE#         1431
 C1:FA55H         LINE#         1437
  -------         ENDPROC       ILTXWAIT

  -------         PROC BANK=1   ILRXRELEASE
  -------         DO            
  X:0B44H         SYMBOL        ilRxToHnd
BL51 BANKED LINKER/LOCATER V6.22                                                      11/17/2023  15:14:24  PAGE 126


  -------         ENDDO         
 C1:DE78H         LINE#         1442
 C1:DE78H         LINE#         1443
 C1:DE78H         LINE#         1450
 C1:DE7FH         LINE#         1451
 C1:DE7FH         LINE#         1455
 C1:DE8CH         LINE#         1461
 C1:DE9BH         LINE#         1463
 C1:DE9BH         LINE#         1464
 C1:DEAFH         LINE#         1471
 C1:DED7H         LINE#         1473
 C1:DEDFH         LINE#         1481
 C1:DEE8H         LINE#         1482
 C1:DEE8H         LINE#         1489
  -------         ENDPROC       ILRXRELEASE

  -------         PROC BANK=1   ILTXRELEASE
 C1:FA56H         LINE#         1494
 C1:FA56H         LINE#         1495
 C1:FA56H         LINE#         1497
 C1:FA5EH         LINE#         1498
 C1:FA5EH         LINE#         1499
 C1:FA63H         LINE#         1500
 C1:FA63H         LINE#         1507
  -------         ENDPROC       ILTXRELEASE

  -------         PROC BANK=1   ILRXTASK
 C1:FCBCH         LINE#         1512
 C1:FCBCH         LINE#         1513
 C1:FCBCH         LINE#         1514
 C1:FCBFH         LINE#         1515
 C1:FCC2H         LINE#         1516
  -------         ENDPROC       ILRXTASK

  -------         PROC BANK=1   ILRXSTATETASK
 C1:FDB6H         LINE#         1521
 C1:FDB6H         LINE#         1522
 C1:FDB6H         LINE#         1579
  -------         ENDPROC       ILRXSTATETASK

  -------         PROC BANK=1   ILRXTIMERTASK
  -------         DO            
  X:09DEH         SYMBOL        ilRxToHnd
  X:09DFH         SYMBOL        ilRxPackedIndex
  X:09E0H         SYMBOL        ilRxPackedMask
  -------         DO            
  X:09E1H         SYMBOL        ilBitMask
  X:09E2H         SYMBOL        ilFlagMask
  -------         ENDDO         
  -------         ENDDO         
 C1:B7A3H         LINE#         1584
 C1:B7A3H         LINE#         1585
 C1:B7A3H         LINE#         1592
 C1:B7A8H         LINE#         1595
 C1:B7ADH         LINE#         1598
 C1:B7BDH         LINE#         1599
 C1:B7BDH         LINE#         1601
BL51 BANKED LINKER/LOCATER V6.22                                                      11/17/2023  15:14:24  PAGE 127


 C1:B7BDH         LINE#         1609
 C1:B7CEH         LINE#         1611
 C1:B7CEH         LINE#         1612
 C1:B7D4H         LINE#         1615
 C1:B7D7H         LINE#         1616
 C1:B7E3H         LINE#         1617
 C1:B7E5H         LINE#         1618
 C1:B7E8H         LINE#         1620
 C1:B7F2H         LINE#         1621
 C1:B7F2H         LINE#         1622
 C1:B7FDH         LINE#         1623
 C1:B802H         LINE#         1624
 C1:B802H         LINE#         1625
 C1:B82AH         LINE#         1626
 C1:B82CH         LINE#         1628
 C1:B82CH         LINE#         1629
 C1:B82CH         LINE#         1634
 C1:B843H         LINE#         1635
 C1:B843H         LINE#         1636
 C1:B85AH         LINE#         1637
 C1:B86DH         LINE#         1638
 C1:B86DH         LINE#         1639
 C1:B888H         LINE#         1640
 C1:B888H         LINE#         1641
 C1:B888H         LINE#         1645
 C1:B888H         LINE#         1646
 C1:B888H         LINE#         1647
 C1:B890H         LINE#         1648
 C1:B890H         LINE#         1649
 C1:B893H         LINE#         1650
 C1:B895H         LINE#         1652
 C1:B895H         LINE#         1653
 C1:B89CH         LINE#         1654
 C1:B89CH         LINE#         1655
 C1:B8A2H         LINE#         1660
 C1:B8ABH         LINE#         1662
 C1:B8ABH         LINE#         1663
 C1:B8B0H         LINE#         1664
 C1:B8B0H         LINE#         1665
 C1:B8B3H         LINE#         1666
 C1:B8BCH         LINE#         1676
  -------         ENDPROC       ILRXTIMERTASK

  -------         PROC BANK=1   ILTXTASK
 C1:FCC3H         LINE#         1681
 C1:FCC3H         LINE#         1682
 C1:FCC3H         LINE#         1683
 C1:FCC6H         LINE#         1684
 C1:FCC9H         LINE#         1685
  -------         ENDPROC       ILTXTASK

  -------         PROC BANK=1   ILTXSTATETASK
  -------         DO            
  X:0A84H         SYMBOL        ilTxHnd
  X:0A85H         SYMBOL        cth
  -------         ENDDO         
 C1:C9ECH         LINE#         1690
BL51 BANKED LINKER/LOCATER V6.22                                                      11/17/2023  15:14:24  PAGE 128


 C1:C9ECH         LINE#         1691
 C1:C9ECH         LINE#         1697
 C1:C9F7H         LINE#         1698
 C1:C9F7H         LINE#         1706
 C1:C9FDH         LINE#         1710
 C1:C9FDH         LINE#         1712
 C1:CA03H         LINE#         1715
 C1:CA1EH         LINE#         1717
 C1:CA28H         LINE#         1718
 C1:CA28H         LINE#         1720
 C1:CA4DH         LINE#         1721
 C1:CA4DH         LINE#         1723
 C1:CA50H         LINE#         1725
 C1:CA75H         LINE#         1727
 C1:CA8BH         LINE#         1728
 C1:CA8EH         LINE#         1731
 C1:CAADH         LINE#         1732
 C1:CAADH         LINE#         1733
 C1:CAB0H         LINE#         1734
 C1:CAB0H         LINE#         1736
 C1:CAB0H         LINE#         1737
 C1:CAB0H         LINE#         1763
 C1:CAB0H         LINE#         1767
 C1:CAB9H         LINE#         1769
 C1:CAB9H         LINE#         1776
  -------         ENDPROC       ILTXSTATETASK

  -------         PROC BANK=1   ILTXTIMERTASK
  -------         DO            
  X:0B45H         SYMBOL        ilTxHnd
  -------         ENDDO         
 C1:AD41H         LINE#         1781
 C1:AD41H         LINE#         1782
 C1:AD41H         LINE#         1787
 C1:AD4BH         LINE#         1788
 C1:AD4BH         LINE#         1800
 C1:AD51H         LINE#         1804
 C1:AD51H         LINE#         1806
 C1:AD57H         LINE#         1807
 C1:AD6BH         LINE#         1821
 C1:AD6EH         LINE#         1823
 C1:AD86H         LINE#         1824
 C1:AD86H         LINE#         1825
 C1:AD96H         LINE#         1826
 C1:AD96H         LINE#         1827
 C1:AD99H         LINE#         1829
 C1:AD99H         LINE#         1830
 C1:AD99H         LINE#         1836
 C1:ADA5H         LINE#         1837
 C1:ADA5H         LINE#         1838
 C1:ADB2H         LINE#         1839
 C1:ADB2H         LINE#         1840
 C1:ADC2H         LINE#         1841
 C1:ADC2H         LINE#         1844
 C1:ADD3H         LINE#         1845
 C1:ADD3H         LINE#         1872
 C1:ADD3H         LINE#         1874
BL51 BANKED LINKER/LOCATER V6.22                                                      11/17/2023  15:14:24  PAGE 129


 C1:ADE5H         LINE#         1875
 C1:ADE5H         LINE#         1881
 C1:ADE5H         LINE#         1883
 C1:ADF5H         LINE#         1885
 C1:ADF5H         LINE#         1888
 C1:ADF8H         LINE#         1889
 C1:AE03H         LINE#         1890
 C1:AE06H         LINE#         1891
 C1:AE06H         LINE#         1892
 C1:AE06H         LINE#         1893
 C1:AE06H         LINE#         1894
 C1:AE06H         LINE#         1905
 C1:AE20H         LINE#         1910
 C1:AE20H         LINE#         1911
 C1:AE31H         LINE#         1912
 C1:AE31H         LINE#         1913
 C1:AE3EH         LINE#         1914
 C1:AE3EH         LINE#         1917
 C1:AE4EH         LINE#         1918
 C1:AE4EH         LINE#         1919
 C1:AE51H         LINE#         1921
 C1:AE62H         LINE#         1922
 C1:AE62H         LINE#         1923
 C1:AE6AH         LINE#         1924
 C1:AE6CH         LINE#         1927
 C1:AE6CH         LINE#         1928
 C1:AE77H         LINE#         1929
 C1:AE77H         LINE#         1930
 C1:AE7AH         LINE#         1932
 C1:AE90H         LINE#         1933
 C1:AE90H         LINE#         1934
 C1:AE90H         LINE#         1939
 C1:AEA9H         LINE#         1940
 C1:AEA9H         LINE#         1956
 C1:AEB0H         LINE#         1957
 C1:AEB0H         LINE#         1958
 C1:AEB0H         LINE#         1959
 C1:AEB0H         LINE#         1960
 C1:AEB0H         LINE#         1964
 C1:AEB9H         LINE#         1966
 C1:AEB9H         LINE#         1972
  -------         ENDPROC       ILTXTIMERTASK

  -------         PROC BANK=1   _ILCANCANCELNOTIFICATION
  D:0004H         SYMBOL        txHandle
  -------         DO            
  D:0003H         SYMBOL        ilTxHnd
  -------         ENDDO         
 C1:EAEDH         LINE#         1986
 C1:EAF3H         LINE#         1987
 C1:EAF3H         LINE#         1991
 C1:EB20H         LINE#         1992
 C1:EB20H         LINE#         1993
 C1:EB2CH         LINE#         1994
 C1:EB2FH         LINE#         2000
  -------         ENDPROC       _ILCANCANCELNOTIFICATION

BL51 BANKED LINKER/LOCATER V6.22                                                      11/17/2023  15:14:24  PAGE 130


  -------         PROC BANK=1   _ILCANGENERICPRECOPY
  D:0001H         SYMBOL        rxStruct
 C1:F4CEH         LINE#         2024
 C1:F4CEH         LINE#         2027
 C1:F4CEH         LINE#         2036
 C1:F4DDH         LINE#         2037
 C1:F4DDH         LINE#         2038
 C1:F4E0H         LINE#         2039
 C1:F4E0H         LINE#         2040
 C1:F4E8H         LINE#         2041
 C1:F4E8H         LINE#         2042
 C1:F4EAH         LINE#         2043
 C1:F4EAH         LINE#         2056
 C1:F4ECH         LINE#         2072
  -------         ENDPROC       _ILCANGENERICPRECOPY

  -------         PROC BANK=1   ILGETSTATUS
 C1:FD06H         LINE#         2078
 C1:FD06H         LINE#         2079
 C1:FD06H         LINE#         2080
 C1:FD0BH         LINE#         2081
  -------         ENDPROC       ILGETSTATUS

  -------         PROC BANK=1   _?ILSETEVENT
  x:0000H         SYMBOL        ilTxHnd
 C1:EDD2H         LINE#         2246
 C1:EDDAH         LINE#         2249
 C1:EDF4H         LINE#         2258
 C1:EE02H         LINE#         2259
  -------         ENDPROC       _?ILSETEVENT

  -------         PROC BANK=1   _?ILSECUREEVENT
  x:0000H         SYMBOL        ilTxHnd
 C1:EA5FH         LINE#         2266
 C1:EA67H         LINE#         2269
 C1:EA81H         LINE#         2279
 C1:EA95H         LINE#         2282
 C1:EAA1H         LINE#         2283
  -------         ENDPROC       _?ILSECUREEVENT

  -------         PROC BANK=1   ILRESETRXTIMEOUTFLAGS
 C1:FA64H         LINE#         2314
 C1:FA64H         LINE#         2315
 C1:FA64H         LINE#         2321
 C1:FA71H         LINE#         2324
  -------         ENDPROC       ILRESETRXTIMEOUTFLAGS
  -------         ENDMOD        IL

  -------         MODULE        NM_BASIC
  C:0000H         SYMBOL        _ICE_DUMMY_
  D:00A8H         PUBLIC        VSTDLIB_IE
 C1:F564H         PUBLIC        NmBasicCanBusOff
 C1:FD12H         PUBLIC        _ApplCanTxObjStart
 C1:F609H         PUBLIC        _ApplCanTxObjConfirmed
 C1:FBE4H         PUBLIC        _ApplCanInit
  C:73C4H         PUBLIC        kNmBasicMainVersion
  C:73C5H         PUBLIC        kNmBasicSubVersion
BL51 BANKED LINKER/LOCATER V6.22                                                      11/17/2023  15:14:24  PAGE 131


  C:73C6H         PUBLIC        kNmBasicReleaseVersion
 C1:FD81H         PUBLIC        NmBasicInitPowerOn
 C1:F35EH         PUBLIC        NmBasicInit
 C1:C685H         PUBLIC        NmBasicTask
 C1:FCCAH         PUBLIC        NmBasicStart
 C1:FCD1H         PUBLIC        NmBasicStop
 C1:FD0CH         PUBLIC        NmBasicGetNetState
  X:097DH         SYMBOL        bNmBasicState
  X:097EH         SYMBOL        bNmBasicStateRequest
  X:097FH         SYMBOL        bNmBasicBusOffRecTimer
  X:0980H         SYMBOL        bNmBasicBusOffRecFastSlowTimer
  X:0981H         SYMBOL        bNmBasicBusOffRecSlowActive
  X:0982H         SYMBOL        bNmBasicBusOffFastToSlowChange
  X:0983H         SYMBOL        bNmBasicBusOffRepaired
  X:0984H         SYMBOL        bNmBasicBusOffRequest
 C1:F1C5H         SYMBOL        NmBasicDoTheStopHandling
 C1:F78CH         SYMBOL        NmBasicDoBusOffAbort

  -------         PROC BANK=1   NMBASICDOTHESTOPHANDLING
 C1:F1C5H         LINE#         801
 C1:F1C5H         LINE#         802
 C1:F1C5H         LINE#         822
 C1:F1CCH         LINE#         823
 C1:F1CCH         LINE#         824
 C1:F1CFH         LINE#         825
 C1:F1CFH         LINE#         831
 C1:F1D4H         LINE#         832
 C1:F1D6H         LINE#         833
 C1:F1D8H         LINE#         835
 C1:F1DAH         LINE#         848
 C1:F1DDH         LINE#         851
 C1:F1E0H         LINE#         862
 C1:F1E5H         LINE#         866
 C1:F1E8H         LINE#         870
 C1:F1EBH         LINE#         871
  -------         ENDPROC       NMBASICDOTHESTOPHANDLING

  -------         PROC BANK=1   NMBASICDOBUSOFFABORT
 C1:F78CH         LINE#         888
 C1:F78CH         LINE#         889
 C1:F78CH         LINE#         895
 C1:F791H         LINE#         899
 C1:F793H         LINE#         900
 C1:F795H         LINE#         901
 C1:F797H         LINE#         903
 C1:F799H         LINE#         918
 C1:F799H         LINE#         928
 C1:F799H         LINE#         932
 C1:F79CH         LINE#         936
 C1:F79FH         LINE#         938
  -------         ENDPROC       NMBASICDOBUSOFFABORT

  -------         PROC BANK=1   NMBASICINITPOWERON
 C1:FD81H         LINE#         954
 C1:FD81H         LINE#         955
 C1:FD81H         LINE#         991
 C1:FD84H         LINE#         993
BL51 BANKED LINKER/LOCATER V6.22                                                      11/17/2023  15:14:24  PAGE 132


  -------         ENDPROC       NMBASICINITPOWERON

  -------         PROC BANK=1   NMBASICINIT
 C1:F35EH         LINE#         1005
 C1:F35EH         LINE#         1006
 C1:F35EH         LINE#         1012
 C1:F364H         LINE#         1013
 C1:F369H         LINE#         1015
 C1:F36DH         LINE#         1019
 C1:F36FH         LINE#         1029
 C1:F371H         LINE#         1032
 C1:F373H         LINE#         1035
 C1:F375H         LINE#         1039
 C1:F377H         LINE#         1065
 C1:F377H         LINE#         1067
 C1:F37AH         LINE#         1074
 C1:F37DH         LINE#         1078
 C1:F380H         LINE#         1079
 C1:F380H         LINE#         1080
  -------         ENDPROC       NMBASICINIT

  -------         PROC BANK=1   NMBASICCANBUSOFF
 C1:F564H         LINE#         1092
 C1:F564H         LINE#         1093
 C1:F564H         LINE#         1114
 C1:F56BH         LINE#         1115
 C1:F56BH         LINE#         1117
 C1:F56EH         LINE#         1124
 C1:F573H         LINE#         1141
 C1:F579H         LINE#         1152
 C1:F57DH         LINE#         1153
 C1:F57DH         LINE#         1156
 C1:F580H         LINE#         1159
  -------         ENDPROC       NMBASICCANBUSOFF

  -------         PROC BANK=1   NMBASICSTART
 C1:FCCAH         LINE#         1171
 C1:FCCAH         LINE#         1172
 C1:FCCAH         LINE#         1187
 C1:FCD0H         LINE#         1188
  -------         ENDPROC       NMBASICSTART

  -------         PROC BANK=1   NMBASICSTOP
 C1:FCD1H         LINE#         1200
 C1:FCD1H         LINE#         1201
 C1:FCD1H         LINE#         1215
 C1:FCD7H         LINE#         1216
  -------         ENDPROC       NMBASICSTOP

  -------         PROC BANK=1   NMBASICGETNETSTATE
 C1:FD0CH         LINE#         1234
 C1:FD0CH         LINE#         1235
 C1:FD0CH         LINE#         1240
 C1:FD11H         LINE#         1241
  -------         ENDPROC       NMBASICGETNETSTATE

  -------         PROC BANK=1   _APPLCANINIT
BL51 BANKED LINKER/LOCATER V6.22                                                      11/17/2023  15:14:24  PAGE 133


  X:0B00H         SYMBOL        txHwObjectFirstUsed
  X:0B01H         SYMBOL        txHwObjectFirstUnused
 C1:FBE4H         LINE#         1260
 C1:FBECH         LINE#         1261
 C1:FBECH         LINE#         1268
 C1:FBECH         LINE#         1269
 C1:FBECH         LINE#         1277
  -------         ENDPROC       _APPLCANINIT

  -------         PROC BANK=1   _APPLCANTXOBJSTART
  X:0B46H         SYMBOL        txHwObject
 C1:FD12H         LINE#         1297
 C1:FD17H         LINE#         1298
 C1:FD17H         LINE#         1305
 C1:FD17H         LINE#         1314
  -------         ENDPROC       _APPLCANTXOBJSTART

  -------         PROC BANK=1   _APPLCANTXOBJCONFIRMED
  X:0B47H         SYMBOL        txHwObject
 C1:F609H         LINE#         1333
 C1:F60EH         LINE#         1334
 C1:F60EH         LINE#         1341
 C1:F60EH         LINE#         1353
 C1:F60EH         LINE#         1359
 C1:F615H         LINE#         1360
 C1:F615H         LINE#         1362
 C1:F617H         LINE#         1365
 C1:F61BH         LINE#         1368
 C1:F61DH         LINE#         1371
 C1:F61FH         LINE#         1375
 C1:F622H         LINE#         1376
 C1:F622H         LINE#         1378
 C1:F622H         LINE#         1379
  -------         ENDPROC       _APPLCANTXOBJCONFIRMED

  -------         PROC BANK=1   NMBASICTASK
 C1:C685H         LINE#         1399
 C1:C685H         LINE#         1400
 C1:C685H         LINE#         1412
 C1:C688H         LINE#         1446
 C1:C68EH         LINE#         1447
 C1:C68EH         LINE#         1449
 C1:C690H         LINE#         1451
 C1:C693H         LINE#         1452
 C1:C693H         LINE#         1454
 C1:C696H         LINE#         1455
 C1:C696H         LINE#         1456
 C1:C696H         LINE#         1493
 C1:C6ABH         LINE#         1494
 C1:C6ABH         LINE#         1496
 C1:C6ABH         LINE#         1498
 C1:C6B6H         LINE#         1499
 C1:C6B6H         LINE#         1503
 C1:C6B9H         LINE#         1510
 C1:C6BCH         LINE#         1514
 C1:C6BFH         LINE#         1517
 C1:C6C2H         LINE#         1521
BL51 BANKED LINKER/LOCATER V6.22                                                      11/17/2023  15:14:24  PAGE 134


 C1:C6C8H         LINE#         1524
 C1:C6CBH         LINE#         1525
 C1:C6CBH         LINE#         1526
 C1:C6CEH         LINE#         1529
 C1:C6CEH         LINE#         1535
 C1:C6D6H         LINE#         1536
 C1:C6D6H         LINE#         1565
 C1:C6DCH         LINE#         1566
 C1:C6DCH         LINE#         1568
 C1:C6E2H         LINE#         1571
 C1:C6E6H         LINE#         1572
 C1:C6E6H         LINE#         1574
 C1:C6E9H         LINE#         1575
 C1:C6E9H         LINE#         1576
 C1:C6EBH         LINE#         1578
 C1:C6EBH         LINE#         1580
 C1:C6F1H         LINE#         1583
 C1:C6F7H         LINE#         1584
 C1:C6F7H         LINE#         1586
 C1:C6F9H         LINE#         1589
 C1:C6FCH         LINE#         1590
 C1:C6FCH         LINE#         1591
 C1:C6FCH         LINE#         1594
 C1:C702H         LINE#         1644
 C1:C707H         LINE#         1645
 C1:C707H         LINE#         1649
 C1:C70FH         LINE#         1650
 C1:C70FH         LINE#         1653
 C1:C716H         LINE#         1654
 C1:C716H         LINE#         1656
 C1:C719H         LINE#         1657
 C1:C719H         LINE#         1661
 C1:C71CH         LINE#         1664
 C1:C722H         LINE#         1667
 C1:C725H         LINE#         1668
 C1:C725H         LINE#         1670
 C1:C727H         LINE#         1674
 C1:C727H         LINE#         1676
 C1:C72EH         LINE#         1677
 C1:C72EH         LINE#         1679
 C1:C731H         LINE#         1682
 C1:C734H         LINE#         1685
 C1:C73AH         LINE#         1688
 C1:C73DH         LINE#         1689
 C1:C73FH         LINE#         1691
 C1:C73FH         LINE#         1697
 C1:C745H         LINE#         1698
 C1:C745H         LINE#         1700
 C1:C747H         LINE#         1703
 C1:C74AH         LINE#         1704
 C1:C74AH         LINE#         1722
 C1:C74AH         LINE#         1732
 C1:C74AH         LINE#         1735
 C1:C74DH         LINE#         1738
 C1:C750H         LINE#         1741
 C1:C756H         LINE#         1742
 C1:C756H         LINE#         1744
BL51 BANKED LINKER/LOCATER V6.22                                                      11/17/2023  15:14:24  PAGE 135


 C1:C756H         LINE#         1746
 C1:C756H         LINE#         1750
 C1:C758H         LINE#         1756
 C1:C758H         LINE#         1759
 C1:C75DH         LINE#         1760
 C1:C75DH         LINE#         1761
 C1:C75DH         LINE#         1764
 C1:C760H         LINE#         1765
  -------         ENDPROC       NMBASICTASK
  -------         ENDMOD        NM_BASIC

  -------         MODULE        SIP_VERS
  C:0000H         SYMBOL        _ICE_DUMMY_
  D:00A8H         PUBLIC        VSTDLIB_IE
  C:73C7H         PUBLIC        kSipMainVersion
  C:73C8H         PUBLIC        kSipSubVersion
  C:73C9H         PUBLIC        kSipBugFixVersion
  -------         ENDMOD        SIP_VERS

  -------         MODULE        TPMC
  C:0000H         SYMBOL        _ICE_DUMMY_
  D:00A8H         PUBLIC        VSTDLIB_IE
 C1:C2BEH         PUBLIC        _TpFuncPrecopy
 C1:8000H         PUBLIC        _TpPrecopy
 C1:F1ECH         PUBLIC        _TpDrvConfirmation
  C:73CAH         PUBLIC        kTpMainVersion
  C:73CBH         PUBLIC        kTpSubVersion
  C:73CCH         PUBLIC        kTpBugFixVersion
 C1:F9B4H         PUBLIC        TpInitPowerOn
 C1:F8A2H         PUBLIC        TpInit
 C1:FCD8H         PUBLIC        TpTask
 C1:E592H         PUBLIC        TpTxTask
 C1:E8E6H         PUBLIC        TpRxTask
 C1:D726H         PUBLIC        _TpTransmit
 C1:FD1EH         PUBLIC        TpTxResetChannel
 C1:FD18H         PUBLIC        TpRxResetChannel
 C1:FB96H         PUBLIC        TpRxGetStatus
 C1:FB4EH         PUBLIC        TpRxGetCanBuffer
 C1:FB5AH         PUBLIC        _TpRxSetFCStatus
 C1:FCDFH         PUBLIC        TpRxGetFCStatus
 C1:C1C7H         PUBLIC        TpTxStateTask
 C1:C0CFH         PUBLIC        TpRxStateTask
  I:0023H         PUBLIC        tpRxInfoStruct
  I:002FH         PUBLIC        tpTxInfoStruct
 C1:FD5CH         PUBLIC        TpFuncResetChannel
 C1:FB66H         PUBLIC        TpFuncGetCanBuffer
  I:0039H         SYMBOL        tpTxState
  I:003DH         SYMBOL        tpRxState
  I:0041H         SYMBOL        tpStateTaskBusy
 C1:E0A1H         SYMBOL        _TpTxInit
 C1:E898H         SYMBOL        _TpRxInit
 C1:B2C0H         SYMBOL        TpTxPreCanTransmit
 C1:ECF0H         SYMBOL        TpTxInternalPrepareOfCF
 C1:DC35H         SYMBOL        TpTxPostProcessing
 C1:F470H         SYMBOL        TpRxPostProcessing
 C1:FD57H         PUBLIC        TpFuncInit
  I:0042H         SYMBOL        tpTransmitChannel
BL51 BANKED LINKER/LOCATER V6.22                                                      11/17/2023  15:14:24  PAGE 136


  I:0043H         SYMBOL        tpFuncState_engine
  I:0044H         SYMBOL        tpFuncInfoStruct

  -------         PROC BANK=1   TPINITPOWERON
 C1:F9B4H         LINE#         1548
 C1:F9B4H         LINE#         1549
 C1:F9B4H         LINE#         1587
 C1:F9B4H         LINE#         1592
 C1:F9B8H         LINE#         1611
 C1:F9BBH         LINE#         1613
 C1:F9BFH         LINE#         1615
 C1:F9BFH         LINE#         1618
 C1:F9C2H         LINE#         1620
  -------         ENDPROC       TPINITPOWERON

  -------         PROC BANK=1   TPINIT
 C1:F8A2H         LINE#         1634
 C1:F8A2H         LINE#         1635
 C1:F8A2H         LINE#         1643
 C1:F8A6H         LINE#         1651
 C1:F8A6H         LINE#         1652
 C1:F8ABH         LINE#         1663
 C1:F8B0H         LINE#         1664
 C1:F8B0H         LINE#         1667
 C1:F8B3H         LINE#         1670
  -------         ENDPROC       TPINIT

  -------         PROC BANK=1   _TPTXINIT
  X:0B02H         SYMBOL        errorCode
  -------         DO            
  X:0B03H         SYMBOL        tpErrorIndResult
  -------         ENDDO         
 C1:E0A1H         LINE#         1691
 C1:E0A6H         LINE#         1695
 C1:E0A6H         LINE#         1703
 C1:E0A9H         LINE#         1706
 C1:E0AFH         LINE#         1707
 C1:E0BDH         LINE#         1709
 C1:E0BDH         LINE#         1710
 C1:E0BFH         LINE#         1711
 C1:E0CCH         LINE#         1713
 C1:E0CEH         LINE#         1714
 C1:E0CEH         LINE#         1715
 C1:E0D1H         LINE#         1717
 C1:E0D1H         LINE#         1719
 C1:E0D1H         LINE#         1721
 C1:E0D5H         LINE#         1726
 C1:E0DBH         LINE#         1727
 C1:E0DEH         LINE#         1736
 C1:E0E4H         LINE#         1739
 C1:E0E4H         LINE#         1740
 C1:E0E7H         LINE#         1741
 C1:E0ECH         LINE#         1760
 C1:E0F0H         LINE#         1779
 C1:E0F6H         LINE#         1790
 C1:E0F6H         LINE#         1793
 C1:E0FBH         LINE#         1795
BL51 BANKED LINKER/LOCATER V6.22                                                      11/17/2023  15:14:24  PAGE 137


 C1:E0FBH         LINE#         1796
 C1:E100H         LINE#         1798
 C1:E104H         LINE#         1799
 C1:E104H         LINE#         1804
 C1:E107H         LINE#         1806
  -------         ENDPROC       _TPTXINIT

  -------         PROC BANK=1   _TPRXINIT
  X:0B48H         SYMBOL        errorCode
 C1:E898H         LINE#         1824
 C1:E89DH         LINE#         1828
 C1:E89DH         LINE#         1834
 C1:E8A0H         LINE#         1837
 C1:E8AEH         LINE#         1839
 C1:E8AEH         LINE#         1840
 C1:E8B0H         LINE#         1841
 C1:E8B8H         LINE#         1842
 C1:E8B8H         LINE#         1843
 C1:E8BCH         LINE#         1846
 C1:E8BFH         LINE#         1847
 C1:E8C4H         LINE#         1848
 C1:E8C7H         LINE#         1875
 C1:E8CDH         LINE#         1894
 C1:E8D2H         LINE#         1902
 C1:E8D2H         LINE#         1904
 C1:E8D8H         LINE#         1906
 C1:E8D8H         LINE#         1916
 C1:E8DEH         LINE#         1918
 C1:E8E2H         LINE#         1919
 C1:E8E2H         LINE#         1920
 C1:E8E2H         LINE#         1927
 C1:E8E5H         LINE#         1929
  -------         ENDPROC       _TPRXINIT

  -------         PROC BANK=1   _TPPRECOPY
  X:0A11H         SYMBOL        rxStruct
  -------         DO            
  X:0A14H         SYMBOL        counter
  D:0007H         SYMBOL        tpSTminInFrame
  -------         ENDDO         
 C1:8000H         LINE#         1949
 C1:800BH         LINE#         1958
 C1:800BH         LINE#         2146
 C1:802FH         LINE#         2147
 C1:802FH         LINE#         2152
 C1:802FH         LINE#         2159
 C1:802FH         LINE#         2160
 C1:802FH         LINE#         2168
 C1:8035H         LINE#         2169
 C1:8035H         LINE#         2179
 C1:8038H         LINE#         2182
 C1:8038H         LINE#         2186
 C1:803BH         LINE#         2187
 C1:803BH         LINE#         2190
 C1:803BH         LINE#         2191
 C1:8040H         LINE#         2192
 C1:8040H         LINE#         2194
BL51 BANKED LINKER/LOCATER V6.22                                                      11/17/2023  15:14:24  PAGE 138


 C1:8040H         LINE#         2199
 C1:8044H         LINE#         2222
 C1:804AH         LINE#         2225
 C1:806CH         LINE#         2226
 C1:806CH         LINE#         2234
 C1:806CH         LINE#         2237
 C1:806CH         LINE#         2242
 C1:806CH         LINE#         2244
 C1:8079H         LINE#         2245
 C1:8099H         LINE#         2248
 C1:80A6H         LINE#         2250
 C1:80A6H         LINE#         2253
 C1:80ACH         LINE#         2256
 C1:80BDH         LINE#         2260
 C1:80D4H         LINE#         2263
 C1:80E0H         LINE#         2265
 C1:80E0H         LINE#         2303
 C1:80E0H         LINE#         2304
 C1:80E0H         LINE#         2305
 C1:80E4H         LINE#         2306
 C1:80E4H         LINE#         2307
 C1:80E7H         LINE#         2310
 C1:80E7H         LINE#         2311
 C1:80E7H         LINE#         2316
 C1:80E7H         LINE#         2317
 C1:80EBH         LINE#         2318
 C1:80EFH         LINE#         2321
 C1:80F4H         LINE#         2323
 C1:80F7H         LINE#         2325
 C1:80F7H         LINE#         2333
 C1:80F7H         LINE#         2334
 C1:80FAH         LINE#         2337
 C1:80FAH         LINE#         2339
 C1:80FAH         LINE#         2341
 C1:810AH         LINE#         2342
 C1:810AH         LINE#         2356
 C1:8131H         LINE#         2357
 C1:815BH         LINE#         2358
 C1:8185H         LINE#         2359
 C1:81AFH         LINE#         2360
 C1:81D9H         LINE#         2362
 C1:81D9H         LINE#         2363
 C1:8203H         LINE#         2364
 C1:8203H         LINE#         2387
 C1:820AH         LINE#         2388
 C1:8212H         LINE#         2392
 C1:8212H         LINE#         2393
 C1:8216H         LINE#         2394
 C1:821AH         LINE#         2396
 C1:821FH         LINE#         2398
 C1:8222H         LINE#         2400
 C1:8222H         LINE#         2410
 C1:8224H         LINE#         2412
 C1:8224H         LINE#         2413
 C1:8228H         LINE#         2414
 C1:8228H         LINE#         2415
 C1:8228H         LINE#         2416
BL51 BANKED LINKER/LOCATER V6.22                                                      11/17/2023  15:14:24  PAGE 139


 C1:822AH         LINE#         2418
 C1:822AH         LINE#         2419
 C1:822EH         LINE#         2420
 C1:8231H         LINE#         2421
 C1:8231H         LINE#         2422
 C1:8231H         LINE#         2430
 C1:8231H         LINE#         2431
 C1:8234H         LINE#         2436
 C1:8234H         LINE#         2441
 C1:8250H         LINE#         2451
 C1:8250H         LINE#         2452
 C1:8268H         LINE#         2457
 C1:8268H         LINE#         2460
 C1:826EH         LINE#         2462
 C1:8290H         LINE#         2466
 C1:82A7H         LINE#         2469
 C1:82BBH         LINE#         2471
 C1:82CFH         LINE#         2476
 C1:82CFH         LINE#         2489
 C1:82E3H         LINE#         2490
 C1:82E3H         LINE#         2491
 C1:831DH         LINE#         2492
 C1:8325H         LINE#         2514
 C1:8325H         LINE#         2515
 C1:8329H         LINE#         2517
 C1:8333H         LINE#         2518
 C1:8333H         LINE#         2519
 C1:8335H         LINE#         2521
 C1:8335H         LINE#         2522
 C1:8339H         LINE#         2523
 C1:833CH         LINE#         2524
 C1:833CH         LINE#         2525
 C1:833EH         LINE#         2527
 C1:833EH         LINE#         2528
 C1:8342H         LINE#         2529
 C1:8345H         LINE#         2530
 C1:8345H         LINE#         2531
 C1:8345H         LINE#         2539
 C1:8348H         LINE#         2543
 C1:8348H         LINE#         2545
 C1:834CH         LINE#         2546
 C1:834FH         LINE#         2547
 C1:8352H         LINE#         2548
 C1:8352H         LINE#         2550
 C1:8352H         LINE#         2551
 C1:8355H         LINE#         2557
 C1:8355H         LINE#         2566
 C1:8355H         LINE#         2568
 C1:8365H         LINE#         2573
 C1:8365H         LINE#         2576
 C1:8365H         LINE#         2578
 C1:8365H         LINE#         2583
 C1:836AH         LINE#         2584
 C1:836AH         LINE#         2585
 C1:8370H         LINE#         2586
 C1:8370H         LINE#         2588
 C1:8376H         LINE#         2590
BL51 BANKED LINKER/LOCATER V6.22                                                      11/17/2023  15:14:24  PAGE 140


 C1:837CH         LINE#         2594
 C1:8390H         LINE#         2595
 C1:8390H         LINE#         2597
 C1:8390H         LINE#         2598
 C1:8393H         LINE#         2599
 C1:8393H         LINE#         2600
 C1:8393H         LINE#         2603
 C1:83AAH         LINE#         2604
 C1:83AAH         LINE#         2613
 C1:83AAH         LINE#         2615
 C1:83C9H         LINE#         2616
 C1:83C9H         LINE#         2629
 C1:83C9H         LINE#         2630
 C1:83CEH         LINE#         2632
 C1:83CEH         LINE#         2634
 C1:83D1H         LINE#         2636
 C1:83D1H         LINE#         2638
 C1:83F3H         LINE#         2646
 C1:83F3H         LINE#         2648
 C1:840DH         LINE#         2649
 C1:840DH         LINE#         2650
 C1:845CH         LINE#         2651
 C1:8464H         LINE#         2672
 C1:8464H         LINE#         2673
 C1:8464H         LINE#         2674
 C1:8468H         LINE#         2675
 C1:846CH         LINE#         2677
 C1:8476H         LINE#         2678
 C1:8476H         LINE#         2679
 C1:8476H         LINE#         2680
 C1:8476H         LINE#         2681
 C1:8479H         LINE#         2683
 C1:8479H         LINE#         2688
 C1:8479H         LINE#         2690
 C1:8498H         LINE#         2691
 C1:8498H         LINE#         2692
 C1:849DH         LINE#         2694
 C1:84A0H         LINE#         2696
 C1:84A0H         LINE#         2698
 C1:84C2H         LINE#         2706
 C1:84C2H         LINE#         2708
 C1:84F3H         LINE#         2709
 C1:8521H         LINE#         2710
 C1:854FH         LINE#         2711
 C1:857DH         LINE#         2712
 C1:85ABH         LINE#         2713
 C1:85D9H         LINE#         2715
 C1:85D9H         LINE#         2716
 C1:8607H         LINE#         2717
 C1:8607H         LINE#         2739
 C1:8607H         LINE#         2740
 C1:8611H         LINE#         2744
 C1:8622H         LINE#         2748
 C1:8627H         LINE#         2749
 C1:8627H         LINE#         2750
 C1:8628H         LINE#         2752
 C1:862BH         LINE#         2753
BL51 BANKED LINKER/LOCATER V6.22                                                      11/17/2023  15:14:24  PAGE 141


 C1:862BH         LINE#         2754
 C1:862EH         LINE#         2755
 C1:8632H         LINE#         2757
 C1:8638H         LINE#         2759
 C1:863BH         LINE#         2761
 C1:863EH         LINE#         2762
 C1:863EH         LINE#         2763
 C1:863EH         LINE#         2764
 C1:8642H         LINE#         2765
 C1:8646H         LINE#         2766
 C1:8646H         LINE#         2767
 C1:8646H         LINE#         2768
 C1:8646H         LINE#         2769
 C1:8649H         LINE#         2770
 C1:8649H         LINE#         2771
 C1:8649H         LINE#         2773
 C1:8649H         LINE#         2775
 C1:8649H         LINE#         2776
 C1:8649H         LINE#         2782
 C1:8649H         LINE#         2787
 C1:8649H         LINE#         2789
 C1:865EH         LINE#         2795
 C1:865EH         LINE#         2797
 C1:865EH         LINE#         2805
 C1:865EH         LINE#         2811
 C1:8664H         LINE#         2812
 C1:8664H         LINE#         2813
 C1:8676H         LINE#         2816
 C1:8676H         LINE#         2818
 C1:867CH         LINE#         2820
 C1:8682H         LINE#         2823
 C1:8696H         LINE#         2824
 C1:8696H         LINE#         2825
 C1:8696H         LINE#         2827
 C1:8696H         LINE#         2829
 C1:8699H         LINE#         2830
 C1:8699H         LINE#         2833
 C1:86A3H         LINE#         2835
 C1:86A3H         LINE#         2844
 C1:86A3H         LINE#         2846
 C1:86CBH         LINE#         2847
 C1:86CBH         LINE#         2848
 C1:86CBH         LINE#         2849
 C1:86CBH         LINE#         2850
 C1:86CBH         LINE#         2852
 C1:86D2H         LINE#         2854
 C1:86D2H         LINE#         2856
 C1:86D5H         LINE#         2857
 C1:86EFH         LINE#         2863
 C1:86F6H         LINE#         2888
 C1:86FBH         LINE#         2889
 C1:86FBH         LINE#         2890
 C1:86FFH         LINE#         2891
 C1:8701H         LINE#         2894
 C1:8701H         LINE#         2896
 C1:8705H         LINE#         2897
 C1:8705H         LINE#         2899
BL51 BANKED LINKER/LOCATER V6.22                                                      11/17/2023  15:14:24  PAGE 142


 C1:8710H         LINE#         2900
 C1:8710H         LINE#         2902
 C1:8714H         LINE#         2903
 C1:8716H         LINE#         2906
 C1:8716H         LINE#         2908
 C1:871AH         LINE#         2909
 C1:871AH         LINE#         2910
 C1:871CH         LINE#         2913
 C1:871CH         LINE#         2936
 C1:872FH         LINE#         2939
 C1:872FH         LINE#         2940
 C1:872FH         LINE#         2942
 C1:872FH         LINE#         2944
 C1:8735H         LINE#         2949
 C1:873BH         LINE#         2951
 C1:873FH         LINE#         2958
 C1:873FH         LINE#         2959
 C1:873FH         LINE#         2960
 C1:8741H         LINE#         2963
 C1:8741H         LINE#         2978
 C1:8745H         LINE#         2981
 C1:8747H         LINE#         2985
 C1:8747H         LINE#         2989
 C1:874CH         LINE#         2991
 C1:874EH         LINE#         2993
 C1:874EH         LINE#         2999
 C1:874EH         LINE#         3000
 C1:8753H         LINE#         3001
 C1:8753H         LINE#         3003
 C1:8753H         LINE#         3004
 C1:8753H         LINE#         3005
 C1:8753H         LINE#         3006
 C1:8753H         LINE#         3007
 C1:8756H         LINE#         3008
 C1:8756H         LINE#         3009
 C1:8756H         LINE#         3010
 C1:8756H         LINE#         3019
 C1:8756H         LINE#         3020
 C1:8756H         LINE#         3024
 C1:8756H         LINE#         3025
 C1:8756H         LINE#         3026
 C1:8756H         LINE#         3027
 C1:8758H         LINE#         3028
  -------         ENDPROC       _TPPRECOPY

  -------         PROC BANK=1   _TPTRANSMIT
  X:09E3H         SYMBOL        ptrData
  X:09E6H         SYMBOL        count
 C1:D726H         LINE#         3048
 C1:D737H         LINE#         3052
 C1:D737H         LINE#         3058
 C1:D747H         LINE#         3082
 C1:D751H         LINE#         3083
 C1:D751H         LINE#         3084
 C1:D754H         LINE#         3085
 C1:D754H         LINE#         3094
 C1:D757H         LINE#         3108
BL51 BANKED LINKER/LOCATER V6.22                                                      11/17/2023  15:14:24  PAGE 143


 C1:D757H         LINE#         3109
 C1:D75CH         LINE#         3110
 C1:D75CH         LINE#         3111
 C1:D75FH         LINE#         3112
 C1:D762H         LINE#         3113
 C1:D762H         LINE#         3115
 C1:D762H         LINE#         3116
 C1:D762H         LINE#         3118
 C1:D772H         LINE#         3119
 C1:D772H         LINE#         3120
 C1:D776H         LINE#         3121
 C1:D778H         LINE#         3123
 C1:D778H         LINE#         3124
 C1:D77CH         LINE#         3125
 C1:D77CH         LINE#         3126
 C1:D780H         LINE#         3127
 C1:D780H         LINE#         3132
 C1:D798H         LINE#         3133
 C1:D79DH         LINE#         3134
 C1:D7A3H         LINE#         3144
 C1:D7A3H         LINE#         3145
 C1:D7A9H         LINE#         3146
 C1:D7A9H         LINE#         3152
 C1:D7ACH         LINE#         3153
 C1:D7AEH         LINE#         3154
  -------         ENDPROC       _TPTRANSMIT

  -------         PROC BANK=1   TPTASK
 C1:FCD8H         LINE#         3168
 C1:FCD8H         LINE#         3169
 C1:FCD8H         LINE#         3170
 C1:FCDBH         LINE#         3171
 C1:FCDEH         LINE#         3172
  -------         ENDPROC       TPTASK

  -------         PROC BANK=1   TPTXSTATETASK
  -------         DO            
  X:0A15H         SYMBOL        pTpTxState
  D:0007H         SYMBOL        preTransmitResult
  X:0A18H         SYMBOL        tpCanTxReturn
  -------         ENDDO         
 C1:C1C7H         LINE#         3212
 C1:C1C7H         LINE#         3216
 C1:C1C7H         LINE#         3224
 C1:C1CFH         LINE#         3225
 C1:C1CFH         LINE#         3226
 C1:C1D1H         LINE#         3229
 C1:C1D7H         LINE#         3230
 C1:C1D7H         LINE#         3232
 C1:C1DAH         LINE#         3233
 C1:C1EBH         LINE#         3234
 C1:C1F9H         LINE#         3236
 C1:C1F9H         LINE#         3237
 C1:C1FFH         LINE#         3239
 C1:C202H         LINE#         3241
 C1:C20EH         LINE#         3242
 C1:C215H         LINE#         3243
BL51 BANKED LINKER/LOCATER V6.22                                                      11/17/2023  15:14:24  PAGE 144


 C1:C215H         LINE#         3245
 C1:C21BH         LINE#         3247
 C1:C21BH         LINE#         3248
 C1:C21EH         LINE#         3251
 C1:C21EH         LINE#         3252
 C1:C221H         LINE#         3253
 C1:C221H         LINE#         3255
 C1:C224H         LINE#         3257
 C1:C224H         LINE#         3258
 C1:C22DH         LINE#         3259
 C1:C22DH         LINE#         3261
 C1:C230H         LINE#         3263
 C1:C241H         LINE#         3264
 C1:C24AH         LINE#         3266
 C1:C24AH         LINE#         3267
 C1:C250H         LINE#         3268
 C1:C250H         LINE#         3269
 C1:C251H         LINE#         3271
 C1:C257H         LINE#         3273
 C1:C25AH         LINE#         3274
 C1:C25DH         LINE#         3275
 C1:C25DH         LINE#         3279
 C1:C267H         LINE#         3281
 C1:C26AH         LINE#         3283
 C1:C272H         LINE#         3284
 C1:C272H         LINE#         3286
 C1:C278H         LINE#         3287
 C1:C278H         LINE#         3288
 C1:C27AH         LINE#         3290
 C1:C27AH         LINE#         3295
 C1:C28BH         LINE#         3299
 C1:C28BH         LINE#         3300
 C1:C28FH         LINE#         3301
 C1:C28FH         LINE#         3302
 C1:C295H         LINE#         3303
 C1:C297H         LINE#         3305
 C1:C297H         LINE#         3306
 C1:C2A2H         LINE#         3307
 C1:C2A2H         LINE#         3308
 C1:C2A2H         LINE#         3311
 C1:C2A6H         LINE#         3312
 C1:C2ACH         LINE#         3314
 C1:C2AFH         LINE#         3316
 C1:C2AFH         LINE#         3317
 C1:C2B1H         LINE#         3320
 C1:C2B1H         LINE#         3322
 C1:C2B4H         LINE#         3324
 C1:C2B4H         LINE#         3326
 C1:C2B6H         LINE#         3329
 C1:C2B6H         LINE#         3330
 C1:C2B9H         LINE#         3331
 C1:C2B9H         LINE#         3333
 C1:C2B9H         LINE#         3334
 C1:C2B9H         LINE#         3336
 C1:C2BDH         LINE#         3337
 C1:C2BDH         LINE#         3339
  -------         ENDPROC       TPTXSTATETASK
BL51 BANKED LINKER/LOCATER V6.22                                                      11/17/2023  15:14:24  PAGE 145



  -------         PROC BANK=1   TPRXSTATETASK
  -------         DO            
  X:0A19H         SYMBOL        pTpRxState
  X:0A1CH         SYMBOL        tpCanTxReturn
  -------         ENDDO         
 C1:C0CFH         LINE#         3380
 C1:C0CFH         LINE#         3384
 C1:C0CFH         LINE#         3393
 C1:C0D7H         LINE#         3394
 C1:C0D7H         LINE#         3395
 C1:C0D9H         LINE#         3398
 C1:C0DEH         LINE#         3399
 C1:C0DEH         LINE#         3401
 C1:C0E1H         LINE#         3402
 C1:C0F2H         LINE#         3403
 C1:C0FEH         LINE#         3405
 C1:C0FEH         LINE#         3406
 C1:C104H         LINE#         3407
 C1:C107H         LINE#         3408
 C1:C113H         LINE#         3409
 C1:C11AH         LINE#         3410
 C1:C11AH         LINE#         3412
 C1:C120H         LINE#         3414
 C1:C120H         LINE#         3415
 C1:C123H         LINE#         3418
 C1:C123H         LINE#         3419
 C1:C126H         LINE#         3420
 C1:C126H         LINE#         3422
 C1:C129H         LINE#         3424
 C1:C129H         LINE#         3425
 C1:C132H         LINE#         3426
 C1:C132H         LINE#         3428
 C1:C135H         LINE#         3429
 C1:C146H         LINE#         3430
 C1:C14FH         LINE#         3432
 C1:C14FH         LINE#         3436
 C1:C162H         LINE#         3444
 C1:C168H         LINE#         3445
 C1:C168H         LINE#         3446
 C1:C16AH         LINE#         3447
 C1:C170H         LINE#         3468
 C1:C170H         LINE#         3470
 C1:C176H         LINE#         3471
 C1:C176H         LINE#         3473
 C1:C178H         LINE#         3474
 C1:C17AH         LINE#         3475
 C1:C17CH         LINE#         3476
 C1:C17EH         LINE#         3483
 C1:C183H         LINE#         3484
 C1:C183H         LINE#         3485
 C1:C189H         LINE#         3486
 C1:C18BH         LINE#         3489
 C1:C18BH         LINE#         3490
 C1:C18BH         LINE#         3502
 C1:C191H         LINE#         3505
 C1:C191H         LINE#         3506
BL51 BANKED LINKER/LOCATER V6.22                                                      11/17/2023  15:14:24  PAGE 146


 C1:C191H         LINE#         3507
 C1:C191H         LINE#         3508
 C1:C197H         LINE#         3509
 C1:C19BH         LINE#         3511
 C1:C19FH         LINE#         3512
 C1:C19FH         LINE#         3515
 C1:C1ABH         LINE#         3516
 C1:C1AFH         LINE#         3517
 C1:C1AFH         LINE#         3519
 C1:C1B5H         LINE#         3520
 C1:C1B5H         LINE#         3522
 C1:C1B8H         LINE#         3524
 C1:C1BAH         LINE#         3527
 C1:C1BAH         LINE#         3529
 C1:C1BDH         LINE#         3531
 C1:C1BDH         LINE#         3533
 C1:C1BFH         LINE#         3536
 C1:C1BFH         LINE#         3537
 C1:C1C2H         LINE#         3538
 C1:C1C2H         LINE#         3540
 C1:C1C2H         LINE#         3541
 C1:C1C2H         LINE#         3543
 C1:C1C6H         LINE#         3544
 C1:C1C6H         LINE#         3546
  -------         ENDPROC       TPRXSTATETASK

  -------         PROC BANK=1   TPTXPRECANTRANSMIT
  -------         DO            
  X:092FH         SYMBOL        tpCopyToCanInfoStruct
  D:0006H         SYMBOL        i
  D:0007H         SYMBOL        rc
  X:0938H         SYMBOL        offset
  -------         ENDDO         
 C1:B2C0H         LINE#         3562
 C1:B2C0H         LINE#         3566
 C1:B2C0H         LINE#         3578
 C1:B2C5H         LINE#         3586
 C1:B2E5H         LINE#         3588
 C1:B2FFH         LINE#         3589
 C1:B2FFH         LINE#         3590
 C1:B2FFH         LINE#         3595
 C1:B30AH         LINE#         3597
 C1:B310H         LINE#         3599
 C1:B320H         LINE#         3600
 C1:B328H         LINE#         3605
 C1:B32BH         LINE#         3606
 C1:B32BH         LINE#         3620
 C1:B32BH         LINE#         3621
 C1:B331H         LINE#         3622
 C1:B331H         LINE#         3623
 C1:B341H         LINE#         3624
 C1:B347H         LINE#         3627
 C1:B34DH         LINE#         3630
 C1:B360H         LINE#         3631
 C1:B369H         LINE#         3633
 C1:B36FH         LINE#         3637
 C1:B375H         LINE#         3638
BL51 BANKED LINKER/LOCATER V6.22                                                      11/17/2023  15:14:24  PAGE 147


 C1:B379H         LINE#         3639
 C1:B37BH         LINE#         3644
 C1:B37BH         LINE#         3646
 C1:B37BH         LINE#         3656
 C1:B37BH         LINE#         3657
 C1:B381H         LINE#         3658
 C1:B381H         LINE#         3659
 C1:B38CH         LINE#         3661
 C1:B392H         LINE#         3663
 C1:B3A2H         LINE#         3664
 C1:B3A8H         LINE#         3665
 C1:B3A8H         LINE#         3666
 C1:B3BBH         LINE#         3670
 C1:B3BDH         LINE#         3672
 C1:B3BDH         LINE#         3673
 C1:B3C6H         LINE#         3677
 C1:B3C6H         LINE#         3678
 C1:B3D0H         LINE#         3679
 C1:B3D2H         LINE#         3680
 C1:B3D2H         LINE#         3682
 C1:B3D7H         LINE#         3683
 C1:B3DAH         LINE#         3685
 C1:B3DAH         LINE#         3710
 C1:B3E3H         LINE#         3712
 C1:B3EEH         LINE#         3713
 C1:B3F4H         LINE#         3714
 C1:B3F4H         LINE#         3715
 C1:B401H         LINE#         3716
 C1:B402H         LINE#         3717
 C1:B404H         LINE#         3719
 C1:B404H         LINE#         3722
  -------         ENDPROC       TPTXPRECANTRANSMIT

  -------         PROC BANK=1   _TPDRVCONFIRMATION
  X:0B04H         SYMBOL        txObject
 C1:F1ECH         LINE#         3790
 C1:F1F4H         LINE#         3791
 C1:F1F4H         LINE#         3794
 C1:F1F4H         LINE#         3808
 C1:F1F9H         LINE#         3809
 C1:F1F9H         LINE#         3810
 C1:F1FCH         LINE#         3811
 C1:F1FDH         LINE#         3813
 C1:F1FDH         LINE#         3814
 C1:F20FH         LINE#         3819
 C1:F212H         LINE#         3821
 C1:F212H         LINE#         3822
  -------         ENDPROC       _TPDRVCONFIRMATION

  -------         PROC BANK=1   TPTXPOSTPROCESSING
 C1:DC35H         LINE#         3844
 C1:DC35H         LINE#         3848
 C1:DC35H         LINE#         3855
 C1:DC35H         LINE#         3858
 C1:DC46H         LINE#         3859
 C1:DC46H         LINE#         3863
 C1:DC46H         LINE#         3868
BL51 BANKED LINKER/LOCATER V6.22                                                      11/17/2023  15:14:24  PAGE 148


 C1:DC46H         LINE#         3869
 C1:DC58H         LINE#         3870
 C1:DC6FH         LINE#         3871
 C1:DC6FH         LINE#         3873
 C1:DC74H         LINE#         3876
 C1:DC74H         LINE#         3888
 C1:DC78H         LINE#         3889
 C1:DC7BH         LINE#         3891
 C1:DC7BH         LINE#         3895
 C1:DC7BH         LINE#         3896
 C1:DC7DH         LINE#         3900
 C1:DC7DH         LINE#         3904
 C1:DC7DH         LINE#         3905
 C1:DC81H         LINE#         3906
 C1:DC85H         LINE#         3909
 C1:DC8AH         LINE#         3911
 C1:DC8AH         LINE#         3923
 C1:DC8CH         LINE#         3927
 C1:DC8CH         LINE#         3933
 C1:DC91H         LINE#         3934
 C1:DC91H         LINE#         3935
 C1:DC92H         LINE#         3936
 C1:DC95H         LINE#         3937
 C1:DC95H         LINE#         3938
 C1:DC98H         LINE#         3939
 C1:DC9CH         LINE#         3940
 C1:DC9EH         LINE#         3941
 C1:DC9EH         LINE#         3942
 C1:DC9EH         LINE#         3943
 C1:DC9EH         LINE#         3944
 C1:DCA4H         LINE#         3945
 C1:DCA8H         LINE#         3946
 C1:DCA8H         LINE#         3947
 C1:DCA8H         LINE#         3948
 C1:DCA8H         LINE#         3951
 C1:DCA8H         LINE#         3954
 C1:DCACH         LINE#         3958
 C1:DCACH         LINE#         3965
  -------         ENDPROC       TPTXPOSTPROCESSING

  -------         PROC BANK=1   TPRXPOSTPROCESSING
 C1:F470H         LINE#         3982
 C1:F470H         LINE#         3986
 C1:F470H         LINE#         3996
 C1:F470H         LINE#         3997
 C1:F47AH         LINE#         3998
 C1:F47AH         LINE#         3999
 C1:F47AH         LINE#         4010
 C1:F47AH         LINE#         4011
 C1:F47EH         LINE#         4012
 C1:F482H         LINE#         4016
 C1:F482H         LINE#         4017
 C1:F484H         LINE#         4020
 C1:F484H         LINE#         4022
 C1:F488H         LINE#         4023
 C1:F48BH         LINE#         4024
 C1:F48BH         LINE#         4028
BL51 BANKED LINKER/LOCATER V6.22                                                      11/17/2023  15:14:24  PAGE 149


 C1:F48BH         LINE#         4030
 C1:F48BH         LINE#         4032
 C1:F48FH         LINE#         4035
 C1:F48FH         LINE#         4042
  -------         ENDPROC       TPRXPOSTPROCESSING

  -------         PROC BANK=1   TPTXINTERNALPREPAREOFCF
 C1:ECF0H         LINE#         4114
 C1:ECF0H         LINE#         4118
 C1:ECF0H         LINE#         4121
 C1:ED01H         LINE#         4124
 C1:ED15H         LINE#         4125
 C1:ED15H         LINE#         4126
 C1:ED19H         LINE#         4127
 C1:ED1BH         LINE#         4129
 C1:ED1BH         LINE#         4130
 C1:ED1FH         LINE#         4131
 C1:ED1FH         LINE#         4132
 C1:ED23H         LINE#         4135
 C1:ED29H         LINE#         4136
  -------         ENDPROC       TPTXINTERNALPREPAREOFCF

  -------         PROC BANK=1   TPTXTASK
  -------         DO            
  D:0001H         SYMBOL        pTpTxState
  -------         ENDDO         
 C1:E592H         LINE#         4150
 C1:E592H         LINE#         4151
 C1:E592H         LINE#         4152
 C1:E592H         LINE#         4164
 C1:E597H         LINE#         4165
 C1:E597H         LINE#         4166
 C1:E59AH         LINE#         4167
 C1:E5A0H         LINE#         4168
 C1:E5A5H         LINE#         4169
 C1:E5A5H         LINE#         4170
 C1:E5A8H         LINE#         4172
 C1:E5ABH         LINE#         4173
 C1:E5ABH         LINE#         4174
 C1:E5BCH         LINE#         4175
 C1:E5BCH         LINE#         4176
 C1:E5BCH         LINE#         4177
 C1:E5C1H         LINE#         4178
 C1:E5C4H         LINE#         4179
 C1:E5C5H         LINE#         4180
 C1:E5C5H         LINE#         4181
 C1:E5C8H         LINE#         4182
 C1:E5CBH         LINE#         4184
 C1:E5CEH         LINE#         4185
 C1:E5CFH         LINE#         4187
 C1:E5CFH         LINE#         4188
 C1:E5CFH         LINE#         4189
 C1:E5CFH         LINE#         4190
 C1:E5CFH         LINE#         4192
 C1:E5D4H         LINE#         4193
 C1:E5D7H         LINE#         4194
 C1:E5D8H         LINE#         4229
BL51 BANKED LINKER/LOCATER V6.22                                                      11/17/2023  15:14:24  PAGE 150


 C1:E5D8H         LINE#         4230
 C1:E5DBH         LINE#         4231
 C1:E5E0H         LINE#         4232
 C1:E5E1H         LINE#         4233
 C1:E5E1H         LINE#         4234
 C1:E5E2H         LINE#         4236
 C1:E5E2H         LINE#         4237
 C1:E5E5H         LINE#         4239
 C1:E5E8H         LINE#         4240
 C1:E5E8H         LINE#         4241
 C1:E5E9H         LINE#         4243
 C1:E5E9H         LINE#         4244
 C1:E5ECH         LINE#         4245
 C1:E5ECH         LINE#         4246
 C1:E5ECH         LINE#         4248
 C1:E5ECH         LINE#         4252
 C1:E5ECH         LINE#         4253
 C1:E5ECH         LINE#         4254
  -------         ENDPROC       TPTXTASK

  -------         PROC BANK=1   TPRXTASK
  -------         DO            
  D:0001H         SYMBOL        pTpRxState
  -------         ENDDO         
 C1:E8E6H         LINE#         4268
 C1:E8E6H         LINE#         4269
 C1:E8E6H         LINE#         4270
 C1:E8E6H         LINE#         4278
 C1:E8EBH         LINE#         4279
 C1:E8EBH         LINE#         4280
 C1:E8EEH         LINE#         4281
 C1:E8F4H         LINE#         4282
 C1:E8F9H         LINE#         4283
 C1:E8F9H         LINE#         4284
 C1:E8FCH         LINE#         4286
 C1:E8FFH         LINE#         4287
 C1:E8FFH         LINE#         4288
 C1:E90DH         LINE#         4289
 C1:E90DH         LINE#         4291
 C1:E90DH         LINE#         4292
 C1:E912H         LINE#         4293
 C1:E915H         LINE#         4294
 C1:E916H         LINE#         4296
 C1:E916H         LINE#         4298
 C1:E916H         LINE#         4304
 C1:E91BH         LINE#         4305
 C1:E91EH         LINE#         4306
 C1:E91FH         LINE#         4331
 C1:E91FH         LINE#         4332
 C1:E922H         LINE#         4333
 C1:E927H         LINE#         4334
 C1:E928H         LINE#         4335
 C1:E928H         LINE#         4336
 C1:E929H         LINE#         4338
 C1:E929H         LINE#         4339
 C1:E92CH         LINE#         4342
 C1:E92FH         LINE#         4344
BL51 BANKED LINKER/LOCATER V6.22                                                      11/17/2023  15:14:24  PAGE 151


 C1:E92FH         LINE#         4345
 C1:E930H         LINE#         4347
 C1:E930H         LINE#         4348
 C1:E933H         LINE#         4349
 C1:E933H         LINE#         4350
 C1:E933H         LINE#         4351
 C1:E933H         LINE#         4352
  -------         ENDPROC       TPRXTASK

  -------         PROC BANK=1   TPRXGETSTATUS
 C1:FB96H         LINE#         4569
 C1:FB96H         LINE#         4573
 C1:FB96H         LINE#         4578
 C1:FB9BH         LINE#         4579
 C1:FB9BH         LINE#         4580
 C1:FB9EH         LINE#         4581
 C1:FB9EH         LINE#         4583
 C1:FB9EH         LINE#         4584
 C1:FBA0H         LINE#         4585
 C1:FBA0H         LINE#         4586
  -------         ENDPROC       TPRXGETSTATUS

  -------         PROC BANK=1   TPRXRESETCHANNEL
 C1:FD18H         LINE#         4598
 C1:FD18H         LINE#         4602
 C1:FD18H         LINE#         4606
 C1:FD1DH         LINE#         4608
  -------         ENDPROC       TPRXRESETCHANNEL

  -------         PROC BANK=1   TPRXGETCANBUFFER
 C1:FB4EH         LINE#         4760
 C1:FB4EH         LINE#         4764
 C1:FB4EH         LINE#         4766
 C1:FB59H         LINE#         4770
  -------         ENDPROC       TPRXGETCANBUFFER

  -------         PROC BANK=1   _TPRXSETFCSTATUS
  D:0007H         SYMBOL        FCStatus
 C1:FB5AH         LINE#         4783
 C1:FB5AH         LINE#         4787
 C1:FB5AH         LINE#         4789
 C1:FB65H         LINE#         4793
  -------         ENDPROC       _TPRXSETFCSTATUS

  -------         PROC BANK=1   TPRXGETFCSTATUS
 C1:FCDFH         LINE#         4808
 C1:FCDFH         LINE#         4812
 C1:FCDFH         LINE#         4814
 C1:FCE5H         LINE#         4818
  -------         ENDPROC       TPRXGETFCSTATUS

  -------         PROC BANK=1   TPTXRESETCHANNEL
 C1:FD1EH         LINE#         5117
 C1:FD1EH         LINE#         5121
 C1:FD1EH         LINE#         5125
 C1:FD23H         LINE#         5127
  -------         ENDPROC       TPTXRESETCHANNEL
BL51 BANKED LINKER/LOCATER V6.22                                                      11/17/2023  15:14:24  PAGE 152



  -------         PROC BANK=1   TPFUNCINIT
 C1:FD57H         LINE#         5338
 C1:FD57H         LINE#         5339
 C1:FD57H         LINE#         5340
 C1:FD5BH         LINE#         5342
  -------         ENDPROC       TPFUNCINIT

  -------         PROC BANK=1   _TPFUNCPRECOPY
  X:0A1DH         SYMBOL        rxStruct
  -------         DO            
  X:0A20H         SYMBOL        i
  -------         ENDDO         
 C1:C2BEH         LINE#         5346
 C1:C2C9H         LINE#         5355
 C1:C2C9H         LINE#         5409
 C1:C2D1H         LINE#         5410
 C1:C2D1H         LINE#         5490
 C1:C2D1H         LINE#         5491
 C1:C2ECH         LINE#         5492
 C1:C2ECH         LINE#         5493
 C1:C2F7H         LINE#         5495
 C1:C303H         LINE#         5497
 C1:C303H         LINE#         5506
 C1:C303H         LINE#         5507
 C1:C30FH         LINE#         5508
 C1:C30FH         LINE#         5517
 C1:C331H         LINE#         5518
 C1:C348H         LINE#         5520
 C1:C34CH         LINE#         5521
 C1:C34CH         LINE#         5523
 C1:C34CH         LINE#         5542
 C1:C34CH         LINE#         5544
 C1:C360H         LINE#         5545
 C1:C360H         LINE#         5546
 C1:C39AH         LINE#         5547
 C1:C3A2H         LINE#         5548
 C1:C3A2H         LINE#         5550
 C1:C3A6H         LINE#         5552
 C1:C3B0H         LINE#         5553
 C1:C3B0H         LINE#         5554
 C1:C3B0H         LINE#         5555
 C1:C3B0H         LINE#         5556
 C1:C3B0H         LINE#         5557
 C1:C3B0H         LINE#         5558
 C1:C3B0H         LINE#         5559
 C1:C3B0H         LINE#         5560
 C1:C3B0H         LINE#         5561
 C1:C3B2H         LINE#         5562
  -------         ENDPROC       _TPFUNCPRECOPY

  -------         PROC BANK=1   TPFUNCRESETCHANNEL
 C1:FD5CH         LINE#         5656
 C1:FD5CH         LINE#         5657
 C1:FD5CH         LINE#         5658
 C1:FD60H         LINE#         5659
  -------         ENDPROC       TPFUNCRESETCHANNEL
BL51 BANKED LINKER/LOCATER V6.22                                                      11/17/2023  15:14:24  PAGE 153



  -------         PROC BANK=1   TPFUNCGETCANBUFFER
 C1:FB66H         LINE#         5743
 C1:FB66H         LINE#         5744
 C1:FB66H         LINE#         5745
 C1:FB71H         LINE#         5746
  -------         ENDPROC       TPFUNCGETCANBUFFER
  -------         ENDMOD        TPMC

  -------         MODULE        VSTDLIB
  C:0000H         SYMBOL        _ICE_DUMMY_
  D:00A8H         PUBLIC        VSTDLIB_IE
  B:00A8H.7       PUBLIC        VSTDLIB_EA
  C:73CDH         PUBLIC        kVStdMainVersion
  C:73CEH         PUBLIC        kVStdSubVersion
  C:73CFH         PUBLIC        kVStdReleaseVersion
 C1:FBFEH         PUBLIC        VStdInitPowerOn
 C1:E298H         PUBLIC        _?VStdMemClrInternal
 C1:E108H         PUBLIC        _?VStdMemSetInternal
 C1:DFCAH         PUBLIC        _?VStdRamMemCpy
 C1:DAC2H         PUBLIC        _?VStdRomMemCpy
 C1:F07EH         PUBLIC        _?VStdSuspendAllInterrupts
 C1:F23AH         PUBLIC        _?VStdResumeAllInterrupts
  X:0B06H         SYMBOL        vstdInterruptOldStatus
  X:0B07H         SYMBOL        vstdInterruptCounter

  -------         PROC BANK=1   VSTDINITPOWERON
 C1:FBFEH         LINE#         287
 C1:FBFEH         LINE#         288
 C1:FBFEH         LINE#         292
 C1:FC03H         LINE#         295
 C1:FC05H         LINE#         299
  -------         ENDPROC       VSTDINITPOWERON

  -------         PROC BANK=1   _?VSTDMEMSETINTERNAL
  x:0000H         SYMBOL        pDest
  x:0003H         SYMBOL        nPattern
  x:0004H         SYMBOL        nCnt
 C1:E108H         LINE#         314
 C1:E11EH         LINE#         318
 C1:E130H         LINE#         319
 C1:E130H         LINE#         320
 C1:E13DH         LINE#         321
 C1:E165H         LINE#         322
 C1:E167H         LINE#         323
  -------         ENDPROC       _?VSTDMEMSETINTERNAL

  -------         PROC BANK=1   _?VSTDMEMCLRINTERNAL
  x:0000H         SYMBOL        pDest
  x:0003H         SYMBOL        nCnt
 C1:E298H         LINE#         338
 C1:E2B1H         LINE#         342
 C1:E2C3H         LINE#         343
 C1:E2C3H         LINE#         344
 C1:E2D0H         LINE#         345
 C1:E2F0H         LINE#         346
 C1:E2F2H         LINE#         347
BL51 BANKED LINKER/LOCATER V6.22                                                      11/17/2023  15:14:24  PAGE 154


  -------         ENDPROC       _?VSTDMEMCLRINTERNAL

  -------         PROC BANK=1   _?VSTDRAMMEMCPY
  x:0000H         SYMBOL        pDest
  x:0003H         SYMBOL        pSrc
  x:0006H         SYMBOL        nCnt
 C1:DFCAH         LINE#         363
 C1:DFD8H         LINE#         368
 C1:DFEAH         LINE#         369
 C1:DFEAH         LINE#         370
 C1:DFF7H         LINE#         371
 C1:E02EH         LINE#         372
 C1:E030H         LINE#         373
  -------         ENDPROC       _?VSTDRAMMEMCPY

  -------         PROC BANK=1   _?VSTDROMMEMCPY
  x:0000H         SYMBOL        pDest
  x:0003H         SYMBOL        pSrc
  x:0005H         SYMBOL        nCnt
 C1:DAC2H         LINE#         389
 C1:DADBH         LINE#         394
 C1:DAEDH         LINE#         395
 C1:DAEDH         LINE#         396
 C1:DAFAH         LINE#         397
 C1:DB39H         LINE#         398
 C1:DB3BH         LINE#         399
  -------         ENDPROC       _?VSTDROMMEMCPY

  -------         PROC BANK=1   _?VSTDSUSPENDALLINTERRUPTS
  -------         DO            
  x:0000H         SYMBOL        localInterruptOldStatus
  -------         ENDDO         
 C1:F07EH         LINE#         424
 C1:F084H         LINE#         432
 C1:F08AH         LINE#         433
 C1:F08AH         LINE#         434
 C1:F096H         LINE#         435
 C1:F09BH         LINE#         436
 C1:F09BH         LINE#         437
 C1:F0A1H         LINE#         439
  -------         ENDPROC       _?VSTDSUSPENDALLINTERRUPTS

  -------         PROC BANK=1   _?VSTDRESUMEALLINTERRUPTS
  -------         DO            
  x:0000H         SYMBOL        localInterruptOldStatus
  -------         ENDDO         
 C1:F23AH         LINE#         451
 C1:F240H         LINE#         459
 C1:F246H         LINE#         460
 C1:F249H         LINE#         461
 C1:F249H         LINE#         462
 C1:F254H         LINE#         463
 C1:F259H         LINE#         464
 C1:F259H         LINE#         466
  -------         ENDPROC       _?VSTDRESUMEALLINTERRUPTS
  -------         ENDMOD        VSTDLIB

BL51 BANKED LINKER/LOCATER V6.22                                                      11/17/2023  15:14:24  PAGE 155


  -------         MODULE        APPDESC
  C:0000H         SYMBOL        _ICE_DUMMY_
  D:00A8H         PUBLIC        VSTDLIB_IE
 C2:94BBH         PUBLIC        _ApplDescFatalError
 C2:947FH         PUBLIC        _ApplDescOnTransitionSession
 C2:948EH         PUBLIC        _ApplDescOnTransitionSecurityAccess
 C2:9413H         PUBLIC        _ApplDescEcuResetHard
 C2:9425H         PUBLIC        _ApplDescEcuResetSoft
 C2:921AH         PUBLIC        _ApplDescClearDiagInfo
 C2:8000H         PUBLIC        _ApplDescReadDtcRDTCBSM
 C2:949DH         PUBLIC        _ApplDescReadMemoryByAddress
 C2:92E7H         PUBLIC        _ApplDescWriteDidCAMERA_System_On_Time
 C2:92FBH         PUBLIC        _ApplDescWriteDidCAMERA_Operating_Time_and_System_On
 C2:930FH         PUBLIC        _ApplDescWriteDidCAMERA_Warning_Text_Language
 C2:9323H         PUBLIC        _ApplDescWriteDidCAMERA_Reset_Counter
 C2:8E44H         PUBLIC        _ApplDescRequestDownload
 C2:907AH         PUBLIC        _ApplDescTransferData
 C2:9437H         PUBLIC        _ApplDescRequestTransferExit
 C2:8ED9H         PUBLIC        _ApplDescWriteMemoryByAddress
 C2:9449H         PUBLIC        _ApplDescControlDtcSettingEnable
 C2:945BH         PUBLIC        _ApplDescControlDtcSettingDisable
 C2:94ACH         PUBLIC        _ApplDescCheckCommCtrl
 C2:94C9H         PUBLIC        _ApplDescSetCommModeOnRxPath
 C2:94D5H         PUBLIC        ApplDescOnCommunicationDisable
 C2:94D6H         PUBLIC        ApplDescOnCommunicationEnable
 C2:946DH         PUBLIC        _ApplDescCheckSessionTransition
 C2:8AE7H         PUBLIC        _ApplDescSecurityAccessGetSeed
 C2:88A5H         PUBLIC        _ApplDescSecurityAccessCheckKey
 C2:83C1H         PUBLIC        _ApplDescReadDidCAMERA_Record_Data_Identifier
 C2:85C3H         PUBLIC        _ApplDescReadDidCanDatabasVersionIdentifier
 C2:9132H         PUBLIC        _ApplDescReadDidCAMERA_System_On_Time
 C2:916CH         PUBLIC        _ApplDescReadDidCAMERA_Operating_Time_and_System_On
 C2:91A6H         PUBLIC        _ApplDescReadDidCAMERA_Warning_Text_Language
 C2:91E0H         PUBLIC        _ApplDescReadDidCAMERA_Reset_Counter
 C2:8751H         PUBLIC        _ApplDescReadDidOEMSparePartNumberDataIdentifier
 C2:89CDH         PUBLIC        _ApplDescReadDidECUManufacturingDateDataIdentifier
 C2:8F68H         PUBLIC        _ApplDescReadDidSystemSupplierECUHardwareVersionNumberDataIdentifier
 C2:8FF1H         PUBLIC        _ApplDescReadDidSystemSupplierECUSoftwareVersionNumberDataIdentifier
 C2:92CEH         PUBLIC        _ApplDescRtnCtrlStartCAMERA_Sensor_Reset
 C2:9337H         PUBLIC        _ApplDescRtnCtrlStopCAMERA_Sensor_Reset
 C2:924DH         PUBLIC        _ApplDescRtnCtrlStartCAMERA_Guideline_Off
 C2:927DH         PUBLIC        _ApplDescRtnCtrlStopCAMERA_Guideline_Off
 C2:9298H         PUBLIC        _ApplDescRtnCtrlStartCAMERA_Warning_Text_Off
 C2:92B3H         PUBLIC        _ApplDescRtnCtrlStopCAMERA_Warning_Text_Off
 C2:934BH         PUBLIC        _ApplDescRtnCtrlStartCalibrationMode_OnOff
 C2:935FH         PUBLIC        _ApplDescRtnCtrlStopCalibrationMode_OnOff
 C2:9373H         PUBLIC        _ApplDescRtnCtrlStartCalibrationMode_Default
 C2:9387H         PUBLIC        _ApplDescRtnCtrlStopCalibrationMode_Default
 C2:939BH         PUBLIC        _ApplDescRtnCtrlStartCalibrationMode_Left
 C2:93AFH         PUBLIC        _ApplDescRtnCtrlStopCalibrationMode_Left
 C2:93C3H         PUBLIC        _ApplDescRtnCtrlStartCalibrationMode_Right
 C2:93D7H         PUBLIC        _ApplDescRtnCtrlStopCalibrationMode_Right
 C2:8DA7H         PUBLIC        _ApplDescRtnCtrlStartErase_Memory
 C2:8CEDH         PUBLIC        _ApplDescRtnCtrlStopErase_Memory
 C2:93EBH         PUBLIC        _ApplDescRtnCtrlStartCheck_Programming_Dependencies
 C2:93FFH         PUBLIC        _ApplDescRtnCtrlStopCheck_Programming_Dependencies
  X:0942H         PUBLIC        transferdata_number
BL51 BANKED LINKER/LOCATER V6.22                                                      11/17/2023  15:14:24  PAGE 156


 C2:8BF2H         SYMBOL        SecM_ComputeKey
 C2:90D6H         SYMBOL        _SecM_Serializer
  X:0943H         SYMBOL        g_applDescSeedX
  X:0947H         SYMBOL        g_applDescSeedY

  -------         PROC BANK=2   _APPLDESCFATALERROR
  X:0A87H         SYMBOL        errorCode
  X:0A88H         SYMBOL        lineNumber
 C2:94BBH         LINE#         227
 C2:94C6H         LINE#         228
 C2:94C6H         LINE#         231
 C2:94C6H         LINE#         232
 C2:94C6H         LINE#         236
  -------         ENDPROC       _APPLDESCFATALERROR

  -------         PROC BANK=2   _APPLDESCONTRANSITIONSESSION
  X:0A21H         SYMBOL        newState
  X:0A23H         SYMBOL        formerState
 C2:947FH         LINE#         278
 C2:948DH         LINE#         279
 C2:948DH         LINE#         285
 C2:948DH         LINE#         286
 C2:948DH         LINE#         288
  -------         ENDPROC       _APPLDESCONTRANSITIONSESSION
  -------         PROC          _APPLDESCONTRANSITIONSECURITYACCESS
  X:0A25H         SYMBOL        newState
  X:0A27H         SYMBOL        formerState
 C2:948EH         LINE#         307
 C2:949CH         LINE#         308
 C2:949CH         LINE#         314
 C2:949CH         LINE#         315
 C2:949CH         LINE#         317
  -------         ENDPROC       _APPLDESCONTRANSITIONSECURITYACCESS

  -------         PROC BANK=2   _APPLDESCECURESETHARD
  X:0A8AH         SYMBOL        pMsgContext
 C2:9413H         LINE#         352
 C2:941EH         LINE#         353
 C2:941EH         LINE#         358
 C2:9421H         LINE#         359
 C2:9424H         LINE#         361
  -------         ENDPROC       _APPLDESCECURESETHARD

  -------         PROC BANK=2   _APPLDESCECURESETSOFT
  X:0A8DH         SYMBOL        pMsgContext
 C2:9425H         LINE#         396
 C2:9430H         LINE#         397
 C2:9430H         LINE#         402
 C2:9433H         LINE#         403
 C2:9436H         LINE#         405
  -------         ENDPROC       _APPLDESCECURESETSOFT

  -------         PROC BANK=2   _APPLDESCCLEARDIAGINFO
  X:0A90H         SYMBOL        pMsgContext
 C2:921AH         LINE#         440
 C2:9225H         LINE#         441
 C2:9225H         LINE#         445
BL51 BANKED LINKER/LOCATER V6.22                                                      11/17/2023  15:14:24  PAGE 157


 C2:923FH         LINE#         446
 C2:923FH         LINE#         447
 C2:9242H         LINE#         450
 C2:9244H         LINE#         452
 C2:9244H         LINE#         454
 C2:9249H         LINE#         455
 C2:9249H         LINE#         457
 C2:924CH         LINE#         458
  -------         ENDPROC       _APPLDESCCLEARDIAGINFO

  -------         PROC BANK=2   _APPLDESCREADDTCRDTCBSM
  X:09E8H         SYMBOL        pMsgContext
  -------         DO            
  X:09EBH         SYMBOL        ID
  X:09ECH         SYMBOL        ret
  -------         ENDDO         
 C2:8000H         LINE#         493
 C2:800BH         LINE#         494
 C2:800BH         LINE#         501
 C2:8019H         LINE#         502
 C2:8019H         LINE#         506
 C2:805CH         LINE#         508
 C2:8066H         LINE#         509
 C2:806BH         LINE#         510
 C2:806BH         LINE#         512
 C2:80AEH         LINE#         513
 C2:80F1H         LINE#         514
 C2:8133H         LINE#         515
 C2:817AH         LINE#         516
 C2:817AH         LINE#         517
 C2:8184H         LINE#         518
 C2:8189H         LINE#         519
 C2:8189H         LINE#         520
 C2:81CCH         LINE#         521
 C2:820FH         LINE#         522
 C2:8251H         LINE#         523
 C2:8298H         LINE#         524
 C2:8298H         LINE#         525
 C2:82A2H         LINE#         526
 C2:82A7H         LINE#         527
 C2:82A7H         LINE#         528
 C2:82EAH         LINE#         529
 C2:832DH         LINE#         530
 C2:836FH         LINE#         531
 C2:83B6H         LINE#         532
 C2:83B6H         LINE#         536
 C2:83B8H         LINE#         538
 C2:83B8H         LINE#         540
 C2:83BDH         LINE#         541
 C2:83BDH         LINE#         543
 C2:83C0H         LINE#         544
  -------         ENDPROC       _APPLDESCREADDTCRDTCBSM

  -------         PROC BANK=2   _APPLDESCREADMEMORYBYADDRESS
  X:0A93H         SYMBOL        pMsgContext
 C2:949DH         LINE#         579
 C2:94A8H         LINE#         580
BL51 BANKED LINKER/LOCATER V6.22                                                      11/17/2023  15:14:24  PAGE 158


 C2:94A8H         LINE#         585
 C2:94ABH         LINE#         586
  -------         ENDPROC       _APPLDESCREADMEMORYBYADDRESS
  -------         PROC          _APPLDESCWRITEDIDCAMERA_SYSTEM_ON_TIME
  D:0001H         SYMBOL        pMsgContext
 C2:92E7H         LINE#         621
 C2:92E7H         LINE#         622
 C2:92E7H         LINE#         626
 C2:92F2H         LINE#         627
 C2:92F2H         LINE#         630
 C2:92F2H         LINE#         632
 C2:92F2H         LINE#         634
 C2:92F7H         LINE#         635
 C2:92F7H         LINE#         637
 C2:92FAH         LINE#         638
  -------         ENDPROC       _APPLDESCWRITEDIDCAMERA_SYSTEM_ON_TIME
  -------         PROC          _APPLDESCWRITEDIDCAMERA_OPERATING_TIME_AND_SYSTEM_ON
  D:0001H         SYMBOL        pMsgContext
 C2:92FBH         LINE#         673
 C2:92FBH         LINE#         674
 C2:92FBH         LINE#         678
 C2:9306H         LINE#         679
 C2:9306H         LINE#         682
 C2:9306H         LINE#         684
 C2:9306H         LINE#         686
 C2:930BH         LINE#         687
 C2:930BH         LINE#         689
 C2:930EH         LINE#         690
  -------         ENDPROC       _APPLDESCWRITEDIDCAMERA_OPERATING_TIME_AND_SYSTEM_ON
  -------         PROC          _APPLDESCWRITEDIDCAMERA_WARNING_TEXT_LANGUAGE
  D:0001H         SYMBOL        pMsgContext
 C2:930FH         LINE#         725
 C2:930FH         LINE#         726
 C2:930FH         LINE#         730
 C2:931AH         LINE#         731
 C2:931AH         LINE#         734
 C2:931AH         LINE#         736
 C2:931AH         LINE#         738
 C2:931FH         LINE#         739
 C2:931FH         LINE#         741
 C2:9322H         LINE#         742
  -------         ENDPROC       _APPLDESCWRITEDIDCAMERA_WARNING_TEXT_LANGUAGE
  -------         PROC          _APPLDESCWRITEDIDCAMERA_RESET_COUNTER
  D:0001H         SYMBOL        pMsgContext
 C2:9323H         LINE#         777
 C2:9323H         LINE#         778
 C2:9323H         LINE#         782
 C2:932EH         LINE#         783
 C2:932EH         LINE#         786
 C2:932EH         LINE#         788
 C2:932EH         LINE#         790
 C2:9333H         LINE#         791
 C2:9333H         LINE#         793
 C2:9336H         LINE#         794
  -------         ENDPROC       _APPLDESCWRITEDIDCAMERA_RESET_COUNTER

  -------         PROC BANK=2   _APPLDESCREQUESTDOWNLOAD
BL51 BANKED LINKER/LOCATER V6.22                                                      11/17/2023  15:14:24  PAGE 159


  X:0A96H         SYMBOL        pMsgContext
 C2:8E44H         LINE#         829
 C2:8E4FH         LINE#         830
 C2:8E4FH         LINE#         837
 C2:8E92H         LINE#         838
 C2:8ED5H         LINE#         840
 C2:8ED8H         LINE#         841
  -------         ENDPROC       _APPLDESCREQUESTDOWNLOAD

  -------         PROC BANK=2   _APPLDESCTRANSFERDATA
  X:0A29H         SYMBOL        pMsgContext
  -------         DO            
  X:0A2CH         SYMBOL        i
  -------         ENDDO         
 C2:907AH         LINE#         876
 C2:9085H         LINE#         877
 C2:9085H         LINE#         883
 C2:9092H         LINE#         884
 C2:90A3H         LINE#         885
 C2:90BDH         LINE#         886
 C2:90D2H         LINE#         887
 C2:90D5H         LINE#         889
  -------         ENDPROC       _APPLDESCTRANSFERDATA

  -------         PROC BANK=2   _APPLDESCREQUESTTRANSFEREXIT
  X:0A99H         SYMBOL        pMsgContext
 C2:9437H         LINE#         924
 C2:9442H         LINE#         925
 C2:9442H         LINE#         926
 C2:9445H         LINE#         931
 C2:9448H         LINE#         932
  -------         ENDPROC       _APPLDESCREQUESTTRANSFEREXIT
  -------         PROC          _APPLDESCWRITEMEMORYBYADDRESS
  X:064CH         SYMBOL        pMsgContext
  -------         DO            
  X:064FH         SYMBOL        length
  X:0650H         SYMBOL        aa_temp
  -------         ENDDO         
 C2:8ED9H         LINE#         967
 C2:8EE4H         LINE#         968
 C2:8EE4H         LINE#         975
 C2:8EF3H         LINE#         976
 C2:8F09H         LINE#         977
 C2:8F09H         LINE#         979
 C2:8F20H         LINE#         980
 C2:8F20H         LINE#         981
 C2:8F26H         LINE#         982
 C2:8F28H         LINE#         984
 C2:8F28H         LINE#         985
 C2:8F5DH         LINE#         986
 C2:8F5DH         LINE#         988
 C2:8F5FH         LINE#         990
 C2:8F5FH         LINE#         992
 C2:8F64H         LINE#         993
 C2:8F64H         LINE#         996
 C2:8F67H         LINE#         997
  -------         ENDPROC       _APPLDESCWRITEMEMORYBYADDRESS
BL51 BANKED LINKER/LOCATER V6.22                                                      11/17/2023  15:14:24  PAGE 160


  -------         PROC          _APPLDESCCONTROLDTCSETTINGENABLE
  X:0A9CH         SYMBOL        pMsgContext
 C2:9449H         LINE#         1032
 C2:9454H         LINE#         1033
 C2:9454H         LINE#         1038
 C2:9457H         LINE#         1039
 C2:945AH         LINE#         1040
  -------         ENDPROC       _APPLDESCCONTROLDTCSETTINGENABLE
  -------         PROC          _APPLDESCCONTROLDTCSETTINGDISABLE
  X:0A9FH         SYMBOL        pMsgContext
 C2:945BH         LINE#         1075
 C2:9466H         LINE#         1076
 C2:9466H         LINE#         1081
 C2:9469H         LINE#         1082
 C2:946CH         LINE#         1083
  -------         ENDPROC       _APPLDESCCONTROLDTCSETTINGDISABLE
  -------         PROC          APPLDESCONCOMMUNICATIONDISABLE
 C2:94D5H         LINE#         1095
 C2:94D5H         LINE#         1096
 C2:94D5H         LINE#         1099
  -------         ENDPROC       APPLDESCONCOMMUNICATIONDISABLE
  -------         PROC          APPLDESCONCOMMUNICATIONENABLE
 C2:94D6H         LINE#         1110
 C2:94D6H         LINE#         1111
 C2:94D6H         LINE#         1114
  -------         ENDPROC       APPLDESCONCOMMUNICATIONENABLE

  -------         PROC BANK=2   _APPLDESCCHECKCOMMCTRL
  X:0AA2H         SYMBOL        commControlInfo
 C2:94ACH         LINE#         1147
 C2:94B7H         LINE#         1148
 C2:94B7H         LINE#         1194
 C2:94BAH         LINE#         1195
  -------         ENDPROC       _APPLDESCCHECKCOMMCTRL

  -------         PROC BANK=2   _APPLDESCSETCOMMMODEONRXPATH
  X:0AA5H         SYMBOL        commControlInfo
 C2:94C9H         LINE#         1287
 C2:94D4H         LINE#         1288
 C2:94D4H         LINE#         1289
 C2:94D4H         LINE#         1290
 C2:94D4H         LINE#         1292
 C2:94D4H         LINE#         1294
 C2:94D4H         LINE#         1296
 C2:94D4H         LINE#         1297
  -------         ENDPROC       _APPLDESCSETCOMMMODEONRXPATH
  -------         PROC          _APPLDESCCHECKSESSIONTRANSITION
  X:0A2DH         SYMBOL        newState
  X:0A2FH         SYMBOL        formerState
 C2:946DH         LINE#         1316
 C2:947BH         LINE#         1317
 C2:947BH         LINE#         1320
 C2:947BH         LINE#         1321
 C2:947BH         LINE#         1330
 C2:947EH         LINE#         1332
  -------         ENDPROC       _APPLDESCCHECKSESSIONTRANSITION

BL51 BANKED LINKER/LOCATER V6.22                                                      11/17/2023  15:14:24  PAGE 161


  -------         PROC BANK=2   SECM_COMPUTEKEY
  -------         DO            
  X:09A3H         SYMBOL        tmpX1
  D:0003H         SYMBOL        tmpX2
  X:09A4H         SYMBOL        tmpX3
  X:09A5H         SYMBOL        tmpX4
  X:09A6H         SYMBOL        tmpX
  -------         ENDDO         
 C2:8BF2H         LINE#         1412
 C2:8BF2H         LINE#         1413
 C2:8BF2H         LINE#         1414
 C2:8BF7H         LINE#         1415
 C2:8BF8H         LINE#         1416
 C2:8BFAH         LINE#         1417
 C2:8BFCH         LINE#         1418
 C2:8C04H         LINE#         1420
 C2:8C1EH         LINE#         1421
 C2:8C35H         LINE#         1422
 C2:8C4FH         LINE#         1423
 C2:8C5FH         LINE#         1425
 C2:8CDEH         LINE#         1426
 C2:8CECH         LINE#         1427
  -------         ENDPROC       SECM_COMPUTEKEY

  -------         PROC BANK=2   _SECM_SERIALIZER
  X:0985H         SYMBOL        tgtPtr
  X:0988H         SYMBOL        __data
  -------         DO            
  X:098CH         SYMBOL        iter
  -------         ENDDO         
 C2:90D6H         LINE#         1436
 C2:90E5H         LINE#         1437
 C2:90E5H         LINE#         1439
 C2:90EBH         LINE#         1440
 C2:90F1H         LINE#         1441
 C2:90F1H         LINE#         1442
 C2:90F3H         LINE#         1443
 C2:9116H         LINE#         1444
 C2:912FH         LINE#         1445
 C2:9131H         LINE#         1446
  -------         ENDPROC       _SECM_SERIALIZER
  -------         PROC          _APPLDESCSECURITYACCESSGETSEED
  X:09EDH         SYMBOL        pDescSecurityAccessContext
  -------         DO            
  X:09F0H         SYMBOL        Cur_Time
  -------         ENDDO         
 C2:8AE7H         LINE#         1469
 C2:8AF2H         LINE#         1470
 C2:8AF2H         LINE#         1476
 C2:8AF7H         LINE#         1477
 C2:8B02H         LINE#         1478
 C2:8B99H         LINE#         1479
 C2:8BA3H         LINE#         1482
 C2:8BC5H         LINE#         1484
 C2:8BEEH         LINE#         1491
 C2:8BF1H         LINE#         1492
  -------         ENDPROC       _APPLDESCSECURITYACCESSGETSEED
BL51 BANKED LINKER/LOCATER V6.22                                                      11/17/2023  15:14:24  PAGE 162


  -------         PROC          _APPLDESCSECURITYACCESSCHECKKEY
  X:09AAH         SYMBOL        pDescSecurityAccessContext
  -------         DO            
  X:09ADH         SYMBOL        tmpKey
  -------         ENDDO         
 C2:88A5H         LINE#         1515
 C2:88B0H         LINE#         1516
 C2:88B0H         LINE#         1521
 C2:88B7H         LINE#         1524
 C2:88C0H         LINE#         1529
 C2:89B6H         LINE#         1531
 C2:89B6H         LINE#         1533
 C2:89C9H         LINE#         1534
 C2:89C9H         LINE#         1536
 C2:89CCH         LINE#         1537
  -------         ENDPROC       _APPLDESCSECURITYACCESSCHECKKEY
  -------         PROC          _APPLDESCREADDIDCAMERA_RECORD_DATA_IDENTIFIER
  X:086AH         SYMBOL        pMsgContext
  -------         DO            
  X:086DH         SYMBOL        buf
  -------         ENDDO         
 C2:83C1H         LINE#         1572
 C2:83CCH         LINE#         1573
 C2:83CCH         LINE#         1579
 C2:83DDH         LINE#         1581
 C2:83F7H         LINE#         1582
 C2:8414H         LINE#         1583
 C2:8431H         LINE#         1584
 C2:844EH         LINE#         1585
 C2:846BH         LINE#         1586
 C2:8488H         LINE#         1587
 C2:84A5H         LINE#         1588
 C2:84C2H         LINE#         1589
 C2:84DFH         LINE#         1590
 C2:84FCH         LINE#         1591
 C2:8519H         LINE#         1592
 C2:8536H         LINE#         1593
 C2:8553H         LINE#         1594
 C2:8570H         LINE#         1595
 C2:858DH         LINE#         1596
 C2:85AAH         LINE#         1599
 C2:85BFH         LINE#         1601
 C2:85C2H         LINE#         1602
  -------         ENDPROC       _APPLDESCREADDIDCAMERA_RECORD_DATA_IDENTIFIER
  -------         PROC          _APPLDESCREADDIDCANDATABASVERSIONIDENTIFIER
  X:08B0H         SYMBOL        pMsgContext
  -------         DO            
  X:08B3H         SYMBOL        buf
  -------         ENDDO         
 C2:85C3H         LINE#         1637
 C2:85CEH         LINE#         1638
 C2:85CEH         LINE#         1640
 C2:85DFH         LINE#         1644
 C2:85F9H         LINE#         1645
 C2:8616H         LINE#         1646
 C2:8633H         LINE#         1647
 C2:8650H         LINE#         1648
BL51 BANKED LINKER/LOCATER V6.22                                                      11/17/2023  15:14:24  PAGE 163


 C2:866DH         LINE#         1649
 C2:868AH         LINE#         1650
 C2:86A7H         LINE#         1651
 C2:86C4H         LINE#         1652
 C2:86E1H         LINE#         1653
 C2:86FEH         LINE#         1654
 C2:871BH         LINE#         1655
 C2:8738H         LINE#         1656
 C2:874DH         LINE#         1658
 C2:8750H         LINE#         1659
  -------         ENDPROC       _APPLDESCREADDIDCANDATABASVERSIONIDENTIFIER
  -------         PROC          _APPLDESCREADDIDCAMERA_SYSTEM_ON_TIME
  X:0AA8H         SYMBOL        pMsgContext
 C2:9132H         LINE#         1694
 C2:913DH         LINE#         1695
 C2:913DH         LINE#         1699
 C2:9153H         LINE#         1701
 C2:9168H         LINE#         1703
 C2:916BH         LINE#         1704
  -------         ENDPROC       _APPLDESCREADDIDCAMERA_SYSTEM_ON_TIME
  -------         PROC          _APPLDESCREADDIDCAMERA_OPERATING_TIME_AND_SYSTEM_ON
  X:0AABH         SYMBOL        pMsgContext
 C2:916CH         LINE#         1739
 C2:9177H         LINE#         1740
 C2:9177H         LINE#         1744
 C2:918DH         LINE#         1746
 C2:91A2H         LINE#         1748
 C2:91A5H         LINE#         1749
  -------         ENDPROC       _APPLDESCREADDIDCAMERA_OPERATING_TIME_AND_SYSTEM_ON
  -------         PROC          _APPLDESCREADDIDCAMERA_WARNING_TEXT_LANGUAGE
  X:0AAEH         SYMBOL        pMsgContext
 C2:91A6H         LINE#         1784
 C2:91B1H         LINE#         1785
 C2:91B1H         LINE#         1789
 C2:91C7H         LINE#         1791
 C2:91DCH         LINE#         1793
 C2:91DFH         LINE#         1794
  -------         ENDPROC       _APPLDESCREADDIDCAMERA_WARNING_TEXT_LANGUAGE
  -------         PROC          _APPLDESCREADDIDCAMERA_RESET_COUNTER
  X:0AB1H         SYMBOL        pMsgContext
 C2:91E0H         LINE#         1829
 C2:91EBH         LINE#         1830
 C2:91EBH         LINE#         1834
 C2:9201H         LINE#         1836
 C2:9216H         LINE#         1838
 C2:9219H         LINE#         1839
  -------         ENDPROC       _APPLDESCREADDIDCAMERA_RESET_COUNTER
  -------         PROC          _APPLDESCREADDIDOEMSPAREPARTNUMBERDATAIDENTIFIER
  X:08BFH         SYMBOL        pMsgContext
  -------         DO            
  X:08C2H         SYMBOL        buf
  -------         ENDDO         
 C2:8751H         LINE#         1874
 C2:875CH         LINE#         1875
 C2:875CH         LINE#         1880
 C2:876DH         LINE#         1884
 C2:8787H         LINE#         1885
BL51 BANKED LINKER/LOCATER V6.22                                                      11/17/2023  15:14:24  PAGE 164


 C2:87A4H         LINE#         1886
 C2:87C1H         LINE#         1887
 C2:87DEH         LINE#         1888
 C2:87FBH         LINE#         1889
 C2:8818H         LINE#         1890
 C2:8835H         LINE#         1891
 C2:8852H         LINE#         1892
 C2:886FH         LINE#         1893
 C2:888CH         LINE#         1895
 C2:88A1H         LINE#         1897
 C2:88A4H         LINE#         1898
  -------         ENDPROC       _APPLDESCREADDIDOEMSPAREPARTNUMBERDATAIDENTIFIER
  -------         PROC          _APPLDESCREADDIDECUMANUFACTURINGDATEDATAIDENTIFIER
  X:0904H         SYMBOL        pMsgContext
  -------         DO            
  X:0907H         SYMBOL        buf
  -------         ENDDO         
 C2:89CDH         LINE#         1944
 C2:89D8H         LINE#         1945
 C2:89D8H         LINE#         1947
 C2:89E9H         LINE#         1951
 C2:8A03H         LINE#         1952
 C2:8A20H         LINE#         1953
 C2:8A3DH         LINE#         1954
 C2:8A5AH         LINE#         1955
 C2:8A77H         LINE#         1956
 C2:8A94H         LINE#         1957
 C2:8AB1H         LINE#         1958
 C2:8ACEH         LINE#         1961
 C2:8AE3H         LINE#         1963
 C2:8AE6H         LINE#         1964
  -------         ENDPROC       _APPLDESCREADDIDECUMANUFACTURINGDATEDATAIDENTIFIER
  -------         PROC          _APPLDESCREADDIDSYSTEMSUPPLIERECUHARDWAREVERSIONNUMBERDATAIDENTIFIER
  X:09BDH         SYMBOL        pMsgContext
  -------         DO            
  X:09C0H         SYMBOL        buf
  -------         ENDDO         
 C2:8F68H         LINE#         1999
 C2:8F73H         LINE#         2000
 C2:8F73H         LINE#         2002
 C2:8F84H         LINE#         2006
 C2:8F9EH         LINE#         2007
 C2:8FBBH         LINE#         2008
 C2:8FD8H         LINE#         2009
 C2:8FEDH         LINE#         2011
 C2:8FF0H         LINE#         2012
  -------         ENDPROC       _APPLDESCREADDIDSYSTEMSUPPLIERECUHARDWAREVERSIONNUMBERDATAIDENTIFIER
  -------         PROC          _APPLDESCREADDIDSYSTEMSUPPLIERECUSOFTWAREVERSIONNUMBERDATAIDENTIFIER
  X:09C3H         SYMBOL        pMsgContext
  -------         DO            
  X:09C6H         SYMBOL        buf
  -------         ENDDO         
 C2:8FF1H         LINE#         2047
 C2:8FFCH         LINE#         2048
 C2:8FFCH         LINE#         2050
 C2:900DH         LINE#         2054
 C2:9027H         LINE#         2055
BL51 BANKED LINKER/LOCATER V6.22                                                      11/17/2023  15:14:24  PAGE 165


 C2:9044H         LINE#         2056
 C2:9061H         LINE#         2057
 C2:9076H         LINE#         2059
 C2:9079H         LINE#         2060
  -------         ENDPROC       _APPLDESCREADDIDSYSTEMSUPPLIERECUSOFTWAREVERSIONNUMBERDATAIDENTIFIER
  -------         PROC          _APPLDESCRTNCTRLSTARTCAMERA_SENSOR_RESET
  D:0001H         SYMBOL        pMsgContext
 C2:92CEH         LINE#         2111
 C2:92CEH         LINE#         2112
 C2:92CEH         LINE#         2116
 C2:92D9H         LINE#         2117
 C2:92D9H         LINE#         2118
 C2:92DCH         LINE#         2122
 C2:92DEH         LINE#         2124
 C2:92DEH         LINE#         2126
 C2:92E3H         LINE#         2127
 C2:92E3H         LINE#         2129
 C2:92E6H         LINE#         2130
  -------         ENDPROC       _APPLDESCRTNCTRLSTARTCAMERA_SENSOR_RESET
  -------         PROC          _APPLDESCRTNCTRLSTOPCAMERA_SENSOR_RESET
  D:0001H         SYMBOL        pMsgContext
 C2:9337H         LINE#         2165
 C2:9337H         LINE#         2166
 C2:9337H         LINE#         2170
 C2:9342H         LINE#         2171
 C2:9342H         LINE#         2174
 C2:9342H         LINE#         2176
 C2:9342H         LINE#         2178
 C2:9347H         LINE#         2179
 C2:9347H         LINE#         2181
 C2:934AH         LINE#         2182
  -------         ENDPROC       _APPLDESCRTNCTRLSTOPCAMERA_SENSOR_RESET
  -------         PROC          _APPLDESCRTNCTRLSTARTCAMERA_GUIDELINE_OFF
  X:0AB4H         SYMBOL        pMsgContext
 C2:924DH         LINE#         2217
 C2:9258H         LINE#         2218
 C2:9258H         LINE#         2222
 C2:926FH         LINE#         2223
 C2:926FH         LINE#         2224
 C2:9272H         LINE#         2227
 C2:9274H         LINE#         2229
 C2:9274H         LINE#         2231
 C2:9279H         LINE#         2232
 C2:9279H         LINE#         2234
 C2:927CH         LINE#         2235
  -------         ENDPROC       _APPLDESCRTNCTRLSTARTCAMERA_GUIDELINE_OFF
  -------         PROC          _APPLDESCRTNCTRLSTOPCAMERA_GUIDELINE_OFF
  D:0001H         SYMBOL        pMsgContext
 C2:927DH         LINE#         2270
 C2:927DH         LINE#         2271
 C2:927DH         LINE#         2275
 C2:9288H         LINE#         2276
 C2:9288H         LINE#         2277
 C2:928DH         LINE#         2280
 C2:928FH         LINE#         2282
 C2:928FH         LINE#         2284
 C2:9294H         LINE#         2285
BL51 BANKED LINKER/LOCATER V6.22                                                      11/17/2023  15:14:24  PAGE 166


 C2:9294H         LINE#         2287
 C2:9297H         LINE#         2288
  -------         ENDPROC       _APPLDESCRTNCTRLSTOPCAMERA_GUIDELINE_OFF
  -------         PROC          _APPLDESCRTNCTRLSTARTCAMERA_WARNING_TEXT_OFF
  D:0001H         SYMBOL        pMsgContext
 C2:9298H         LINE#         2323
 C2:9298H         LINE#         2324
 C2:9298H         LINE#         2328
 C2:92A3H         LINE#         2329
 C2:92A3H         LINE#         2330
 C2:92A8H         LINE#         2333
 C2:92AAH         LINE#         2335
 C2:92AAH         LINE#         2337
 C2:92AFH         LINE#         2338
 C2:92AFH         LINE#         2340
 C2:92B2H         LINE#         2341
  -------         ENDPROC       _APPLDESCRTNCTRLSTARTCAMERA_WARNING_TEXT_OFF
  -------         PROC          _APPLDESCRTNCTRLSTOPCAMERA_WARNING_TEXT_OFF
  D:0001H         SYMBOL        pMsgContext
 C2:92B3H         LINE#         2376
 C2:92B3H         LINE#         2377
 C2:92B3H         LINE#         2381
 C2:92BEH         LINE#         2382
 C2:92BEH         LINE#         2383
 C2:92C3H         LINE#         2386
 C2:92C5H         LINE#         2388
 C2:92C5H         LINE#         2390
 C2:92CAH         LINE#         2391
 C2:92CAH         LINE#         2393
 C2:92CDH         LINE#         2394
  -------         ENDPROC       _APPLDESCRTNCTRLSTOPCAMERA_WARNING_TEXT_OFF
  -------         PROC          _APPLDESCRTNCTRLSTARTCALIBRATIONMODE_ONOFF
  D:0001H         SYMBOL        pMsgContext
 C2:934BH         LINE#         2429
 C2:934BH         LINE#         2430
 C2:934BH         LINE#         2434
 C2:9356H         LINE#         2435
 C2:9356H         LINE#         2438
 C2:9356H         LINE#         2440
 C2:9356H         LINE#         2442
 C2:935BH         LINE#         2443
 C2:935BH         LINE#         2445
 C2:935EH         LINE#         2446
  -------         ENDPROC       _APPLDESCRTNCTRLSTARTCALIBRATIONMODE_ONOFF
  -------         PROC          _APPLDESCRTNCTRLSTOPCALIBRATIONMODE_ONOFF
  D:0001H         SYMBOL        pMsgContext
 C2:935FH         LINE#         2481
 C2:935FH         LINE#         2482
 C2:935FH         LINE#         2486
 C2:936AH         LINE#         2487
 C2:936AH         LINE#         2490
 C2:936AH         LINE#         2492
 C2:936AH         LINE#         2494
 C2:936FH         LINE#         2495
 C2:936FH         LINE#         2497
 C2:9372H         LINE#         2498
  -------         ENDPROC       _APPLDESCRTNCTRLSTOPCALIBRATIONMODE_ONOFF
BL51 BANKED LINKER/LOCATER V6.22                                                      11/17/2023  15:14:24  PAGE 167


  -------         PROC          _APPLDESCRTNCTRLSTARTCALIBRATIONMODE_DEFAULT
  D:0001H         SYMBOL        pMsgContext
 C2:9373H         LINE#         2533
 C2:9373H         LINE#         2534
 C2:9373H         LINE#         2538
 C2:937EH         LINE#         2539
 C2:937EH         LINE#         2542
 C2:937EH         LINE#         2544
 C2:937EH         LINE#         2546
 C2:9383H         LINE#         2547
 C2:9383H         LINE#         2549
 C2:9386H         LINE#         2550
  -------         ENDPROC       _APPLDESCRTNCTRLSTARTCALIBRATIONMODE_DEFAULT
  -------         PROC          _APPLDESCRTNCTRLSTOPCALIBRATIONMODE_DEFAULT
  D:0001H         SYMBOL        pMsgContext
 C2:9387H         LINE#         2585
 C2:9387H         LINE#         2586
 C2:9387H         LINE#         2590
 C2:9392H         LINE#         2591
 C2:9392H         LINE#         2594
 C2:9392H         LINE#         2596
 C2:9392H         LINE#         2598
 C2:9397H         LINE#         2599
 C2:9397H         LINE#         2601
 C2:939AH         LINE#         2602
  -------         ENDPROC       _APPLDESCRTNCTRLSTOPCALIBRATIONMODE_DEFAULT
  -------         PROC          _APPLDESCRTNCTRLSTARTCALIBRATIONMODE_LEFT
  D:0001H         SYMBOL        pMsgContext
 C2:939BH         LINE#         2637
 C2:939BH         LINE#         2638
 C2:939BH         LINE#         2642
 C2:93A6H         LINE#         2643
 C2:93A6H         LINE#         2646
 C2:93A6H         LINE#         2648
 C2:93A6H         LINE#         2650
 C2:93ABH         LINE#         2651
 C2:93ABH         LINE#         2653
 C2:93AEH         LINE#         2654
  -------         ENDPROC       _APPLDESCRTNCTRLSTARTCALIBRATIONMODE_LEFT
  -------         PROC          _APPLDESCRTNCTRLSTOPCALIBRATIONMODE_LEFT
  D:0001H         SYMBOL        pMsgContext
 C2:93AFH         LINE#         2689
 C2:93AFH         LINE#         2690
 C2:93AFH         LINE#         2694
 C2:93BAH         LINE#         2695
 C2:93BAH         LINE#         2698
 C2:93BAH         LINE#         2700
 C2:93BAH         LINE#         2702
 C2:93BFH         LINE#         2703
 C2:93BFH         LINE#         2705
 C2:93C2H         LINE#         2706
  -------         ENDPROC       _APPLDESCRTNCTRLSTOPCALIBRATIONMODE_LEFT
  -------         PROC          _APPLDESCRTNCTRLSTARTCALIBRATIONMODE_RIGHT
  D:0001H         SYMBOL        pMsgContext
 C2:93C3H         LINE#         2741
 C2:93C3H         LINE#         2742
 C2:93C3H         LINE#         2746
BL51 BANKED LINKER/LOCATER V6.22                                                      11/17/2023  15:14:24  PAGE 168


 C2:93CEH         LINE#         2747
 C2:93CEH         LINE#         2750
 C2:93CEH         LINE#         2752
 C2:93CEH         LINE#         2754
 C2:93D3H         LINE#         2755
 C2:93D3H         LINE#         2757
 C2:93D6H         LINE#         2758
  -------         ENDPROC       _APPLDESCRTNCTRLSTARTCALIBRATIONMODE_RIGHT
  -------         PROC          _APPLDESCRTNCTRLSTOPCALIBRATIONMODE_RIGHT
  D:0001H         SYMBOL        pMsgContext
 C2:93D7H         LINE#         2793
 C2:93D7H         LINE#         2794
 C2:93D7H         LINE#         2798
 C2:93E2H         LINE#         2799
 C2:93E2H         LINE#         2802
 C2:93E2H         LINE#         2804
 C2:93E2H         LINE#         2806
 C2:93E7H         LINE#         2807
 C2:93E7H         LINE#         2809
 C2:93EAH         LINE#         2810
  -------         ENDPROC       _APPLDESCRTNCTRLSTOPCALIBRATIONMODE_RIGHT
  -------         PROC          _APPLDESCRTNCTRLSTARTERASE_MEMORY
  X:090FH         SYMBOL        pMsgContext
  -------         DO            
  X:0912H         SYMBOL        buf
  -------         ENDDO         
 C2:8DA7H         LINE#         2845
 C2:8DB2H         LINE#         2846
 C2:8DB2H         LINE#         2848
 C2:8DC1H         LINE#         2853
 C2:8DD8H         LINE#         2854
 C2:8DD8H         LINE#         2855
 C2:8DDDH         LINE#         2856
 C2:8DE7H         LINE#         2857
 C2:8DF1H         LINE#         2858
 C2:8DFBH         LINE#         2859
 C2:8E05H         LINE#         2860
 C2:8E0FH         LINE#         2861
 C2:8E19H         LINE#         2862
 C2:8E23H         LINE#         2864
 C2:8E2AH         LINE#         2865
 C2:8E2AH         LINE#         2867
 C2:8E2DH         LINE#         2868
 C2:8E2FH         LINE#         2869
 C2:8E36H         LINE#         2870
 C2:8E36H         LINE#         2871
 C2:8E39H         LINE#         2872
 C2:8E3BH         LINE#         2874
 C2:8E3BH         LINE#         2876
 C2:8E3BH         LINE#         2878
 C2:8E3BH         LINE#         2880
 C2:8E40H         LINE#         2881
 C2:8E40H         LINE#         2883
 C2:8E43H         LINE#         2884
  -------         ENDPROC       _APPLDESCRTNCTRLSTARTERASE_MEMORY
  -------         PROC          _APPLDESCRTNCTRLSTOPERASE_MEMORY
  X:091AH         SYMBOL        pMsgContext
BL51 BANKED LINKER/LOCATER V6.22                                                      11/17/2023  15:14:24  PAGE 169


  -------         DO            
  X:091DH         SYMBOL        buf
  -------         ENDDO         
 C2:8CEDH         LINE#         2919
 C2:8CF8H         LINE#         2920
 C2:8CF8H         LINE#         2922
 C2:8D07H         LINE#         2927
 C2:8D21H         LINE#         2928
 C2:8D21H         LINE#         2929
 C2:8D26H         LINE#         2930
 C2:8D41H         LINE#         2931
 C2:8D4BH         LINE#         2932
 C2:8D55H         LINE#         2933
 C2:8D6DH         LINE#         2934
 C2:8D88H         LINE#         2935
 C2:8D92H         LINE#         2936
 C2:8D9CH         LINE#         2937
 C2:8D9EH         LINE#         2939
 C2:8D9EH         LINE#         2941
 C2:8DA3H         LINE#         2942
 C2:8DA3H         LINE#         2944
 C2:8DA6H         LINE#         2945
  -------         ENDPROC       _APPLDESCRTNCTRLSTOPERASE_MEMORY
  -------         PROC          _APPLDESCRTNCTRLSTARTCHECK_PROGRAMMING_DEPENDENCIES
  D:0001H         SYMBOL        pMsgContext
 C2:93EBH         LINE#         2980
 C2:93EBH         LINE#         2981
 C2:93EBH         LINE#         2985
 C2:93F6H         LINE#         2986
 C2:93F6H         LINE#         2989
 C2:93F6H         LINE#         2991
 C2:93F6H         LINE#         2993
 C2:93FBH         LINE#         2994
 C2:93FBH         LINE#         2996
 C2:93FEH         LINE#         2997
  -------         ENDPROC       _APPLDESCRTNCTRLSTARTCHECK_PROGRAMMING_DEPENDENCIES
  -------         PROC          _APPLDESCRTNCTRLSTOPCHECK_PROGRAMMING_DEPENDENCIES
  D:0001H         SYMBOL        pMsgContext
 C2:93FFH         LINE#         3032
 C2:93FFH         LINE#         3033
 C2:93FFH         LINE#         3037
 C2:940AH         LINE#         3038
 C2:940AH         LINE#         3041
 C2:940AH         LINE#         3043
 C2:940AH         LINE#         3045
 C2:940FH         LINE#         3046
 C2:940FH         LINE#         3048
 C2:9412H         LINE#         3049
  -------         ENDPROC       _APPLDESCRTNCTRLSTOPCHECK_PROGRAMMING_DEPENDENCIES
  -------         ENDMOD        APPDESC

  -------         MODULE        APPDESCDEV
  C:0000H         SYMBOL        _ICE_DUMMY_
  D:00A8H         PUBLIC        VSTDLIB_IE
  -------         ENDMOD        APPDESCDEV

  -------         MODULE        CAN_PAR
BL51 BANKED LINKER/LOCATER V6.22                                                      11/17/2023  15:14:24  PAGE 170


  C:0000H         SYMBOL        _ICE_DUMMY_
  D:00A8H         PUBLIC        VSTDLIB_IE
  C:6C8BH         PUBLIC        CanTxId0
  C:6C94H         PUBLIC        CanTxSendMask
  C:6C8DH         PUBLIC        CanTxDLC
  C:6C8EH         PUBLIC        CanTxDataPtr
  C:6C91H         PUBLIC        CanTxApplConfirmationPtr
  C:6D11H         PUBLIC        CanTxHwObj
  C:6C95H         PUBLIC        CanRxId0
  C:6CA5H         PUBLIC        CanRxMsgIndirection
  C:6CB5H         PUBLIC        CanRxDataLen
  C:6CBDH         PUBLIC        CanRxDataPtr
  C:6CD5H         PUBLIC        CanRxApplPrecopyPtr
  C:6CEDH         PUBLIC        CanRxApplIndicationPtr
  C:6D07H         PUBLIC        CanInitBitTiming
  C:6D05H         PUBLIC        CanInitBRP_Reg
 C1:F63AH         PUBLIC        _CanRxHU_MON_PE_01IndicationFct
 C1:F651H         PUBLIC        _CanRxCGW4IndicationFct
 C1:F668H         PUBLIC        _CanRxCGW2IndicationFct
 C1:F67FH         PUBLIC        _CanRxCLU15IndicationFct
 C1:F696H         PUBLIC        _CanRxMDPS11IndicationFct
 C1:F6ADH         PUBLIC        _CanRxSAS1IndicationFct
  C:6D09H         PUBLIC        CanInitBasicMsk1
  C:6D0BH         PUBLIC        CanInitBasicMsk2
  C:6D0DH         PUBLIC        CanInitBasicCod1
  C:6D0FH         PUBLIC        CanInitBasicCod2
  -------         PROC          _CANRXHU_MON_PE_01INDICATIONFCT
  X:0B08H         SYMBOL        rcvObject
 C1:F63AH         LINE#         221
 C1:F642H         LINE#         222
 C1:F642H         LINE#         223
 C1:F645H         LINE#         224
 C1:F650H         LINE#         225
  -------         ENDPROC       _CANRXHU_MON_PE_01INDICATIONFCT

  -------         PROC BANK=1   _CANRXCGW4INDICATIONFCT
  X:0B0AH         SYMBOL        rcvObject
 C1:F651H         LINE#         228
 C1:F659H         LINE#         229
 C1:F659H         LINE#         230
 C1:F65CH         LINE#         231
 C1:F667H         LINE#         232
  -------         ENDPROC       _CANRXCGW4INDICATIONFCT

  -------         PROC BANK=1   _CANRXCGW2INDICATIONFCT
  X:0B0CH         SYMBOL        rcvObject
 C1:F668H         LINE#         235
 C1:F670H         LINE#         236
 C1:F670H         LINE#         237
 C1:F673H         LINE#         238
 C1:F67EH         LINE#         239
  -------         ENDPROC       _CANRXCGW2INDICATIONFCT

  -------         PROC BANK=1   _CANRXCLU15INDICATIONFCT
  X:0B0EH         SYMBOL        rcvObject
 C1:F67FH         LINE#         242
 C1:F687H         LINE#         243
BL51 BANKED LINKER/LOCATER V6.22                                                      11/17/2023  15:14:24  PAGE 171


 C1:F687H         LINE#         244
 C1:F68AH         LINE#         245
 C1:F695H         LINE#         246
  -------         ENDPROC       _CANRXCLU15INDICATIONFCT

  -------         PROC BANK=1   _CANRXMDPS11INDICATIONFCT
  X:0B10H         SYMBOL        rcvObject
 C1:F696H         LINE#         249
 C1:F69EH         LINE#         250
 C1:F69EH         LINE#         251
 C1:F6A1H         LINE#         252
 C1:F6ACH         LINE#         253
  -------         ENDPROC       _CANRXMDPS11INDICATIONFCT

  -------         PROC BANK=1   _CANRXSAS1INDICATIONFCT
  X:0B12H         SYMBOL        rcvObject
 C1:F6ADH         LINE#         256
 C1:F6B5H         LINE#         257
 C1:F6B5H         LINE#         258
 C1:F6B8H         LINE#         259
 C1:F6C3H         LINE#         260
  -------         ENDPROC       _CANRXSAS1INDICATIONFCT
  -------         ENDMOD        CAN_PAR

  -------         MODULE        DESC
  C:0000H         SYMBOL        _ICE_DUMMY_
  D:00A8H         PUBLIC        VSTDLIB_IE
 C1:DB42H         PUBLIC        _DescGetFuncBuffer
 C1:F6DBH         PUBLIC        _DescFuncReqInd
 C1:F6C4H         PUBLIC        _DescPhysReqInd
 C1:F8FAH         PUBLIC        _DescRxErrorIndication
 C1:F2F3H         PUBLIC        _DescConfirmation
 C1:D8BAH         PUBLIC        _DescGetBuffer
 C1:FD2AH         PUBLIC        _DescTxErrorIndication
 C1:FD24H         PUBLIC        _DescCopyToCAN
 C1:FD30H         PUBLIC        DescGetActivityState
 C1:FCE6H         PUBLIC        DescGetCurrentBusInfo
 C1:F381H         PUBLIC        DescStateInit
 C1:FBABH         PUBLIC        DescGetStateSession
 C1:E35AH         PUBLIC        _DescSetStateSession
 C1:F74BH         PUBLIC        DescGetStateSecurityAccess
 C1:E16EH         PUBLIC        _DescSetStateSecurityAccess
 C1:CE7AH         PUBLIC        _DescGetSessionStateOfSessionId
 C1:DD95H         PUBLIC        _DescGetSessionIdOfSessionState
 C1:F3A4H         PUBLIC        _DescGetSessionTimings
 C1:F213H         PUBLIC        DescProcessingDone
 C1:FBEDH         PUBLIC        _DescSetNegResponse
 C1:F6F2H         PUBLIC        _DescInitPowerOn
 C1:F42EH         PUBLIC        _DescInit
 C1:FCEDH         PUBLIC        DescTask
 C1:E980H         PUBLIC        DescTimerTask
 C1:FA99H         PUBLIC        DescStateTask
 C1:F8B4H         PUBLIC        DescIsSuppressPosResBitSet
 C1:F90BH         PUBLIC        DescSecurityAccessSeedReady
 C1:EEABH         PUBLIC        DescSecurityAccessKeyChecked
 C1:FD3CH         PUBLIC        DescGetAttemptCounterValue
 C1:F7FFH         PUBLIC        _DescSetAttemptCounterValue
BL51 BANKED LINKER/LOCATER V6.22                                                      11/17/2023  15:14:24  PAGE 172


  C:50AEH         PUBLIC        g_descMainVersion
  C:50AFH         PUBLIC        g_descSubVersion
  C:50B0H         PUBLIC        g_descBugFixVersion
 C1:F50CH         PUBLIC        DescEnableCommunication
 C1:C3B3H         SYMBOL        CheckTableConsistency
 C1:FDB7H         SYMBOL        DescDebugIterInit
 C1:FD85H         SYMBOL        DescUsdtNetIsoTpInitPowerOn
 C1:F14FH         SYMBOL        DescUsdtNetIsoTpInit
 C1:FDB8H         SYMBOL        DescUsdtNetIsoTpStateTask
 C1:FB72H         SYMBOL        _DescUsdtNetIsoTpPrepareResponse
 C1:C4A6H         SYMBOL        _DescUsdtNetIsoTpTransmitResponse
 C1:EB73H         SYMBOL        _DescUsdtNetIsoTpReleaseInfoPool
 C1:F260H         SYMBOL        DescUsdtNetIsoTpInitContext
 C1:E848H         SYMBOL        _DescUsdtNetIsoTpCopyToCan
 C1:D60DH         SYMBOL        _DescUsdtNetAbsFinishReception
 C1:ECB4H         SYMBOL        _DescUsdtNetAbsFinishTransmission
 C1:F3EAH         SYMBOL        _DescUsdtNetAbsStartReception
 C1:F317H         SYMBOL        DescNetworkIterInit
 C1:E2F9H         SYMBOL        _DescIsTesterPresent
 C1:FD89H         SYMBOL        DescNetworkInitPowerOn
 C1:FD8DH         SYMBOL        DescNetworkInit
 C1:EB30H         SYMBOL        DescTransmitRcrRp
 C1:F59EH         SYMBOL        DescReleaseContext
 C1:FB7EH         SYMBOL        DescTimingOnceInit
 C1:FC06H         SYMBOL        DescTimingIterInit
 C1:E9CBH         SYMBOL        _DescOnTransitionStateSession
 C1:FD91H         SYMBOL        DescStateOnceInit
 C1:F761H         SYMBOL        _DescDoPostProcessing
 C1:FDB9H         SYMBOL        DescDispatcherIterInit
 C1:B405H         SYMBOL        _DescFindSvcInst
 C1:EFFCH         SYMBOL        _DescFindSvc
 C1:98A7H         SYMBOL        DescDispatcher
 C1:F0A8H         SYMBOL        _DescGetSvcInstHeadExtEntrySize
 C1:E479H         SYMBOL        _DescGetSvcInstReqHeadExt
 C1:ED9AH         SYMBOL        _DescGetSvcInstResHeadExt
 C1:AEBAH         SYMBOL        DescFinalProcessingDone
 C1:E934H         SYMBOL        DescHandleInternRcrRp
 C1:A8D3H         SYMBOL        DescContextStateTask
 C1:F3C7H         SYMBOL        DescResponseTimeoutTask
 C1:FC0EH         SYMBOL        _DescOemStartSessionDefault
 C1:FC16H         SYMBOL        _DescOemStartSessionProgramming
 C1:FC1EH         SYMBOL        _DescOemStartSessionExtended
 C1:FC26H         SYMBOL        _DescOemStartSessionProgramming_Session_for_KWP2000
 C1:FC2EH         SYMBOL        _DescOemStartSessionExtended_Session_for_KWP2000
 C1:F40CH         SYMBOL        _DescOemStopDiagnosticSession
 C1:E6A2H         SYMBOL        _DescReadDataByIdentifier
 C1:FC36H         SYMBOL        _DescOemGetRequestSeed_Unlock_Level_1
 C1:FC3EH         SYMBOL        _DescOemSendSendKey_Unlock_Level_1
 C1:B024H         SYMBOL        _DescOemCommonCommCtrl
 C1:D93EH         SYMBOL        _DescOemEnableCommunication
 C1:AA4EH         SYMBOL        _DescRoutineControlByIdentifier
 C1:F9C3H         SYMBOL        _DescOemProcessTesterPresent
 C1:FC46H         SYMBOL        _DescOemPostStartSessionDefault
 C1:FC4EH         SYMBOL        _DescOemPostStartSessionProgramming
 C1:FC56H         SYMBOL        _DescOemPostStartSessionExtended
 C1:FC5EH         SYMBOL        _DescOemPostStartSessionProgramming_Session_for_KWP2000
 C1:FC66H         SYMBOL        _DescOemPostStartSessionExtended_Session_for_KWP2000
BL51 BANKED LINKER/LOCATER V6.22                                                      11/17/2023  15:14:24  PAGE 173


 C1:FD42H         SYMBOL        _DescPostReadDataByIdentifier
 C1:FD95H         SYMBOL        _DescOemPostCommonCommCtrl
 C1:FD99H         SYMBOL        _DescOemPostEnableCommunication
 C1:FD36H         SYMBOL        _DescDummyPostHandler
 C1:EA15H         SYMBOL        _DescOemCommonCommCtrlProcess
 C1:EF0FH         SYMBOL        _DescOemPostCommonCommCtrlProcess
 C1:EFA0H         SYMBOL        DescCommCtrlManipulateCAN
 C1:EE09H         SYMBOL        _DescOemPrepareSessionControl
 C1:FB8AH         SYMBOL        _DescOemCommonSessionPostProcessing
 C1:F581H         SYMBOL        DescOemOnInvalidReq_27
 C1:FBB5H         SYMBOL        DescSecurityOnceInitPowerOn
 C1:F0D2H         SYMBOL        DescSecurityAccessTimer
 C1:FBBFH         SYMBOL        DescSecurityOnceInit
 C1:DF5AH         SYMBOL        _DescOemSecuritySeed
 C1:D69BH         SYMBOL        _DescOemSecurityKey
 C1:DEE9H         SYMBOL        _DescPmGetPidPoolHandle
 C1:FD9DH         SYMBOL        _DescPmGetAvailablePidHandle
 C1:EBF6H         SYMBOL        _DescPmAnalysePid
 C1:F44FH         SYMBOL        _DescPmGetPidResponseLen
 C1:F126H         SYMBOL        _DescRidFindRoutineId
 C1:F4EDH         SYMBOL        _DescRidFindSubFunction
 C1:EE40H         SYMBOL        _DescRidAnalyseRoutine
 C1:F8C6H         SYMBOL        DescRidProcessingDone
 C1:FC6EH         SYMBOL        DescIterInitPidListProcessor
 C1:C83CH         SYMBOL        DescPidProcessorTask
 C1:E4D8H         SYMBOL        DescPidProcessingDone
 C1:BBE6H         SYMBOL        DescPidDispatcher
  X:0231H         SYMBOL        g_descUsdtNetInfoPoolIsoTp
  X:0241H         SYMBOL        g_busInfoPoolTxRef
  X:0244H         SYMBOL        g_descBuffer
  X:0344H         SYMBOL        g_descRcrrpBuffer
  X:0347H         SYMBOL        g_descContextCtrl
  X:0349H         SYMBOL        g_descInterruptContextCtrl
  X:034EH         SYMBOL        g_descT2Timer
  X:0350H         SYMBOL        g_descS1Timer
  X:0352H         SYMBOL        g_descDoReloadS1Timer
  X:0353H         SYMBOL        g_descCurState
  X:0355H         SYMBOL        g_descCurReqSvc
  X:0356H         SYMBOL        g_descCurReqSvcInst
  X:0357H         SYMBOL        g_descMsgContext
  X:0366H         SYMBOL        g_descNegResCode
  X:0367H         SYMBOL        g_descCommControlInfo
  X:036AH         SYMBOL        g_descIsKeyAwaited
  X:036BH         SYMBOL        g_descSecurityAccessContext
  X:0372H         SYMBOL        g_descSecureNrOfAttempts
  X:0373H         SYMBOL        g_descSecureTimer
  X:0375H         SYMBOL        g_descPidMsgContext
  X:0384H         SYMBOL        g_descPidProcessorState
  X:0387H         SYMBOL        g_descPidList
  C:50B1H         SYMBOL        g_descStateGroupTransition
  C:50D5H         SYMBOL        g_descSidMap
  C:511BH         SYMBOL        g_descSvcHead
  C:51C6H         SYMBOL        g_descPostHandlerTable
  C:51E1H         SYMBOL        g_descSvcInst
  C:52F9H         SYMBOL        g_descSvcInstHeadExt
  C:530EH         SYMBOL        g_descPIDInfo
  C:5372H         SYMBOL        g_descRidLookUpTable
BL51 BANKED LINKER/LOCATER V6.22                                                      11/17/2023  15:14:24  PAGE 174


  C:5384H         SYMBOL        g_descRidSubFuncToCtrlTypeMap
  C:5388H         SYMBOL        g_descRIDInfo
  C:53A3H         SYMBOL        g_descRIDInstInfo
 C1:CDC4H         SYMBOL        _DescSetState
 C1:E5EDH         SYMBOL        _DescCheckState

  -------         PROC BANK=1   CHECKTABLECONSISTENCY
  -------         DO            
  X:0B14H         SYMBOL        sidCnt
  X:0B15H         SYMBOL        i
  -------         ENDDO         
 C1:C3B3H         LINE#         1954
 C1:C3B3H         LINE#         1955
 C1:C3B3H         LINE#         1971
 C1:C3B8H         LINE#         1972
 C1:C3C4H         LINE#         1973
 C1:C3C4H         LINE#         1974
 C1:C3CDH         LINE#         1975
 C1:C3CDH         LINE#         1977
 C1:C3D3H         LINE#         1981
 C1:C3E7H         LINE#         1982
 C1:C3E7H         LINE#         1983
 C1:C3EFH         LINE#         1986
 C1:C405H         LINE#         1990
 C1:C414H         LINE#         1991
 C1:C414H         LINE#         1994
 C1:C437H         LINE#         1995
 C1:C43FH         LINE#         2005
 C1:C464H         LINE#         2010
 C1:C473H         LINE#         2011
 C1:C473H         LINE#         2012
 C1:C49DH         LINE#         2013
 C1:C4A5H         LINE#         2014
  -------         ENDPROC       CHECKTABLECONSISTENCY

  -------         PROC BANK=1   DESCDEBUGITERINIT
 C1:FDB7H         LINE#         2028
 C1:FDB7H         LINE#         2029
 C1:FDB7H         LINE#         2032
  -------         ENDPROC       DESCDEBUGITERINIT

  -------         PROC BANK=1   DESCUSDTNETISOTPINITPOWERON
 C1:FD85H         LINE#         2063
 C1:FD85H         LINE#         2064
 C1:FD85H         LINE#         2065
 C1:FD88H         LINE#         2066
  -------         ENDPROC       DESCUSDTNETISOTPINITPOWERON

  -------         PROC BANK=1   DESCUSDTNETISOTPINITCONTEXT
 C1:F260H         LINE#         2078
 C1:F260H         LINE#         2079
 C1:F260H         LINE#         2110
 C1:F266H         LINE#         2111
 C1:F274H         LINE#         2112
 C1:F280H         LINE#         2113
 C1:F285H         LINE#         2114
  -------         ENDPROC       DESCUSDTNETISOTPINITCONTEXT
BL51 BANKED LINKER/LOCATER V6.22                                                      11/17/2023  15:14:24  PAGE 175



  -------         PROC BANK=1   DESCUSDTNETISOTPINIT
  -------         DO            
  X:0B49H         SYMBOL        resIter
  -------         ENDDO         
 C1:F14FH         LINE#         2126
 C1:F14FH         LINE#         2127
 C1:F14FH         LINE#         2128
 C1:F14FH         LINE#         2129
 C1:F155H         LINE#         2130
 C1:F15BH         LINE#         2131
 C1:F15BH         LINE#         2132
 C1:F15DH         LINE#         2133
 C1:F171H         LINE#         2134
 C1:F173H         LINE#         2135
 C1:F173H         LINE#         2150
 C1:F176H         LINE#         2165
  -------         ENDPROC       DESCUSDTNETISOTPINIT

  -------         PROC BANK=1   DESCUSDTNETISOTPSTATETASK
 C1:FDB8H         LINE#         2176
 C1:FDB8H         LINE#         2177
 C1:FDB8H         LINE#         2182
  -------         ENDPROC       DESCUSDTNETISOTPSTATETASK

  -------         PROC BANK=1   _DESCGETBUFFER
  X:09C9H         SYMBOL        dataLength
  -------         DO            
  X:09CBH         SYMBOL        returnValue
  -------         DO            
  X:09CEH         SYMBOL        result
  -------         ENDDO         
  -------         ENDDO         
 C1:D8BAH         LINE#         2247
 C1:D8C2H         LINE#         2248
 C1:D8C2H         LINE#         2249
 C1:D8C9H         LINE#         2272
 C1:D8D0H         LINE#         2273
 C1:D8D0H         LINE#         2274
 C1:D8DFH         LINE#         2281
 C1:D8DFH         LINE#         2284
 C1:D8E4H         LINE#         2291
 C1:D8E6H         LINE#         2294
 C1:D8E6H         LINE#         2301
 C1:D8ECH         LINE#         2336
 C1:D8ECH         LINE#         2337
 C1:D8F1H         LINE#         2338
 C1:D8F1H         LINE#         2356
 C1:D900H         LINE#         2357
 C1:D905H         LINE#         2360
 C1:D913H         LINE#         2361
 C1:D915H         LINE#         2362
 C1:D915H         LINE#         2371
 C1:D92AH         LINE#         2372
 C1:D92CH         LINE#         2374
 C1:D92CH         LINE#         2375
 C1:D932H         LINE#         2376
BL51 BANKED LINKER/LOCATER V6.22                                                      11/17/2023  15:14:24  PAGE 176


 C1:D932H         LINE#         2377
 C1:D932H         LINE#         2378
 C1:D932H         LINE#         2401
 C1:D932H         LINE#         2402
 C1:D93DH         LINE#         2403
  -------         ENDPROC       _DESCGETBUFFER

  -------         PROC BANK=1   _DESCPHYSREQIND
  X:0B16H         SYMBOL        dataLen
 C1:F6C4H         LINE#         2415
 C1:F6CCH         LINE#         2416
 C1:F6CCH         LINE#         2417
 C1:F6CCH         LINE#         2424
 C1:F6CCH         LINE#         2466
 C1:F6D7H         LINE#         2468
 C1:F6DAH         LINE#         2469
 C1:F6DAH         LINE#         2514
  -------         ENDPROC       _DESCPHYSREQIND

  -------         PROC BANK=1   _DESCRXERRORINDICATION
  X:0B4AH         SYMBOL        status
 C1:F8FAH         LINE#         2527
 C1:F8FFH         LINE#         2528
 C1:F8FFH         LINE#         2530
 C1:F8FFH         LINE#         2538
 C1:F8FFH         LINE#         2547
 C1:F90AH         LINE#         2548
 C1:F90AH         LINE#         2561
  -------         ENDPROC       _DESCRXERRORINDICATION
  -------         PROC          _DESCUSDTNETISOTPPREPARERESPONSE
  X:0AB7H         SYMBOL        infoPool
 C1:FB72H         LINE#         2573
 C1:FB7DH         LINE#         2574
 C1:FB7DH         LINE#         2588
 C1:FB7DH         LINE#         2590
  -------         ENDPROC       _DESCUSDTNETISOTPPREPARERESPONSE
  -------         PROC          _DESCUSDTNETISOTPTRANSMITRESPONSE
  X:094BH         SYMBOL        infoPool
  -------         DO            
  D:0007H         SYMBOL        result
  X:094EH         SYMBOL        lBusInfoPoolTxRef
  -------         DO            
  X:0951H         SYMBOL        lBusInfoPoolTxRefBackup
  -------         ENDDO         
  -------         ENDDO         
 C1:C4A6H         LINE#         2602
 C1:C4B1H         LINE#         2603
 C1:C4B1H         LINE#         2615
 C1:C4C9H         LINE#         2632
 C1:C4DAH         LINE#         2635
 C1:C4E1H         LINE#         2636
 C1:C4E1H         LINE#         2637
 C1:C4E4H         LINE#         2639
 C1:C4F6H         LINE#         2640
 C1:C4F6H         LINE#         2643
 C1:C50BH         LINE#         2645
 C1:C520H         LINE#         2647
BL51 BANKED LINKER/LOCATER V6.22                                                      11/17/2023  15:14:24  PAGE 177


 C1:C525H         LINE#         2649
 C1:C53AH         LINE#         2650
 C1:C53EH         LINE#         2652
 C1:C53EH         LINE#         2653
 C1:C541H         LINE#         2654
 C1:C541H         LINE#         2656
 C1:C556H         LINE#         2706
 C1:C58FH         LINE#         2708
 C1:C592H         LINE#         2709
 C1:C592H         LINE#         2710
 C1:C595H         LINE#         2711
 C1:C595H         LINE#         2712
  -------         ENDPROC       _DESCUSDTNETISOTPTRANSMITRESPONSE

  -------         PROC BANK=1   _DESCUSDTNETISOTPCOPYTOCAN
  X:0ABAH         SYMBOL        infoStruct
  -------         DO            
  D:0007H         SYMBOL        i
  -------         ENDDO         
 C1:E848H         LINE#         2740
 C1:E853H         LINE#         2741
 C1:E853H         LINE#         2742
 C1:E85AH         LINE#         2743
 C1:E861H         LINE#         2744
 C1:E861H         LINE#         2745
 C1:E895H         LINE#         2746
 C1:E897H         LINE#         2747
  -------         ENDPROC       _DESCUSDTNETISOTPCOPYTOCAN

  -------         PROC BANK=1   _DESCCOPYTOCAN
  D:0001H         SYMBOL        infoStruct
 C1:FD24H         LINE#         2759
 C1:FD24H         LINE#         2760
 C1:FD24H         LINE#         2805
 C1:FD24H         LINE#         2806
 C1:FD27H         LINE#         2807
 C1:FD29H         LINE#         2808
 C1:FD29H         LINE#         2822
  -------         ENDPROC       _DESCCOPYTOCAN

  -------         PROC BANK=1   _DESCCONFIRMATION
  D:0007H         SYMBOL        status
  -------         DO            
  D:0007H         SYMBOL        result
  -------         ENDDO         
 C1:F2F3H         LINE#         2834
 C1:F2F3H         LINE#         2835
 C1:F2F3H         LINE#         2844
 C1:F2F3H         LINE#         2849
 C1:F2FCH         LINE#         2851
 C1:F30DH         LINE#         2854
 C1:F30DH         LINE#         2874
 C1:F316H         LINE#         2875
  -------         ENDPROC       _DESCCONFIRMATION

  -------         PROC BANK=1   _DESCTXERRORINDICATION
  D:0007H         SYMBOL        status
BL51 BANKED LINKER/LOCATER V6.22                                                      11/17/2023  15:14:24  PAGE 178


 C1:FD2AH         LINE#         2887
 C1:FD2AH         LINE#         2888
 C1:FD2AH         LINE#         2890
 C1:FD2AH         LINE#         2896
 C1:FD2AH         LINE#         2898
 C1:FD2DH         LINE#         2904
 C1:FD2FH         LINE#         2914
 C1:FD2FH         LINE#         2921
  -------         ENDPROC       _DESCTXERRORINDICATION
  -------         PROC          _DESCUSDTNETISOTPRELEASEINFOPOOL
  X:0ABDH         SYMBOL        infoPool
 C1:EB73H         LINE#         2933
 C1:EB7EH         LINE#         2934
 C1:EB7EH         LINE#         2935
 C1:EBA1H         LINE#         2936
 C1:EBB4H         LINE#         2937
  -------         ENDPROC       _DESCUSDTNETISOTPRELEASEINFOPOOL

  -------         PROC BANK=1   _DESCGETFUNCBUFFER
  D:0006H         SYMBOL        dataLength
  -------         DO            
  X:0A31H         SYMBOL        returnValue
  -------         DO            
  X:0A34H         SYMBOL        result
  -------         ENDDO         
  -------         ENDDO         
 C1:DB42H         LINE#         3003
 C1:DB42H         LINE#         3004
 C1:DB42H         LINE#         3005
 C1:DB4BH         LINE#         3027
 C1:DB52H         LINE#         3028
 C1:DB52H         LINE#         3031
 C1:DB57H         LINE#         3049
 C1:DB5BH         LINE#         3050
 C1:DB5EH         LINE#         3051
 C1:DB6DH         LINE#         3052
 C1:DB78H         LINE#         3053
 C1:DB80H         LINE#         3054
 C1:DB85H         LINE#         3056
 C1:DB91H         LINE#         3057
 C1:DB93H         LINE#         3058
 C1:DB93H         LINE#         3059
 C1:DBA8H         LINE#         3064
 C1:DBAAH         LINE#         3066
 C1:DBAAH         LINE#         3067
 C1:DBB0H         LINE#         3068
 C1:DBB0H         LINE#         3069
 C1:DBB0H         LINE#         3070
 C1:DBB0H         LINE#         3072
 C1:DBBBH         LINE#         3073
  -------         ENDPROC       _DESCGETFUNCBUFFER

  -------         PROC BANK=1   _DESCFUNCREQIND
  X:0B18H         SYMBOL        dataLen
 C1:F6DBH         LINE#         3085
 C1:F6E3H         LINE#         3086
 C1:F6E3H         LINE#         3092
BL51 BANKED LINKER/LOCATER V6.22                                                      11/17/2023  15:14:24  PAGE 179


 C1:F6E3H         LINE#         3102
 C1:F6E3H         LINE#         3129
 C1:F6EEH         LINE#         3131
 C1:F6F1H         LINE#         3132
 C1:F6F1H         LINE#         3133
  -------         ENDPROC       _DESCFUNCREQIND

  -------         PROC BANK=1   DESCNETWORKITERINIT
 C1:F317H         LINE#         3188
 C1:F317H         LINE#         3189
 C1:F317H         LINE#         3191
 C1:F31CH         LINE#         3192
 C1:F321H         LINE#         3196
 C1:F324H         LINE#         3199
 C1:F329H         LINE#         3200
 C1:F32EH         LINE#         3207
 C1:F334H         LINE#         3208
 C1:F33AH         LINE#         3214
  -------         ENDPROC       DESCNETWORKITERINIT

  -------         PROC BANK=1   DESCRELEASECONTEXT
 C1:F59EH         LINE#         3224
 C1:F59EH         LINE#         3225
 C1:F59EH         LINE#         3230
 C1:F59EH         LINE#         3232
 C1:F5A4H         LINE#         3235
 C1:F5A4H         LINE#         3239
 C1:F5ABH         LINE#         3241
 C1:F5B9H         LINE#         3242
  -------         ENDPROC       DESCRELEASECONTEXT

  -------         PROC BANK=1   _DESCISTESTERPRESENT
  X:0AC0H         SYMBOL        infoPool
  -------         DO            
  D:0007H         SYMBOL        returnValue
  -------         ENDDO         
 C1:E2F9H         LINE#         3295
 C1:E304H         LINE#         3296
 C1:E304H         LINE#         3297
 C1:E306H         LINE#         3299
 C1:E358H         LINE#         3303
 C1:E358H         LINE#         3305
 C1:E359H         LINE#         3306
 C1:E359H         LINE#         3307
 C1:E359H         LINE#         3308
  -------         ENDPROC       _DESCISTESTERPRESENT

  -------         PROC BANK=1   DESCNETWORKINITPOWERON
 C1:FD89H         LINE#         3339
 C1:FD89H         LINE#         3340
 C1:FD89H         LINE#         3341
 C1:FD8CH         LINE#         3343
  -------         ENDPROC       DESCNETWORKINITPOWERON

  -------         PROC BANK=1   DESCNETWORKINIT
 C1:FD8DH         LINE#         3355
 C1:FD8DH         LINE#         3356
BL51 BANKED LINKER/LOCATER V6.22                                                      11/17/2023  15:14:24  PAGE 180


 C1:FD8DH         LINE#         3357
 C1:FD90H         LINE#         3359
  -------         ENDPROC       DESCNETWORKINIT

  -------         PROC BANK=1   DESCGETACTIVITYSTATE
 C1:FD30H         LINE#         3370
 C1:FD30H         LINE#         3371
 C1:FD30H         LINE#         3372
 C1:FD35H         LINE#         3373
  -------         ENDPROC       DESCGETACTIVITYSTATE

  -------         PROC BANK=1   _DESCUSDTNETABSSTARTRECEPTION
  D:0001H         SYMBOL        infoPool
  -------         DO            
  D:0007H         SYMBOL        returnValue
  -------         ENDDO         
 C1:F3EAH         LINE#         3423
 C1:F3EAH         LINE#         3424
 C1:F3EAH         LINE#         3425
 C1:F3ECH         LINE#         3427
 C1:F3F4H         LINE#         3428
 C1:F3F4H         LINE#         3432
 C1:F3F4H         LINE#         3434
 C1:F3F7H         LINE#         3435
 C1:F3FEH         LINE#         3438
 C1:F409H         LINE#         3455
 C1:F409H         LINE#         3457
 C1:F409H         LINE#         3460
 C1:F40BH         LINE#         3461
 C1:F40BH         LINE#         3462
 C1:F40BH         LINE#         3463
 C1:F40BH         LINE#         3464
  -------         ENDPROC       _DESCUSDTNETABSSTARTRECEPTION

  -------         PROC BANK=1   _DESCUSDTNETABSFINISHRECEPTION
  X:0A35H         SYMBOL        infoPool
  D:0005H         SYMBOL        status
  -------         DO            
  X:0A38H         SYMBOL        result
  -------         ENDDO         
 C1:D60DH         LINE#         3477
 C1:D618H         LINE#         3478
 C1:D618H         LINE#         3480
 C1:D61FH         LINE#         3481
 C1:D654H         LINE#         3483
 C1:D654H         LINE#         3485
 C1:D667H         LINE#         3486
 C1:D669H         LINE#         3487
 C1:D669H         LINE#         3491
 C1:D681H         LINE#         3493
 C1:D68FH         LINE#         3496
 C1:D697H         LINE#         3499
 C1:D697H         LINE#         3500
 C1:D697H         LINE#         3502
 C1:D697H         LINE#         3504
 C1:D697H         LINE#         3505
 C1:D69AH         LINE#         3506
BL51 BANKED LINKER/LOCATER V6.22                                                      11/17/2023  15:14:24  PAGE 181


  -------         ENDPROC       _DESCUSDTNETABSFINISHRECEPTION
  -------         PROC          _DESCUSDTNETABSFINISHTRANSMISSION
  X:0AC3H         SYMBOL        infoPool
  D:0005H         SYMBOL        status
 C1:ECB4H         LINE#         3518
 C1:ECBFH         LINE#         3519
 C1:ECBFH         LINE#         3526
 C1:ECBFH         LINE#         3527
 C1:ECBFH         LINE#         3529
 C1:ECBFH         LINE#         3531
 C1:ECBFH         LINE#         3533
 C1:ECBFH         LINE#         3535
 C1:ECD7H         LINE#         3536
 C1:ECD7H         LINE#         3537
 C1:ECD7H         LINE#         3539
 C1:ECD7H         LINE#         3541
 C1:ECD7H         LINE#         3543
 C1:ECDDH         LINE#         3584
 C1:ECDDH         LINE#         3597
 C1:ECDDH         LINE#         3607
 C1:ECDDH         LINE#         3613
 C1:ECDDH         LINE#         3614
 C1:ECDDH         LINE#         3615
 C1:ECDDH         LINE#         3617
 C1:ECEFH         LINE#         3618
  -------         ENDPROC       _DESCUSDTNETABSFINISHTRANSMISSION

  -------         PROC BANK=1   DESCTRANSMITRCRRP
 C1:EB30H         LINE#         3629
 C1:EB30H         LINE#         3630
 C1:EB30H         LINE#         3642
 C1:EB30H         LINE#         3643
 C1:EB50H         LINE#         3644
 C1:EB50H         LINE#         3645
 C1:EB65H         LINE#         3647
 C1:EB68H         LINE#         3648
 C1:EB72H         LINE#         3657
  -------         ENDPROC       DESCTRANSMITRCRRP

  -------         PROC BANK=1   DESCGETCURRENTBUSINFO
 C1:FCE6H         LINE#         3682
 C1:FCE6H         LINE#         3683
 C1:FCE6H         LINE#         3684
 C1:FCECH         LINE#         3685
  -------         ENDPROC       DESCGETCURRENTBUSINFO

  -------         PROC BANK=1   DESCTIMINGITERINIT
 C1:FC06H         LINE#         3696
 C1:FC06H         LINE#         3697
 C1:FC06H         LINE#         3698
 C1:FC0DH         LINE#         3700
  -------         ENDPROC       DESCTIMINGITERINIT

  -------         PROC BANK=1   DESCTIMINGONCEINIT
 C1:FB7EH         LINE#         3734
 C1:FB7EH         LINE#         3735
 C1:FB7EH         LINE#         3742
BL51 BANKED LINKER/LOCATER V6.22                                                      11/17/2023  15:14:24  PAGE 182


 C1:FB83H         LINE#         3744
 C1:FB89H         LINE#         3745
  -------         ENDPROC       DESCTIMINGONCEINIT

  -------         PROC BANK=1   DESCSTATEONCEINIT
 C1:FD91H         LINE#         3875
 C1:FD91H         LINE#         3876
 C1:FD91H         LINE#         3877
 C1:FD94H         LINE#         3878
  -------         ENDPROC       DESCSTATEONCEINIT

  -------         PROC BANK=1   DESCSTATEINIT
 C1:F381H         LINE#         3880
 C1:F381H         LINE#         3881
 C1:F381H         LINE#         3882
 C1:F396H         LINE#         3883
 C1:F3A3H         LINE#         3884
  -------         ENDPROC       DESCSTATEINIT

  -------         PROC BANK=1   DESCGETSTATESESSION
 C1:FBABH         LINE#         3887
 C1:FBABH         LINE#         3888
 C1:FBABH         LINE#         3889
 C1:FBB4H         LINE#         3890
  -------         ENDPROC       DESCGETSTATESESSION

  -------         PROC BANK=1   _DESCSETSTATESESSION
  X:0B1AH         SYMBOL        descState
 C1:E35AH         LINE#         3893
 C1:E362H         LINE#         3894
 C1:E362H         LINE#         3896
 C1:E374H         LINE#         3897
 C1:E388H         LINE#         3898
 C1:E39CH         LINE#         3899
 C1:E3BAH         LINE#         3900
  -------         ENDPROC       _DESCSETSTATESESSION

  -------         PROC BANK=1   DESCGETSTATESECURITYACCESS
 C1:F74BH         LINE#         3903
 C1:F74BH         LINE#         3904
 C1:F74BH         LINE#         3905
 C1:F760H         LINE#         3906
  -------         ENDPROC       DESCGETSTATESECURITYACCESS

  -------         PROC BANK=1   _DESCSETSTATESECURITYACCESS
  X:0B1CH         SYMBOL        descState
 C1:E16EH         LINE#         3909
 C1:E176H         LINE#         3910
 C1:E176H         LINE#         3912
 C1:E188H         LINE#         3914
 C1:E1A8H         LINE#         3915
 C1:E1D2H         LINE#         3916
  -------         ENDPROC       _DESCSETSTATESECURITYACCESS

  -------         PROC BANK=1   _DESCCHECKSTATE
  D:0004H         SYMBOL        refState
 C1:E5EDH         LINE#         3919
BL51 BANKED LINKER/LOCATER V6.22                                                      11/17/2023  15:14:24  PAGE 183


 C1:E5F3H         LINE#         3920
 C1:E5F3H         LINE#         3921
 C1:E609H         LINE#         3922
 C1:E609H         LINE#         3923
 C1:E60CH         LINE#         3924
 C1:E60CH         LINE#         3925
 C1:E642H         LINE#         3926
 C1:E642H         LINE#         3927
 C1:E645H         LINE#         3928
 C1:E645H         LINE#         3929
 C1:E647H         LINE#         3930
  -------         ENDPROC       _DESCCHECKSTATE

  -------         PROC BANK=1   _DESCSETSTATE
  D:0007H         SYMBOL        svcInstHandle
  -------         DO            
  X:0B1EH         SYMBOL        curRefState
  -------         ENDDO         
 C1:CDC4H         LINE#         3933
 C1:CDC4H         LINE#         3934
 C1:CDC4H         LINE#         3936
 C1:CDDDH         LINE#         3937
 C1:CDDDH         LINE#         3938
 C1:CDF2H         LINE#         3939
 C1:CDF5H         LINE#         3940
 C1:CE13H         LINE#         3941
 C1:CE13H         LINE#         3942
 C1:CE22H         LINE#         3943
 C1:CE22H         LINE#         3944
 C1:CE5AH         LINE#         3945
 C1:CE5AH         LINE#         3946
 C1:CE76H         LINE#         3947
 C1:CE76H         LINE#         3948
 C1:CE79H         LINE#         3949
 C1:CE79H         LINE#         3950
  -------         ENDPROC       _DESCSETSTATE

  -------         PROC BANK=1   _DESCGETSESSIONSTATEOFSESSIONID
  X:09F2H         SYMBOL        sessionId
  -------         DO            
  X:09F3H         SYMBOL        iter
  D:0005H         SYMBOL        scanner
  X:09F4H         SYMBOL        step
  D:0006H         SYMBOL        pReqHeadExt
  X:09F5H         SYMBOL        returnValue
  -------         ENDDO         
 C1:CE7AH         LINE#         3963
 C1:CE7FH         LINE#         3964
 C1:CE7FH         LINE#         3970
 C1:CE8BH         LINE#         3973
 C1:CE94H         LINE#         3975
 C1:CE99H         LINE#         3976
 C1:CE9AH         LINE#         3977
 C1:CEA4H         LINE#         3978
 C1:CEA4H         LINE#         3979
 C1:CEB8H         LINE#         3980
 C1:CEB8H         LINE#         3981
BL51 BANKED LINKER/LOCATER V6.22                                                      11/17/2023  15:14:24  PAGE 184


 C1:CEB8H         LINE#         3982
 C1:CEB8H         LINE#         3983
 C1:CEBEH         LINE#         3984
 C1:CEC4H         LINE#         3985
 C1:CEC6H         LINE#         3988
 C1:CEDAH         LINE#         3991
 C1:CEF3H         LINE#         3992
 C1:CEF3H         LINE#         3993
 C1:CF0FH         LINE#         3994
 C1:CF11H         LINE#         3996
 C1:CF11H         LINE#         3998
 C1:CF1AH         LINE#         4000
 C1:CF22H         LINE#         4001
 C1:CF22H         LINE#         4002
 C1:CF2AH         LINE#         4003
  -------         ENDPROC       _DESCGETSESSIONSTATEOFSESSIONID

  -------         PROC BANK=1   _DESCGETSESSIONIDOFSESSIONSTATE
  X:0AC6H         SYMBOL        sessionState
  -------         DO            
  X:0AC8H         SYMBOL        iter
  -------         ENDDO         
 C1:DD95H         LINE#         4045
 C1:DD9DH         LINE#         4046
 C1:DD9DH         LINE#         4049
 C1:DDA0H         LINE#         4050
 C1:DDAAH         LINE#         4051
 C1:DDAAH         LINE#         4052
 C1:DDC0H         LINE#         4053
 C1:DDC0H         LINE#         4054
 C1:DDDFH         LINE#         4055
 C1:DDDFH         LINE#         4056
 C1:DDF3H         LINE#         4057
 C1:DDF3H         LINE#         4058
 C1:DDF3H         LINE#         4059
 C1:DDF9H         LINE#         4060
 C1:DDFBH         LINE#         4063
 C1:DE04H         LINE#         4065
 C1:DE06H         LINE#         4066
  -------         ENDPROC       _DESCGETSESSIONIDOFSESSIONSTATE

  -------         PROC BANK=1   _DESCGETSESSIONTIMINGS
  X:098DH         SYMBOL        sessionState
  D:0001H         SYMBOL        p2Time_1ms
  X:0992H         SYMBOL        p2ExTime_10ms
 C1:F3A4H         LINE#         4079
 C1:F3ACH         LINE#         4080
 C1:F3ACH         LINE#         4092
 C1:F3ACH         LINE#         4094
 C1:F3B3H         LINE#         4096
 C1:F3C6H         LINE#         4098
  -------         ENDPROC       _DESCGETSESSIONTIMINGS

  -------         PROC BANK=1   _DESCONTRANSITIONSTATESESSION
  X:0A39H         SYMBOL        newState
  X:0A3BH         SYMBOL        currentState
 C1:E9CBH         LINE#         4111
BL51 BANKED LINKER/LOCATER V6.22                                                      11/17/2023  15:14:24  PAGE 185


 C1:E9D9H         LINE#         4112
 C1:E9D9H         LINE#         4118
 C1:E9DCH         LINE#         4125
 C1:E9E8H         LINE#         4126
 C1:E9E8H         LINE#         4127
 C1:E9F4H         LINE#         4128
 C1:E9F4H         LINE#         4129
 C1:E9FEH         LINE#         4134
 C1:E9FEH         LINE#         4135
 C1:E9FFH         LINE#         4137
 C1:E9FFH         LINE#         4138
 C1:EA0BH         LINE#         4139
 C1:EA0BH         LINE#         4140
 C1:EA11H         LINE#         4149
 C1:EA14H         LINE#         4150
 C1:EA14H         LINE#         4151
 C1:EA14H         LINE#         4156
  -------         ENDPROC       _DESCONTRANSITIONSTATESESSION

  -------         PROC BANK=1   _DESCSETNEGRESPONSE
  D:0007H         SYMBOL        errorCode
 C1:FBEDH         LINE#         4186
 C1:FBEDH         LINE#         4187
 C1:FBEDH         LINE#         4190
 C1:FBF3H         LINE#         4191
 C1:FBF3H         LINE#         4192
 C1:FBF5H         LINE#         4193
 C1:FBF5H         LINE#         4194
  -------         ENDPROC       _DESCSETNEGRESPONSE

  -------         PROC BANK=1   _DESCGETSVCINSTHEADEXTENTRYSIZE
  D:0006H         SYMBOL        pSvcHead
 C1:F0A8H         LINE#         4206
 C1:F0A8H         LINE#         4207
 C1:F0A8H         LINE#         4208
 C1:F0D1H         LINE#         4210
  -------         ENDPROC       _DESCGETSVCINSTHEADEXTENTRYSIZE

  -------         PROC BANK=1   _DESCGETSVCINSTRESHEADEXT
  D:0002H         SYMBOL        pSvcHead
  D:0005H         SYMBOL        svcInstAbsRef
  -------         DO            
  X:0B4BH         SYMBOL        offset
  -------         ENDDO         
 C1:ED9AH         LINE#         4226
 C1:EDA0H         LINE#         4228
 C1:EDA0H         LINE#         4229
 C1:EDA5H         LINE#         4230
 C1:EDB4H         LINE#         4231
 C1:EDB4H         LINE#         4232
 C1:EDBDH         LINE#         4233
 C1:EDBDH         LINE#         4234
 C1:EDD1H         LINE#         4235
  -------         ENDPROC       _DESCGETSVCINSTRESHEADEXT

  -------         PROC BANK=1   _DESCGETSVCINSTREQHEADEXT
  X:0A3DH         SYMBOL        pSvcHead
BL51 BANKED LINKER/LOCATER V6.22                                                      11/17/2023  15:14:24  PAGE 186


  D:0003H         SYMBOL        svcInstAbsRef
  -------         DO            
  X:0A3FH         SYMBOL        offset
  -------         ENDDO         
 C1:E479H         LINE#         4251
 C1:E484H         LINE#         4253
 C1:E484H         LINE#         4254
 C1:E48FH         LINE#         4255
 C1:E4B9H         LINE#         4257
 C1:E4D7H         LINE#         4258
  -------         ENDPROC       _DESCGETSVCINSTREQHEADEXT

  -------         PROC BANK=1   _DESCFINDSVCINST
  X:08CCH         SYMBOL        reqHeadPtr
  X:08CFH         SYMBOL        pSvcHead
  X:08D1H         SYMBOL        failedByteMask
  -------         DO            
  D:0005H         SYMBOL        iter
  X:08D4H         SYMBOL        reqSvcInstHandle
  X:08D5H         SYMBOL        offset
  X:08D6H         SYMBOL        currColFound
  D:0004H         SYMBOL        incStep
  X:08D7H         SYMBOL        isEqual
  -------         ENDDO         
 C1:B405H         LINE#         4365
 C1:B418H         LINE#         4366
 C1:B418H         LINE#         4375
 C1:B41EH         LINE#         4378
 C1:B424H         LINE#         4380
 C1:B433H         LINE#         4381
 C1:B437H         LINE#         4385
 C1:B45DH         LINE#         4386
 C1:B45DH         LINE#         4387
 C1:B462H         LINE#         4389
 C1:B462H         LINE#         4390
 C1:B491H         LINE#         4391
 C1:B497H         LINE#         4392
 C1:B497H         LINE#         4393
 C1:B4B5H         LINE#         4396
 C1:B4BBH         LINE#         4397
 C1:B4BBH         LINE#         4398
 C1:B4CCH         LINE#         4406
 C1:B4CEH         LINE#         4407
 C1:B4CEH         LINE#         4409
 C1:B4CEH         LINE#         4411
 C1:B4D4H         LINE#         4413
 C1:B4ECH         LINE#         4414
 C1:B4ECH         LINE#         4416
 C1:B4F0H         LINE#         4417
 C1:B4F0H         LINE#         4419
 C1:B517H         LINE#         4420
 C1:B517H         LINE#         4422
 C1:B517H         LINE#         4423
 C1:B517H         LINE#         4424
 C1:B517H         LINE#         4426
 C1:B51DH         LINE#         4427
 C1:B51DH         LINE#         4385
BL51 BANKED LINKER/LOCATER V6.22                                                      11/17/2023  15:14:24  PAGE 187


 C1:B523H         LINE#         4430
 C1:B541H         LINE#         4431
 C1:B546H         LINE#         4432
  -------         ENDPROC       _DESCFINDSVCINST

  -------         PROC BANK=1   _DESCFINDSVC
  D:0007H         SYMBOL        reqSvcId
  -------         DO            
  D:0006H         SYMBOL        result
  D:0005H         SYMBOL        byteVar
  -------         ENDDO         
 C1:EFFCH         LINE#         4445
 C1:EFFCH         LINE#         4446
 C1:EFFCH         LINE#         4447
 C1:EFFEH         LINE#         4448
 C1:F000H         LINE#         4452
 C1:F009H         LINE#         4454
 C1:F009H         LINE#         4456
 C1:F00DH         LINE#         4457
 C1:F00DH         LINE#         4458
 C1:F00FH         LINE#         4459
 C1:F00FH         LINE#         4460
 C1:F024H         LINE#         4461
 C1:F024H         LINE#         4488
 C1:F027H         LINE#         4489
  -------         ENDPROC       _DESCFINDSVC

  -------         PROC BANK=1   DESCDISPATCHERITERINIT
 C1:FDB9H         LINE#         4531
 C1:FDB9H         LINE#         4532
 C1:FDB9H         LINE#         4545
  -------         ENDPROC       DESCDISPATCHERITERINIT

  -------         PROC BANK=1   DESCDISPATCHER
  -------         DO            
  X:0954H         SYMBOL        msg
  -------         DO            
  X:0957H         SYMBOL        refDescSvcHead
  -------         DO            
  X:0959H         SYMBOL        supPosResBit
  X:095AH         SYMBOL        svcInstFailedBytePosMask
  -------         DO            
  X:095BH         SYMBOL        refDescSvcInst
  -------         ENDDO         
  -------         ENDDO         
  -------         ENDDO         
  -------         ENDDO         
 C1:98A7H         LINE#         4556
 C1:98A7H         LINE#         4557
 C1:98A7H         LINE#         4561
 C1:98C3H         LINE#         4570
 C1:98CAH         LINE#         4572
 C1:98D3H         LINE#         4574
 C1:98D9H         LINE#         4582
 C1:98E5H         LINE#         4583
 C1:98EDH         LINE#         4584
 C1:98EDH         LINE#         4587
BL51 BANKED LINKER/LOCATER V6.22                                                      11/17/2023  15:14:24  PAGE 188


 C1:9902H         LINE#         4592
 C1:991CH         LINE#         4601
 C1:991CH         LINE#         4606
 C1:9935H         LINE#         4607
 C1:9935H         LINE#         4614
 C1:9956H         LINE#         4616
 C1:9956H         LINE#         4619
 C1:995BH         LINE#         4623
 C1:9964H         LINE#         4627
 C1:9973H         LINE#         4629
 C1:997DH         LINE#         4631
 C1:99A5H         LINE#         4633
 C1:99AEH         LINE#         4640
 C1:99C4H         LINE#         4641
 C1:99C4H         LINE#         4642
 C1:99E5H         LINE#         4643
 C1:99E7H         LINE#         4646
 C1:99E7H         LINE#         4647
 C1:99F9H         LINE#         4648
 C1:99F9H         LINE#         4650
 C1:9A06H         LINE#         4652
 C1:9A06H         LINE#         4655
 C1:9A1DH         LINE#         4661
 C1:9A31H         LINE#         4667
 C1:9A3EH         LINE#         4668
 C1:9A3EH         LINE#         4681
 C1:9A3EH         LINE#         4686
 C1:9A66H         LINE#         4687
 C1:9A66H         LINE#         4690
 C1:9A7CH         LINE#         4693
 C1:9A81H         LINE#         4695
 C1:9A81H         LINE#         4697
 C1:9A88H         LINE#         4704
 C1:9A91H         LINE#         4705
 C1:9A91H         LINE#         4715
 C1:9A91H         LINE#         4717
 C1:9ABEH         LINE#         4719
 C1:9AECH         LINE#         4721
 C1:9B00H         LINE#         4723
 C1:9B07H         LINE#         4732
 C1:9B33H         LINE#         4738
 C1:9B33H         LINE#         4739
 C1:9B33H         LINE#         4740
 C1:9B33H         LINE#         4743
 C1:9B33H         LINE#         4745
 C1:9B51H         LINE#         4747
 C1:9B51H         LINE#         4748
 C1:9B57H         LINE#         4749
 C1:9B57H         LINE#         4752
 C1:9B5AH         LINE#         4754
 C1:9B5AH         LINE#         4756
 C1:9B5CH         LINE#         4758
 C1:9B5CH         LINE#         4759
 C1:9B62H         LINE#         4761
 C1:9B65H         LINE#         4763
 C1:9B65H         LINE#         4764
 C1:9B65H         LINE#         4782
BL51 BANKED LINKER/LOCATER V6.22                                                      11/17/2023  15:14:24  PAGE 189


 C1:9B67H         LINE#         4784
 C1:9B67H         LINE#         4785
 C1:9B6DH         LINE#         4787
 C1:9B70H         LINE#         4789
 C1:9B70H         LINE#         4790
 C1:9B72H         LINE#         4793
 C1:9B72H         LINE#         4799
 C1:9B87H         LINE#         4800
 C1:9B87H         LINE#         4801
 C1:9B8DH         LINE#         4802
 C1:9B8FH         LINE#         4805
 C1:9B8FH         LINE#         4806
 C1:9B95H         LINE#         4807
 C1:9B95H         LINE#         4809
 C1:9B98H         LINE#         4811
 C1:9B98H         LINE#         4813
 C1:9B9AH         LINE#         4816
 C1:9B9AH         LINE#         4817
 C1:9BA0H         LINE#         4819
 C1:9BA3H         LINE#         4821
 C1:9BA3H         LINE#         4823
 C1:9BA5H         LINE#         4825
 C1:9BA5H         LINE#         4826
 C1:9BABH         LINE#         4828
 C1:9BAEH         LINE#         4830
 C1:9BAEH         LINE#         4831
 C1:9BAEH         LINE#         4841
 C1:9BB0H         LINE#         4843
 C1:9BB0H         LINE#         4854
 C1:9BB6H         LINE#         4855
 C1:9BB6H         LINE#         4856
 C1:9BB9H         LINE#         4857
  -------         ENDPROC       DESCDISPATCHER

  -------         PROC BANK=1   DESCPROCESSINGDONE
 C1:F213H         LINE#         4869
 C1:F213H         LINE#         4870
 C1:F213H         LINE#         4873
 C1:F224H         LINE#         4874
 C1:F224H         LINE#         4875
 C1:F224H         LINE#         4877
 C1:F227H         LINE#         4878
 C1:F228H         LINE#         4881
 C1:F228H         LINE#         4883
 C1:F22BH         LINE#         4884
 C1:F22CH         LINE#         4893
 C1:F22CH         LINE#         4895
 C1:F22FH         LINE#         4896
 C1:F230H         LINE#         4904
 C1:F230H         LINE#         4906
 C1:F239H         LINE#         4907
 C1:F239H         LINE#         4908
 C1:F239H         LINE#         4909
  -------         ENDPROC       DESCPROCESSINGDONE

  -------         PROC BANK=1   DESCFINALPROCESSINGDONE
  -------         DO            
BL51 BANKED LINKER/LOCATER V6.22                                                      11/17/2023  15:14:24  PAGE 190


  X:0A41H         SYMBOL        msg
  X:0A44H         SYMBOL        resHeadLen
  -------         ENDDO         
 C1:AEBAH         LINE#         4922
 C1:AEBAH         LINE#         4926
 C1:AEBAH         LINE#         4935
 C1:AED0H         LINE#         4937
 C1:AEDAH         LINE#         4938
 C1:AEDAH         LINE#         4941
 C1:AEE1H         LINE#         4952
 C1:AEE1H         LINE#         4955
 C1:AEE1H         LINE#         4959
 C1:AEF4H         LINE#         4960
 C1:AEF4H         LINE#         4962
 C1:AF10H         LINE#         4964
 C1:AF17H         LINE#         4965
 C1:AF17H         LINE#         4969
 C1:AF1BH         LINE#         4970
 C1:AF1BH         LINE#         4974
 C1:AF1BH         LINE#         4976
 C1:AF28H         LINE#         4977
 C1:AF28H         LINE#         4978
 C1:AF28H         LINE#         4979
 C1:AF28H         LINE#         4980
 C1:AF28H         LINE#         4985
 C1:AF2EH         LINE#         4987
 C1:AF2EH         LINE#         4988
 C1:AF2EH         LINE#         4989
 C1:AF2EH         LINE#         5010
 C1:AF2EH         LINE#         5013
 C1:AF42H         LINE#         5014
 C1:AF47H         LINE#         5015
 C1:AF5EH         LINE#         5016
 C1:AF67H         LINE#         5017
 C1:AF6AH         LINE#         5019
 C1:AF6AH         LINE#         5027
 C1:AF74H         LINE#         5029
 C1:AF74H         LINE#         5031
 C1:AF84H         LINE#         5032
 C1:AF8EH         LINE#         5034
 C1:AFA5H         LINE#         5037
 C1:AFC1H         LINE#         5042
 C1:AFFAH         LINE#         5045
 C1:B000H         LINE#         5048
 C1:B00FH         LINE#         5055
 C1:B011H         LINE#         5060
 C1:B011H         LINE#         5062
 C1:B017H         LINE#         5064
 C1:B017H         LINE#         5066
 C1:B017H         LINE#         5079
 C1:B017H         LINE#         5081
 C1:B01DH         LINE#         5082
 C1:B01DH         LINE#         5083
 C1:B01EH         LINE#         5085
 C1:B01EH         LINE#         5087
 C1:B023H         LINE#         5088
 C1:B023H         LINE#         5089
BL51 BANKED LINKER/LOCATER V6.22                                                      11/17/2023  15:14:24  PAGE 191


 C1:B023H         LINE#         5090
  -------         ENDPROC       DESCFINALPROCESSINGDONE

  -------         PROC BANK=1   _DESCDOPOSTPROCESSING
  D:0007H         SYMBOL        status
 C1:F761H         LINE#         5101
 C1:F761H         LINE#         5102
 C1:F761H         LINE#         5106
 C1:F766H         LINE#         5109
 C1:F76DH         LINE#         5112
 C1:F773H         LINE#         5120
 C1:F776H         LINE#         5121
  -------         ENDPROC       _DESCDOPOSTPROCESSING

  -------         PROC BANK=1   _DESCINITPOWERON
  X:0B4CH         SYMBOL        initParam
 C1:F6F2H         LINE#         5132
 C1:F6F7H         LINE#         5133
 C1:F6F7H         LINE#         5137
 C1:F6FAH         LINE#         5138
 C1:F6FDH         LINE#         5146
 C1:F700H         LINE#         5158
 C1:F708H         LINE#         5159
  -------         ENDPROC       _DESCINITPOWERON

  -------         PROC BANK=1   _DESCINIT
  X:0B4DH         SYMBOL        initParam
 C1:F42EH         LINE#         5170
 C1:F433H         LINE#         5171
 C1:F433H         LINE#         5176
 C1:F433H         LINE#         5182
 C1:F436H         LINE#         5183
 C1:F439H         LINE#         5184
 C1:F43CH         LINE#         5190
 C1:F43FH         LINE#         5208
 C1:F442H         LINE#         5209
 C1:F445H         LINE#         5210
 C1:F448H         LINE#         5212
 C1:F44BH         LINE#         5220
 C1:F44EH         LINE#         5230
  -------         ENDPROC       _DESCINIT

  -------         PROC BANK=1   DESCHANDLEINTERNRCRRP
 C1:E934H         LINE#         5241
 C1:E934H         LINE#         5242
 C1:E934H         LINE#         5248
 C1:E934H         LINE#         5251
 C1:E944H         LINE#         5252
 C1:E944H         LINE#         5254
 C1:E948H         LINE#         5256
 C1:E95BH         LINE#         5257
 C1:E95BH         LINE#         5264
 C1:E95BH         LINE#         5266
 C1:E963H         LINE#         5268
 C1:E966H         LINE#         5269
 C1:E966H         LINE#         5270
 C1:E967H         LINE#         5272
BL51 BANKED LINKER/LOCATER V6.22                                                      11/17/2023  15:14:24  PAGE 192


 C1:E967H         LINE#         5274
 C1:E975H         LINE#         5275
 C1:E975H         LINE#         5276
 C1:E976H         LINE#         5278
 C1:E976H         LINE#         5282
 C1:E97FH         LINE#         5283
 C1:E97FH         LINE#         5284
 C1:E97FH         LINE#         5319
  -------         ENDPROC       DESCHANDLEINTERNRCRRP

  -------         PROC BANK=1   DESCTIMERTASK
 C1:E980H         LINE#         5330
 C1:E980H         LINE#         5331
 C1:E980H         LINE#         5342
 C1:E988H         LINE#         5343
 C1:E988H         LINE#         5344
 C1:E98BH         LINE#         5345
 C1:E98BH         LINE#         5353
 C1:E992H         LINE#         5355
 C1:E992H         LINE#         5360
 C1:E99CH         LINE#         5361
 C1:E99CH         LINE#         5362
 C1:E9A3H         LINE#         5363
 C1:E9A3H         LINE#         5367
 C1:E9A5H         LINE#         5368
 C1:E9AEH         LINE#         5369
 C1:E9AEH         LINE#         5371
 C1:E9BCH         LINE#         5373
 C1:E9C3H         LINE#         5374
 C1:E9C3H         LINE#         5380
 C1:E9C7H         LINE#         5387
 C1:E9C7H         LINE#         5388
 C1:E9C7H         LINE#         5391
 C1:E9C7H         LINE#         5397
 C1:E9C7H         LINE#         5398
 C1:E9C7H         LINE#         5406
 C1:E9CAH         LINE#         5421
  -------         ENDPROC       DESCTIMERTASK

  -------         PROC BANK=1   DESCRESPONSETIMEOUTTASK
 C1:F3C7H         LINE#         5432
 C1:F3C7H         LINE#         5433
 C1:F3C7H         LINE#         5483
 C1:F3D1H         LINE#         5484
 C1:F3D1H         LINE#         5517
 C1:F3D1H         LINE#         5519
 C1:F3DFH         LINE#         5521
 C1:F3E6H         LINE#         5522
 C1:F3E6H         LINE#         5523
 C1:F3E9H         LINE#         5524
 C1:F3E9H         LINE#         5525
 C1:F3E9H         LINE#         5526
 C1:F3E9H         LINE#         5527
  -------         ENDPROC       DESCRESPONSETIMEOUTTASK

  -------         PROC BANK=1   DESCTASK
 C1:FCEDH         LINE#         5539
BL51 BANKED LINKER/LOCATER V6.22                                                      11/17/2023  15:14:24  PAGE 193


 C1:FCEDH         LINE#         5540
 C1:FCEDH         LINE#         5544
 C1:FCF0H         LINE#         5546
 C1:FCF3H         LINE#         5547
  -------         ENDPROC       DESCTASK

  -------         PROC BANK=1   DESCSTATETASK
 C1:FA99H         LINE#         5559
 C1:FA99H         LINE#         5560
 C1:FA99H         LINE#         5588
 C1:FA9FH         LINE#         5589
 C1:FA9FH         LINE#         5590
 C1:FAA2H         LINE#         5591
 C1:FAA2H         LINE#         5605
 C1:FAA5H         LINE#         5606
  -------         ENDPROC       DESCSTATETASK

  -------         PROC BANK=1   DESCCONTEXTSTATETASK
  -------         DO            
  X:0B4EH         SYMBOL        postProcessState
  -------         ENDDO         
 C1:A8D3H         LINE#         5617
 C1:A8D3H         LINE#         5618
 C1:A8D3H         LINE#         5622
 C1:A8DAH         LINE#         5623
 C1:A8DAH         LINE#         5626
 C1:A8DDH         LINE#         5627
 C1:A8E4H         LINE#         5628
 C1:A8E7H         LINE#         5631
 C1:A8EDH         LINE#         5634
 C1:A8F3H         LINE#         5635
 C1:A8F3H         LINE#         5637
 C1:A8F9H         LINE#         5638
 C1:A8F9H         LINE#         5641
 C1:A8FFH         LINE#         5642
 C1:A8FFH         LINE#         5644
 C1:A906H         LINE#         5645
 C1:A909H         LINE#         5646
 C1:A909H         LINE#         5659
 C1:A910H         LINE#         5660
 C1:A910H         LINE#         5662
 C1:A946H         LINE#         5663
 C1:A946H         LINE#         5686
 C1:A94DH         LINE#         5687
 C1:A94DH         LINE#         5688
 C1:A955H         LINE#         5689
 C1:A955H         LINE#         5691
 C1:A955H         LINE#         5696
 C1:A95DH         LINE#         5697
 C1:A95DH         LINE#         5699
 C1:A960H         LINE#         5705
 C1:A960H         LINE#         5707
 C1:A974H         LINE#         5708
 C1:A974H         LINE#         5710
 C1:A97DH         LINE#         5711
 C1:A97FH         LINE#         5713
 C1:A97FH         LINE#         5715
BL51 BANKED LINKER/LOCATER V6.22                                                      11/17/2023  15:14:24  PAGE 194


 C1:A988H         LINE#         5716
 C1:A988H         LINE#         5720
 C1:A995H         LINE#         5725
 C1:A99EH         LINE#         5732
 C1:A99EH         LINE#         5741
 C1:A9B9H         LINE#         5744
 C1:A9BEH         LINE#         5746
 C1:A9C1H         LINE#         5747
 C1:A9C1H         LINE#         5759
 C1:A9C9H         LINE#         5760
 C1:A9C9H         LINE#         5781
 C1:A9CCH         LINE#         5783
 C1:A9CCH         LINE#         5789
 C1:A9D4H         LINE#         5790
 C1:A9D4H         LINE#         5798
 C1:A9D4H         LINE#         5799
 C1:A9E7H         LINE#         5800
 C1:A9E7H         LINE#         5805
 C1:A9EDH         LINE#         5809
 C1:A9F3H         LINE#         5812
 C1:AA0CH         LINE#         5820
 C1:AA0CH         LINE#         5822
 C1:AA1FH         LINE#         5823
 C1:AA1FH         LINE#         5834
 C1:AA1FH         LINE#         5835
 C1:AA3FH         LINE#         5836
 C1:AA3FH         LINE#         5837
 C1:AA4DH         LINE#         5838
 C1:AA4DH         LINE#         5839
 C1:AA4DH         LINE#         5840
 C1:AA4DH         LINE#         5841
  -------         ENDPROC       DESCCONTEXTSTATETASK

  -------         PROC BANK=1   _DESCOEMSTARTSESSIONDEFAULT
  D:0001H         SYMBOL        pMsgContext
 C1:FC0EH         LINE#         5854
 C1:FC0EH         LINE#         5855
 C1:FC0EH         LINE#         5856
 C1:FC15H         LINE#         5857
  -------         ENDPROC       _DESCOEMSTARTSESSIONDEFAULT

  -------         PROC BANK=1   _DESCOEMSTARTSESSIONPROGRAMMING
  D:0001H         SYMBOL        pMsgContext
 C1:FC16H         LINE#         5871
 C1:FC16H         LINE#         5872
 C1:FC16H         LINE#         5873
 C1:FC1DH         LINE#         5874
  -------         ENDPROC       _DESCOEMSTARTSESSIONPROGRAMMING

  -------         PROC BANK=1   _DESCOEMSTARTSESSIONEXTENDED
  D:0001H         SYMBOL        pMsgContext
 C1:FC1EH         LINE#         5888
 C1:FC1EH         LINE#         5889
 C1:FC1EH         LINE#         5890
 C1:FC25H         LINE#         5891
  -------         ENDPROC       _DESCOEMSTARTSESSIONEXTENDED
  -------         PROC          _DESCOEMSTARTSESSIONPROGRAMMING_SESSION_FOR_KWP2000
BL51 BANKED LINKER/LOCATER V6.22                                                      11/17/2023  15:14:24  PAGE 195


  D:0001H         SYMBOL        pMsgContext
 C1:FC26H         LINE#         5905
 C1:FC26H         LINE#         5906
 C1:FC26H         LINE#         5907
 C1:FC2DH         LINE#         5908
  -------         ENDPROC       _DESCOEMSTARTSESSIONPROGRAMMING_SESSION_FOR_KWP2000
  -------         PROC          _DESCOEMSTARTSESSIONEXTENDED_SESSION_FOR_KWP2000
  D:0001H         SYMBOL        pMsgContext
 C1:FC2EH         LINE#         5922
 C1:FC2EH         LINE#         5923
 C1:FC2EH         LINE#         5924
 C1:FC35H         LINE#         5925
  -------         ENDPROC       _DESCOEMSTARTSESSIONEXTENDED_SESSION_FOR_KWP2000
  -------         PROC          _DESCOEMGETREQUESTSEED_UNLOCK_LEVEL_1
  D:0001H         SYMBOL        pMsgContext
 C1:FC36H         LINE#         5938
 C1:FC36H         LINE#         5939
 C1:FC36H         LINE#         5940
 C1:FC3DH         LINE#         5941
  -------         ENDPROC       _DESCOEMGETREQUESTSEED_UNLOCK_LEVEL_1
  -------         PROC          _DESCOEMSENDSENDKEY_UNLOCK_LEVEL_1
  D:0001H         SYMBOL        pMsgContext
 C1:FC3EH         LINE#         5954
 C1:FC3EH         LINE#         5955
 C1:FC3EH         LINE#         5956
 C1:FC45H         LINE#         5957
  -------         ENDPROC       _DESCOEMSENDSENDKEY_UNLOCK_LEVEL_1

  -------         PROC BANK=1   _DESCOEMPOSTSTARTSESSIONDEFAULT
  D:0007H         SYMBOL        status
 C1:FC46H         LINE#         5974
 C1:FC46H         LINE#         5975
 C1:FC46H         LINE#         5976
 C1:FC4DH         LINE#         5977
  -------         ENDPROC       _DESCOEMPOSTSTARTSESSIONDEFAULT
  -------         PROC          _DESCOEMPOSTSTARTSESSIONPROGRAMMING
  D:0007H         SYMBOL        status
 C1:FC4EH         LINE#         5994
 C1:FC4EH         LINE#         5995
 C1:FC4EH         LINE#         5996
 C1:FC55H         LINE#         5997
  -------         ENDPROC       _DESCOEMPOSTSTARTSESSIONPROGRAMMING
  -------         PROC          _DESCOEMPOSTSTARTSESSIONEXTENDED
  D:0007H         SYMBOL        status
 C1:FC56H         LINE#         6014
 C1:FC56H         LINE#         6015
 C1:FC56H         LINE#         6016
 C1:FC5DH         LINE#         6017
  -------         ENDPROC       _DESCOEMPOSTSTARTSESSIONEXTENDED
  -------         PROC          _DESCOEMPOSTSTARTSESSIONPROGRAMMING_SESSION_FOR_KWP2000
  D:0007H         SYMBOL        status
 C1:FC5EH         LINE#         6034
 C1:FC5EH         LINE#         6035
 C1:FC5EH         LINE#         6036
 C1:FC65H         LINE#         6037
  -------         ENDPROC       _DESCOEMPOSTSTARTSESSIONPROGRAMMING_SESSION_FOR_KWP2000
  -------         PROC          _DESCOEMPOSTSTARTSESSIONEXTENDED_SESSION_FOR_KWP2000
BL51 BANKED LINKER/LOCATER V6.22                                                      11/17/2023  15:14:24  PAGE 196


  D:0007H         SYMBOL        status
 C1:FC66H         LINE#         6054
 C1:FC66H         LINE#         6055
 C1:FC66H         LINE#         6056
 C1:FC6DH         LINE#         6057
  -------         ENDPROC       _DESCOEMPOSTSTARTSESSIONEXTENDED_SESSION_FOR_KWP2000

  -------         PROC BANK=1   _DESCDUMMYPOSTHANDLER
  X:0B4FH         SYMBOL        status
 C1:FD36H         LINE#         6087
 C1:FD3BH         LINE#         6088
 C1:FD3BH         LINE#         6091
 C1:FD3BH         LINE#         6092
  -------         ENDPROC       _DESCDUMMYPOSTHANDLER

  -------         PROC BANK=1   DESCISSUPPRESSPOSRESBITSET
 C1:F8B4H         LINE#         6104
 C1:F8B4H         LINE#         6105
 C1:F8B4H         LINE#         6106
 C1:F8C5H         LINE#         6107
  -------         ENDPROC       DESCISSUPPRESSPOSRESBITSET

  -------         PROC BANK=1   _DESCOEMPROCESSTESTERPRESENT
  X:0AC9H         SYMBOL        pMsgContext
 C1:F9C3H         LINE#         6123
 C1:F9CEH         LINE#         6124
 C1:F9CEH         LINE#         6127
 C1:F9CEH         LINE#         6129
 C1:F9D1H         LINE#         6130
  -------         ENDPROC       _DESCOEMPROCESSTESTERPRESENT

  -------         PROC BANK=1   DESCENABLECOMMUNICATION
 C1:F50CH         LINE#         6168
 C1:F50CH         LINE#         6169
 C1:F50CH         LINE#         6171
 C1:F513H         LINE#         6172
 C1:F51CH         LINE#         6174
 C1:F521H         LINE#         6176
 C1:F524H         LINE#         6179
 C1:F529H         LINE#         6180
  -------         ENDPROC       DESCENABLECOMMUNICATION

  -------         PROC BANK=1   _DESCOEMCOMMONCOMMCTRL
  X:09F7H         SYMBOL        pMsgContext
  -------         DO            
  X:09FAH         SYMBOL        reqInfo
  X:09FBH         SYMBOL        errorCode
  -------         ENDDO         
 C1:B024H         LINE#         6191
 C1:B02FH         LINE#         6192
 C1:B02FH         LINE#         6194
 C1:B034H         LINE#         6196
 C1:B053H         LINE#         6197
 C1:B053H         LINE#         6198
 C1:B069H         LINE#         6199
 C1:B069H         LINE#         6200
 C1:B069H         LINE#         6201
BL51 BANKED LINKER/LOCATER V6.22                                                      11/17/2023  15:14:24  PAGE 197


 C1:B069H         LINE#         6205
 C1:B06FH         LINE#         6206
 C1:B06FH         LINE#         6207
 C1:B075H         LINE#         6208
 C1:B078H         LINE#         6209
 C1:B078H         LINE#         6212
 C1:B082H         LINE#         6213
 C1:B082H         LINE#         6214
 C1:B088H         LINE#         6215
 C1:B08BH         LINE#         6216
 C1:B08BH         LINE#         6219
 C1:B0A0H         LINE#         6220
 C1:B0BCH         LINE#         6223
 C1:B0D4H         LINE#         6224
 C1:B0D6H         LINE#         6227
 C1:B0D6H         LINE#         6228
 C1:B0D6H         LINE#         6229
 C1:B0EEH         LINE#         6230
 C1:B0EEH         LINE#         6232
 C1:B0F4H         LINE#         6233
 C1:B0F6H         LINE#         6234
 C1:B0F6H         LINE#         6236
 C1:B0FFH         LINE#         6237
 C1:B0FFH         LINE#         6239
 C1:B117H         LINE#         6240
 C1:B117H         LINE#         6242
 C1:B12EH         LINE#         6243
 C1:B12EH         LINE#         6244
 C1:B134H         LINE#         6245
 C1:B136H         LINE#         6246
 C1:B136H         LINE#         6247
 C1:B13BH         LINE#         6248
 C1:B13DH         LINE#         6250
 C1:B13DH         LINE#         6251
 C1:B143H         LINE#         6252
 C1:B145H         LINE#         6253
 C1:B145H         LINE#         6254
 C1:B147H         LINE#         6256
 C1:B147H         LINE#         6257
 C1:B14DH         LINE#         6258
 C1:B14DH         LINE#         6260
 C1:B153H         LINE#         6261
 C1:B153H         LINE#         6263
 C1:B166H         LINE#         6264
 C1:B167H         LINE#         6266
 C1:B167H         LINE#         6267
 C1:B16FH         LINE#         6268
 C1:B172H         LINE#         6269
 C1:B172H         LINE#         6270
  -------         ENDPROC       _DESCOEMCOMMONCOMMCTRL

  -------         PROC BANK=1   _DESCOEMENABLECOMMUNICATION
  X:0A45H         SYMBOL        pMsgContext
  -------         DO            
  X:0A48H         SYMBOL        errorCode
  -------         ENDDO         
 C1:D93EH         LINE#         6281
BL51 BANKED LINKER/LOCATER V6.22                                                      11/17/2023  15:14:24  PAGE 198


 C1:D949H         LINE#         6282
 C1:D949H         LINE#         6283
 C1:D94CH         LINE#         6286
 C1:D963H         LINE#         6287
 C1:D963H         LINE#         6288
 C1:D969H         LINE#         6289
 C1:D96BH         LINE#         6291
 C1:D96BH         LINE#         6293
 C1:D97BH         LINE#         6294
 C1:D97BH         LINE#         6295
 C1:D981H         LINE#         6296
 C1:D983H         LINE#         6298
 C1:D983H         LINE#         6300
 C1:D987H         LINE#         6301
 C1:D987H         LINE#         6303
 C1:D99FH         LINE#         6304
 C1:D99FH         LINE#         6305
 C1:D99FH         LINE#         6306
 C1:D99FH         LINE#         6308
 C1:D9A5H         LINE#         6309
 C1:D9A5H         LINE#         6311
 C1:D9B5H         LINE#         6312
 C1:D9B6H         LINE#         6314
 C1:D9B6H         LINE#         6315
 C1:D9BEH         LINE#         6316
 C1:D9C1H         LINE#         6317
 C1:D9C1H         LINE#         6318
  -------         ENDPROC       _DESCOEMENABLECOMMUNICATION

  -------         PROC BANK=1   _DESCOEMCOMMONCOMMCTRLPROCESS
  D:0005H         SYMBOL        reqInfo
  X:0ACCH         SYMBOL        pMsgContext
 C1:EA15H         LINE#         6330
 C1:EA23H         LINE#         6331
 C1:EA23H         LINE#         6332
 C1:EA23H         LINE#         6337
 C1:EA23H         LINE#         6343
 C1:EA2CH         LINE#         6345
 C1:EA31H         LINE#         6347
 C1:EA42H         LINE#         6350
 C1:EA55H         LINE#         6356
 C1:EA55H         LINE#         6358
 C1:EA5EH         LINE#         6359
  -------         ENDPROC       _DESCOEMCOMMONCOMMCTRLPROCESS

  -------         PROC BANK=1   _DESCOEMPOSTCOMMONCOMMCTRL
  D:0007H         SYMBOL        status
 C1:FD95H         LINE#         6370
 C1:FD95H         LINE#         6371
 C1:FD95H         LINE#         6372
 C1:FD98H         LINE#         6373
  -------         ENDPROC       _DESCOEMPOSTCOMMONCOMMCTRL

  -------         PROC BANK=1   _DESCOEMPOSTENABLECOMMUNICATION
  D:0007H         SYMBOL        status
 C1:FD99H         LINE#         6385
 C1:FD99H         LINE#         6386
BL51 BANKED LINKER/LOCATER V6.22                                                      11/17/2023  15:14:24  PAGE 199


 C1:FD99H         LINE#         6387
 C1:FD9CH         LINE#         6388
  -------         ENDPROC       _DESCOEMPOSTENABLECOMMUNICATION
  -------         PROC          _DESCOEMPOSTCOMMONCOMMCTRLPROCESS
  D:0007H         SYMBOL        status
 C1:EF0FH         LINE#         6400
 C1:EF0FH         LINE#         6401
 C1:EF0FH         LINE#         6407
 C1:EF13H         LINE#         6408
 C1:EF13H         LINE#         6409
 C1:EF1BH         LINE#         6410
 C1:EF1BH         LINE#         6411
 C1:EF1BH         LINE#         6414
 C1:EF1BH         LINE#         6416
 C1:EF1EH         LINE#         6417
 C1:EF1EH         LINE#         6422
 C1:EF20H         LINE#         6423
 C1:EF20H         LINE#         6424
 C1:EF2AH         LINE#         6425
 C1:EF2AH         LINE#         6426
 C1:EF2DH         LINE#         6427
 C1:EF2DH         LINE#         6435
 C1:EF2DH         LINE#         6437
 C1:EF38H         LINE#         6438
 C1:EF38H         LINE#         6440
 C1:EF3BH         LINE#         6441
 C1:EF3CH         LINE#         6443
 C1:EF3CH         LINE#         6445
 C1:EF3FH         LINE#         6446
 C1:EF3FH         LINE#         6447
 C1:EF3FH         LINE#         6452
  -------         ENDPROC       _DESCOEMPOSTCOMMONCOMMCTRLPROCESS

  -------         PROC BANK=1   DESCCOMMCTRLMANIPULATECAN
 C1:EFA0H         LINE#         6463
 C1:EFA0H         LINE#         6464
 C1:EFA0H         LINE#         6465
 C1:EFABH         LINE#         6466
 C1:EFABH         LINE#         6467
 C1:EFB6H         LINE#         6468
 C1:EFB8H         LINE#         6470
 C1:EFB8H         LINE#         6471
 C1:EFC6H         LINE#         6472
 C1:EFC6H         LINE#         6480
 C1:EFCFH         LINE#         6482
  -------         ENDPROC       DESCCOMMCTRLMANIPULATECAN

  -------         PROC BANK=1   _DESCOEMSTOPDIAGNOSTICSESSION
  D:0001H         SYMBOL        pMsgContext
 C1:F40CH         LINE#         6494
 C1:F40CH         LINE#         6495
 C1:F40CH         LINE#         6496
 C1:F41DH         LINE#         6498
 C1:F42DH         LINE#         6499
  -------         ENDPROC       _DESCOEMSTOPDIAGNOSTICSESSION

  -------         PROC BANK=1   _DESCOEMPREPARESESSIONCONTROL
BL51 BANKED LINKER/LOCATER V6.22                                                      11/17/2023  15:14:24  PAGE 200


  D:0001H         SYMBOL        pMsgContext
  X:0B20H         SYMBOL        targetSession
 C1:EE09H         LINE#         6511
 C1:EE11H         LINE#         6512
 C1:EE11H         LINE#         6517
 C1:EE15H         LINE#         6520
 C1:EE15H         LINE#         6522
 C1:EE22H         LINE#         6523
 C1:EE22H         LINE#         6525
 C1:EE27H         LINE#         6526
 C1:EE2BH         LINE#         6528
 C1:EE2BH         LINE#         6529
 C1:EE2BH         LINE#         6535
 C1:EE2BH         LINE#         6544
 C1:EE2BH         LINE#         6546
 C1:EE3FH         LINE#         6547
  -------         ENDPROC       _DESCOEMPREPARESESSIONCONTROL
  -------         PROC          _DESCOEMCOMMONSESSIONPOSTPROCESSING
  X:0ACFH         SYMBOL        status
  X:0AD0H         SYMBOL        newSession
 C1:FB8AH         LINE#         6560
 C1:FB95H         LINE#         6561
 C1:FB95H         LINE#         6565
 C1:FB95H         LINE#         6566
 C1:FB95H         LINE#         6588
  -------         ENDPROC       _DESCOEMCOMMONSESSIONPOSTPROCESSING

  -------         PROC BANK=1   DESCOEMONINVALIDREQ_27
 C1:F581H         LINE#         6625
 C1:F581H         LINE#         6626
 C1:F581H         LINE#         6628
 C1:F598H         LINE#         6629
 C1:F598H         LINE#         6630
 C1:F59DH         LINE#         6631
 C1:F59DH         LINE#         6632
  -------         ENDPROC       DESCOEMONINVALIDREQ_27

  -------         PROC BANK=1   DESCSECURITYONCEINITPOWERON
 C1:FBB5H         LINE#         6643
 C1:FBB5H         LINE#         6644
 C1:FBB5H         LINE#         6646
 C1:FBBAH         LINE#         6653
 C1:FBBEH         LINE#         6655
  -------         ENDPROC       DESCSECURITYONCEINITPOWERON

  -------         PROC BANK=1   DESCSECURITYACCESSTIMER
  -------         DO            
  X:0B50H         SYMBOL        newCount
  -------         ENDDO         
 C1:F0D2H         LINE#         6666
 C1:F0D2H         LINE#         6667
 C1:F0D2H         LINE#         6668
 C1:F0DCH         LINE#         6669
 C1:F0DCH         LINE#         6670
 C1:F0EAH         LINE#         6671
 C1:F0F1H         LINE#         6672
 C1:F0F1H         LINE#         6678
BL51 BANKED LINKER/LOCATER V6.22                                                      11/17/2023  15:14:24  PAGE 201


 C1:F0F7H         LINE#         6685
 C1:F0FBH         LINE#         6686
 C1:F0FBH         LINE#         6687
 C1:F0FBH         LINE#         6688
  -------         ENDPROC       DESCSECURITYACCESSTIMER

  -------         PROC BANK=1   DESCGETATTEMPTCOUNTERVALUE
 C1:FD3CH         LINE#         6699
 C1:FD3CH         LINE#         6700
 C1:FD3CH         LINE#         6703
 C1:FD41H         LINE#         6704
  -------         ENDPROC       DESCGETATTEMPTCOUNTERVALUE

  -------         PROC BANK=1   _DESCSETATTEMPTCOUNTERVALUE
  D:0007H         SYMBOL        value
 C1:F7FFH         LINE#         6715
 C1:F7FFH         LINE#         6716
 C1:F7FFH         LINE#         6726
 C1:F804H         LINE#         6727
 C1:F809H         LINE#         6728
 C1:F809H         LINE#         6730
 C1:F811H         LINE#         6731
 C1:F811H         LINE#         6732
  -------         ENDPROC       _DESCSETATTEMPTCOUNTERVALUE

  -------         PROC BANK=1   DESCSECURITYONCEINIT
 C1:FBBFH         LINE#         6760
 C1:FBBFH         LINE#         6761
 C1:FBBFH         LINE#         6762
 C1:FBC4H         LINE#         6764
 C1:FBC8H         LINE#         6765
  -------         ENDPROC       DESCSECURITYONCEINIT

  -------         PROC BANK=1   _DESCOEMSECURITYSEED
  D:0001H         SYMBOL        pMsgContext
  X:0B22H         SYMBOL        requestedSecurityLevel
 C1:DF5AH         LINE#         6803
 C1:DF62H         LINE#         6804
 C1:DF62H         LINE#         6805
 C1:DF62H         LINE#         6807
 C1:DF68H         LINE#         6811
 C1:DF79H         LINE#         6817
 C1:DF81H         LINE#         6826
 C1:DF81H         LINE#         6828
 C1:DF8BH         LINE#         6829
 C1:DF8BH         LINE#         6830
 C1:DF91H         LINE#         6831
 C1:DF94H         LINE#         6832
 C1:DF95H         LINE#         6835
 C1:DF95H         LINE#         6836
 C1:DF95H         LINE#         6837
 C1:DF95H         LINE#         6875
 C1:DF95H         LINE#         6878
 C1:DFA4H         LINE#         6879
 C1:DFA4H         LINE#         6884
 C1:DFB7H         LINE#         6887
 C1:DFBAH         LINE#         6888
BL51 BANKED LINKER/LOCATER V6.22                                                      11/17/2023  15:14:24  PAGE 202


 C1:DFBBH         LINE#         6890
 C1:DFBBH         LINE#         6892
 C1:DFC1H         LINE#         6894
 C1:DFC9H         LINE#         6896
 C1:DFC9H         LINE#         6897
 C1:DFC9H         LINE#         6898
 C1:DFC9H         LINE#         6899
  -------         ENDPROC       _DESCOEMSECURITYSEED

  -------         PROC BANK=1   DESCSECURITYACCESSSEEDREADY
 C1:F90BH         LINE#         6908
 C1:F90BH         LINE#         6909
 C1:F90BH         LINE#         6911
 C1:F918H         LINE#         6916
 C1:F91BH         LINE#         6917
  -------         ENDPROC       DESCSECURITYACCESSSEEDREADY

  -------         PROC BANK=1   _DESCOEMSECURITYKEY
  X:09FCH         SYMBOL        pMsgContext
  X:09FFH         SYMBOL        requestedSecurityLevel
 C1:D69BH         LINE#         6927
 C1:D6ACH         LINE#         6928
 C1:D6ACH         LINE#         6929
 C1:D6B2H         LINE#         6930
 C1:D6B2H         LINE#         6938
 C1:D6B2H         LINE#         6939
 C1:D6B8H         LINE#         6940
 C1:D6B8H         LINE#         6942
 C1:D6BBH         LINE#         6943
 C1:D6BCH         LINE#         6945
 C1:D6BCH         LINE#         6948
 C1:D6C1H         LINE#         6950
 C1:D6D5H         LINE#         6951
 C1:D6D5H         LINE#         6952
 C1:D6DBH         LINE#         6954
 C1:D6DEH         LINE#         6958
 C1:D6DFH         LINE#         6960
 C1:D6DFH         LINE#         6961
 C1:D6F8H         LINE#         6962
 C1:D70DH         LINE#         6963
 C1:D71CH         LINE#         6967
 C1:D725H         LINE#         6969
 C1:D725H         LINE#         6970
 C1:D725H         LINE#         6971
  -------         ENDPROC       _DESCOEMSECURITYKEY

  -------         PROC BANK=1   DESCSECURITYACCESSKEYCHECKED
  -------         DO            
  D:0007H         SYMBOL        newCount
  -------         ENDDO         
 C1:EEABH         LINE#         6980
 C1:EEABH         LINE#         6981
 C1:EEABH         LINE#         6984
 C1:EEB0H         LINE#         6991
 C1:EEB6H         LINE#         6992
 C1:EEB6H         LINE#         7001
 C1:EEB6H         LINE#         7003
BL51 BANKED LINKER/LOCATER V6.22                                                      11/17/2023  15:14:24  PAGE 203


 C1:EEB7H         LINE#         7005
 C1:EEBDH         LINE#         7006
 C1:EEBDH         LINE#         7010
 C1:EEC3H         LINE#         7012
 C1:EECDH         LINE#         7013
 C1:EECFH         LINE#         7016
 C1:EECFH         LINE#         7020
 C1:EED5H         LINE#         7021
 C1:EED5H         LINE#         7022
 C1:EED5H         LINE#         7023
 C1:EED5H         LINE#         7045
 C1:EEDAH         LINE#         7048
 C1:EEDDH         LINE#         7049
  -------         ENDPROC       DESCSECURITYACCESSKEYCHECKED

  -------         PROC BANK=1   _DESCPMGETPIDRESPONSELEN
  D:0007H         SYMBOL        pidHandle
  -------         DO            
  D:0004H         SYMBOL        result
  -------         ENDDO         
 C1:F44FH         LINE#         7063
 C1:F44FH         LINE#         7064
 C1:F44FH         LINE#         7067
 C1:F452H         LINE#         7070
 C1:F454H         LINE#         7071
 C1:F454H         LINE#         7072
 C1:F469H         LINE#         7073
 C1:F469H         LINE#         7075
 C1:F46FH         LINE#         7076
  -------         ENDPROC       _DESCPMGETPIDRESPONSELEN

  -------         PROC BANK=1   _DESCPMANALYSEPID
  D:0006H         SYMBOL        pRefTinyInfo
  -------         DO            
  D:0002H         SYMBOL        reason
  -------         ENDDO         
 C1:EBF6H         LINE#         7088
 C1:EBF6H         LINE#         7089
 C1:EBF6H         LINE#         7090
 C1:EBF8H         LINE#         7096
 C1:EC0BH         LINE#         7097
 C1:EC0BH         LINE#         7100
 C1:EC11H         LINE#         7101
 C1:EC13H         LINE#         7104
 C1:EC13H         LINE#         7107
 C1:EC1BH         LINE#         7108
 C1:EC1DH         LINE#         7110
 C1:EC1DH         LINE#         7118
 C1:EC1DH         LINE#         7121
 C1:EC1DH         LINE#         7126
 C1:EC24H         LINE#         7128
 C1:EC24H         LINE#         7129
 C1:EC26H         LINE#         7130
 C1:EC29H         LINE#         7131
 C1:EC29H         LINE#         7133
 C1:EC30H         LINE#         7134
 C1:EC30H         LINE#         7135
BL51 BANKED LINKER/LOCATER V6.22                                                      11/17/2023  15:14:24  PAGE 204


 C1:EC32H         LINE#         7136
 C1:EC32H         LINE#         7137
 C1:EC32H         LINE#         7139
 C1:EC32H         LINE#         7141
 C1:EC35H         LINE#         7142
  -------         ENDPROC       _DESCPMANALYSEPID

  -------         PROC BANK=1   _DESCPMGETAVAILABLEPIDHANDLE
  D:0006H         SYMBOL        pid
  -------         DO            
  D:0007H         SYMBOL        result
  -------         ENDDO         
 C1:FD9DH         LINE#         7190
 C1:FD9DH         LINE#         7191
 C1:FD9DH         LINE#         7194
 C1:FDA0H         LINE#         7195
 C1:FDA0H         LINE#         7197
 C1:FDA0H         LINE#         7198
  -------         ENDPROC       _DESCPMGETAVAILABLEPIDHANDLE

  -------         PROC BANK=1   _DESCPMGETPIDPOOLHANDLE
  X:0B24H         SYMBOL        pid
  -------         DO            
  D:0001H         SYMBOL        loIdx
  D:0002H         SYMBOL        hiIdx
  D:0003H         SYMBOL        idx
  -------         ENDDO         
 C1:DEE9H         LINE#         7229
 C1:DEF1H         LINE#         7230
 C1:DEF1H         LINE#         7236
 C1:DEF3H         LINE#         7237
 C1:DEF5H         LINE#         7240
 C1:DEF5H         LINE#         7243
 C1:DF01H         LINE#         7246
 C1:DF25H         LINE#         7247
 C1:DF25H         LINE#         7257
 C1:DF25H         LINE#         7267
 C1:DF25H         LINE#         7277
 C1:DF25H         LINE#         7278
 C1:DF29H         LINE#         7279
 C1:DF29H         LINE#         7280
 C1:DF29H         LINE#         7281
 C1:DF29H         LINE#         7282
 C1:DF29H         LINE#         7284
 C1:DF45H         LINE#         7285
 C1:DF45H         LINE#         7287
 C1:DF48H         LINE#         7288
 C1:DF48H         LINE#         7289
 C1:DF48H         LINE#         7290
 C1:DF48H         LINE#         7291
 C1:DF4DH         LINE#         7292
 C1:DF4FH         LINE#         7294
 C1:DF4FH         LINE#         7296
 C1:DF52H         LINE#         7297
 C1:DF52H         LINE#         7298
 C1:DF52H         LINE#         7299
 C1:DF57H         LINE#         7301
BL51 BANKED LINKER/LOCATER V6.22                                                      11/17/2023  15:14:24  PAGE 205


 C1:DF59H         LINE#         7302
  -------         ENDPROC       _DESCPMGETPIDPOOLHANDLE

  -------         PROC BANK=1   _DESCRIDANALYSEROUTINE
  D:0006H         SYMBOL        pRefTinyInfo
  D:0001H         SYMBOL        isOnRid
 C1:EE40H         LINE#         7313
 C1:EE43H         LINE#         7314
 C1:EE43H         LINE#         7320
 C1:EE56H         LINE#         7321
 C1:EE56H         LINE#         7322
 C1:EE5CH         LINE#         7323
 C1:EE5DH         LINE#         7326
 C1:EE5DH         LINE#         7329
 C1:EE65H         LINE#         7330
 C1:EE67H         LINE#         7332
 C1:EE67H         LINE#         7340
 C1:EE67H         LINE#         7342
 C1:EE67H         LINE#         7345
 C1:EE72H         LINE#         7346
 C1:EE72H         LINE#         7347
 C1:EE75H         LINE#         7348
 C1:EE75H         LINE#         7349
 C1:EE75H         LINE#         7350
 C1:EE75H         LINE#         7351
  -------         ENDPROC       _DESCRIDANALYSEROUTINE

  -------         PROC BANK=1   _DESCRIDFINDSUBFUNCTION
  D:0007H         SYMBOL        subFuncId
  D:0005H         SYMBOL        ridRef
  -------         DO            
  D:0006H         SYMBOL        result
  -------         ENDDO         
 C1:F4EDH         LINE#         7362
 C1:F4EDH         LINE#         7363
 C1:F4EDH         LINE#         7365
 C1:F4EFH         LINE#         7367
 C1:F4F5H         LINE#         7368
 C1:F4F5H         LINE#         7370
 C1:F4FBH         LINE#         7372
 C1:F500H         LINE#         7373
 C1:F500H         LINE#         7378
 C1:F504H         LINE#         7379
 C1:F507H         LINE#         7383
 C1:F508H         LINE#         7385
 C1:F508H         LINE#         7386
 C1:F508H         LINE#         7387
 C1:F50BH         LINE#         7388
  -------         ENDPROC       _DESCRIDFINDSUBFUNCTION

  -------         PROC BANK=1   _DESCROUTINECONTROLBYIDENTIFIER
  X:0A49H         SYMBOL        pMsgContext
  -------         DO            
  X:0A4CH         SYMBOL        ridInstRef
  -------         ENDDO         
 C1:AA4EH         LINE#         7399
 C1:AA59H         LINE#         7400
BL51 BANKED LINKER/LOCATER V6.22                                                      11/17/2023  15:14:24  PAGE 206


 C1:AA59H         LINE#         7414
 C1:AA6BH         LINE#         7415
 C1:AA6BH         LINE#         7416
 C1:AA92H         LINE#         7419
 C1:AA9AH         LINE#         7420
 C1:AA9AH         LINE#         7422
 C1:AAAEH         LINE#         7424
 C1:AAB7H         LINE#         7425
 C1:AAB7H         LINE#         7427
 C1:AAD6H         LINE#         7435
 C1:AADEH         LINE#         7436
 C1:AADEH         LINE#         7438
 C1:AB14H         LINE#         7440
 C1:AB14H         LINE#         7442
 C1:AB2BH         LINE#         7445
 C1:AB34H         LINE#         7446
 C1:AB34H         LINE#         7452
 C1:AB49H         LINE#         7453
 C1:AB5FH         LINE#         7454
 C1:AB75H         LINE#         7456
 C1:AB7EH         LINE#         7458
 C1:ABA6H         LINE#         7461
 C1:ABA6H         LINE#         7463
 C1:ABA6H         LINE#         7465
 C1:ABA6H         LINE#         7467
 C1:ABACH         LINE#         7468
 C1:ABACH         LINE#         7469
 C1:ABAEH         LINE#         7471
 C1:ABAEH         LINE#         7473
 C1:ABB4H         LINE#         7474
 C1:ABB4H         LINE#         7475
 C1:ABB4H         LINE#         7477
 C1:ABB6H         LINE#         7479
 C1:ABB6H         LINE#         7481
 C1:ABBCH         LINE#         7482
 C1:ABBCH         LINE#         7483
 C1:ABBEH         LINE#         7485
 C1:ABBEH         LINE#         7487
 C1:ABC4H         LINE#         7488
 C1:ABC4H         LINE#         7491
 C1:ABC7H         LINE#         7492
  -------         ENDPROC       _DESCROUTINECONTROLBYIDENTIFIER

  -------         PROC BANK=1   DESCRIDPROCESSINGDONE
 C1:F8C6H         LINE#         7503
 C1:F8C6H         LINE#         7504
 C1:F8C6H         LINE#         7506
 C1:F8D4H         LINE#         7508
 C1:F8D7H         LINE#         7515
  -------         ENDPROC       DESCRIDPROCESSINGDONE

  -------         PROC BANK=1   _DESCRIDFINDROUTINEID
  D:0006H         SYMBOL        rid
  -------         DO            
  D:0005H         SYMBOL        result
  D:0004H         SYMBOL        iter
  -------         ENDDO         
BL51 BANKED LINKER/LOCATER V6.22                                                      11/17/2023  15:14:24  PAGE 207


 C1:F126H         LINE#         7546
 C1:F126H         LINE#         7547
 C1:F126H         LINE#         7548
 C1:F128H         LINE#         7549
 C1:F12AH         LINE#         7551
 C1:F12DH         LINE#         7552
 C1:F12DH         LINE#         7553
 C1:F12EH         LINE#         7554
 C1:F145H         LINE#         7555
 C1:F145H         LINE#         7560
 C1:F145H         LINE#         7561
 C1:F148H         LINE#         7562
 C1:F148H         LINE#         7563
 C1:F149H         LINE#         7564
 C1:F149H         LINE#         7565
 C1:F14BH         LINE#         7566
 C1:F14EH         LINE#         7567
  -------         ENDPROC       _DESCRIDFINDROUTINEID

  -------         PROC BANK=1   DESCITERINITPIDLISTPROCESSOR
 C1:FC6EH         LINE#         7577
 C1:FC6EH         LINE#         7578
 C1:FC6EH         LINE#         7584
 C1:FC75H         LINE#         7586
  -------         ENDPROC       DESCITERINITPIDLISTPROCESSOR

  -------         PROC BANK=1   DESCPIDPROCESSINGDONE
 C1:E4D8H         LINE#         7597
 C1:E4D8H         LINE#         7598
 C1:E4D8H         LINE#         7708
 C1:E4DEH         LINE#         7709
 C1:E4DEH         LINE#         7711
 C1:E4F8H         LINE#         7714
 C1:E505H         LINE#         7715
 C1:E505H         LINE#         7717
 C1:E50BH         LINE#         7718
 C1:E50DH         LINE#         7720
 C1:E50DH         LINE#         7721
 C1:E516H         LINE#         7723
 C1:E520H         LINE#         7726
 C1:E52AH         LINE#         7727
 C1:E52AH         LINE#         7729
 C1:E532H         LINE#         7732
 C1:E532H         LINE#         7733
 C1:E532H         LINE#         7734
 C1:E532H         LINE#         7736
 C1:E535H         LINE#         7738
  -------         ENDPROC       DESCPIDPROCESSINGDONE

  -------         PROC BANK=1   DESCPIDPROCESSORTASK
  -------         DO            
  D:0005H         SYMBOL        pidHandle
  -------         ENDDO         
 C1:C83CH         LINE#         7749
 C1:C83CH         LINE#         7750
 C1:C83CH         LINE#         7754
 C1:C849H         LINE#         7755
BL51 BANKED LINKER/LOCATER V6.22                                                      11/17/2023  15:14:24  PAGE 208


 C1:C849H         LINE#         7757
 C1:C854H         LINE#         7758
 C1:C854H         LINE#         7759
 C1:C857H         LINE#         7772
 C1:C866H         LINE#         7773
 C1:C866H         LINE#         7784
 C1:C880H         LINE#         7786
 C1:C8A0H         LINE#         7787
 C1:C8C6H         LINE#         7789
 C1:C8D0H         LINE#         7792
 C1:C8E5H         LINE#         7795
 C1:C8ECH         LINE#         7817
 C1:C916H         LINE#         7819
 C1:C916H         LINE#         7820
 C1:C916H         LINE#         7821
 C1:C916H         LINE#         7822
  -------         ENDPROC       DESCPIDPROCESSORTASK

  -------         PROC BANK=1   DESCPIDDISPATCHER
  -------         DO            
  X:0A4DH         SYMBOL        iter
  X:0A4EH         SYMBOL        pidHandle
  -------         DO            
  X:0A4FH         SYMBOL        pidResLen
  -------         ENDDO         
  -------         ENDDO         
 C1:BBE6H         LINE#         7833
 C1:BBE6H         LINE#         7834
 C1:BBE6H         LINE#         7843
 C1:BBEDH         LINE#         7845
 C1:BC01H         LINE#         7858
 C1:BC07H         LINE#         7860
 C1:BC0BH         LINE#         7864
 C1:BC13H         LINE#         7866
 C1:BC25H         LINE#         7867
 C1:BC25H         LINE#         7876
 C1:BC45H         LINE#         7879
 C1:BC4BH         LINE#         7881
 C1:BC55H         LINE#         7887
 C1:BC5BH         LINE#         7889
 C1:BC5BH         LINE#         7897
 C1:BC6BH         LINE#         7912
 C1:BC6BH         LINE#         7916
 C1:BC7FH         LINE#         7924
 C1:BC91H         LINE#         7927
 C1:BC91H         LINE#         7936
 C1:BC91H         LINE#         7974
 C1:BC9AH         LINE#         7976
 C1:BCB4H         LINE#         7978
 C1:BCB4H         LINE#         7979
 C1:BCB4H         LINE#         7980
 C1:BCB4H         LINE#         7988
 C1:BCB4H         LINE#         7989
 C1:BCB7H         LINE#         7991
 C1:BCBDH         LINE#         7992
 C1:BCBDH         LINE#         8001
 C1:BCBDH         LINE#         8004
BL51 BANKED LINKER/LOCATER V6.22                                                      11/17/2023  15:14:24  PAGE 209


 C1:BCC2H         LINE#         8005
 C1:BCC2H         LINE#         8006
 C1:BCC2H         LINE#         8012
 C1:BCDAH         LINE#         8015
 C1:BCDAH         LINE#         8018
 C1:BCDFH         LINE#         8019
 C1:BCDFH         LINE#         8022
 C1:BCE6H         LINE#         8024
  -------         ENDPROC       DESCPIDDISPATCHER

  -------         PROC BANK=1   _DESCPOSTREADDATABYIDENTIFIER
  X:0B51H         SYMBOL        status
 C1:FD42H         LINE#         8035
 C1:FD47H         LINE#         8036
 C1:FD47H         LINE#         8062
 C1:FD47H         LINE#         8066
  -------         ENDPROC       _DESCPOSTREADDATABYIDENTIFIER

  -------         PROC BANK=1   _DESCREADDATABYIDENTIFIER
  D:0001H         SYMBOL        pMsgContext
 C1:E6A2H         LINE#         8077
 C1:E6A2H         LINE#         8078
 C1:E6A2H         LINE#         8096
 C1:E6B6H         LINE#         8097
 C1:E6B6H         LINE#         8099
 C1:E6C3H         LINE#         8100
 C1:E6C3H         LINE#         8102
 C1:E6CCH         LINE#         8104
 C1:E6D9H         LINE#         8106
 C1:E6DCH         LINE#         8108
 C1:E6E2H         LINE#         8109
 C1:E6E2H         LINE#         8124
 C1:E6EAH         LINE#         8126
 C1:E6EAH         LINE#         8127
 C1:E6EAH         LINE#         8129
 C1:E6EAH         LINE#         8131
 C1:E6F0H         LINE#         8132
 C1:E6F0H         LINE#         8133
 C1:E6F2H         LINE#         8135
 C1:E6F2H         LINE#         8137
 C1:E6F8H         LINE#         8138
 C1:E6F8H         LINE#         8156
 C1:E6FBH         LINE#         8157
  -------         ENDPROC       _DESCREADDATABYIDENTIFIER
  -------         ENDMOD        DESC

  -------         MODULE        DRV_PAR
  C:0000H         SYMBOL        _ICE_DUMMY_
  D:00A8H         PUBLIC        VSTDLIB_IE
  X:0808H         PUBLIC        MDPS11
  X:0810H         PUBLIC        HU_MON_PE_01
  X:0811H         PUBLIC        CGW4
  X:0818H         PUBLIC        CGW2
  X:081CH         PUBLIC        CLU15
  X:0821H         PUBLIC        PGS_GST
  X:0829H         PUBLIC        SAS1
  -------         ENDMOD        DRV_PAR
BL51 BANKED LINKER/LOCATER V6.22                                                      11/17/2023  15:14:24  PAGE 210



  -------         MODULE        IL_PAR
  C:0000H         SYMBOL        _ICE_DUMMY_
  D:00A8H         PUBLIC        VSTDLIB_IE
 C1:F9D2H         PUBLIC        _IlMsgHU_MON_PE_01PreCopy
 C1:F9E1H         PUBLIC        _IlMsgCGW4PreCopy
 C1:F9F0H         PUBLIC        _IlMsgCGW2PreCopy
 C1:F9FFH         PUBLIC        _IlMsgCLU15PreCopy
 C1:FA0EH         PUBLIC        _IlMsgMDPS11PreCopy
 C1:FA1DH         PUBLIC        _IlMsgSAS1PreCopy
 C1:FAA6H         PUBLIC        _IlMsgHU_MON_PE_01Indication
 C1:FAB3H         PUBLIC        _IlMsgCGW4Indication
 C1:FAC0H         PUBLIC        _IlMsgCGW2Indication
 C1:FACDH         PUBLIC        _IlMsgCLU15Indication
 C1:FADAH         PUBLIC        _IlMsgMDPS11Indication
 C1:FAE7H         PUBLIC        _IlMsgSAS1Indication
 C1:F0FCH         PUBLIC        IlGetRxSAS_Angle
  C:72B9H         PUBLIC        IlRxDefaultInitValue
  C:72A6H         PUBLIC        IlRxTimeoutFctPtr
  C:72A0H         PUBLIC        IlRxTimeoutTbl
 C1:FAF4H         SYMBOL        IlMsgHU_MON_PE_01TimeoutIndication
 C1:FB01H         SYMBOL        IlMsgCGW4TimeoutIndication
 C1:FB0EH         SYMBOL        IlMsgCGW2TimeoutIndication
 C1:FB1BH         SYMBOL        IlMsgCLU15TimeoutIndication
 C1:FB28H         SYMBOL        IlMsgMDPS11TimeoutIndication
 C1:FB35H         SYMBOL        IlMsgSAS1TimeoutIndication
  C:72B8H         SYMBOL        HU_MON_PE_01IlRxDefaultInitValue

  -------         PROC BANK=1   _ILMSGHU_MON_PE_01PRECOPY
  X:0000H         SYMBOL        rxStruct
 C1:F9D2H         LINE#         201
 C1:F9D2H         LINE#         202
 C1:F9D2H         LINE#         203
 C1:F9D2H         LINE#         204
 C1:F9D5H         LINE#         205
 C1:F9DBH         LINE#         206
 C1:F9DEH         LINE#         207
 C1:F9E0H         LINE#         208
  -------         ENDPROC       _ILMSGHU_MON_PE_01PRECOPY

  -------         PROC BANK=1   _ILMSGCGW4PRECOPY
  X:0000H         SYMBOL        rxStruct
 C1:F9E1H         LINE#         214
 C1:F9E1H         LINE#         215
 C1:F9E1H         LINE#         216
 C1:F9E1H         LINE#         217
 C1:F9E4H         LINE#         218
 C1:F9EAH         LINE#         219
 C1:F9EDH         LINE#         220
 C1:F9EFH         LINE#         221
  -------         ENDPROC       _ILMSGCGW4PRECOPY

  -------         PROC BANK=1   _ILMSGCGW2PRECOPY
  X:0000H         SYMBOL        rxStruct
 C1:F9F0H         LINE#         227
 C1:F9F0H         LINE#         228
 C1:F9F0H         LINE#         229
BL51 BANKED LINKER/LOCATER V6.22                                                      11/17/2023  15:14:24  PAGE 211


 C1:F9F0H         LINE#         230
 C1:F9F3H         LINE#         231
 C1:F9F9H         LINE#         232
 C1:F9FCH         LINE#         233
 C1:F9FEH         LINE#         234
  -------         ENDPROC       _ILMSGCGW2PRECOPY

  -------         PROC BANK=1   _ILMSGCLU15PRECOPY
  X:0000H         SYMBOL        rxStruct
 C1:F9FFH         LINE#         240
 C1:F9FFH         LINE#         241
 C1:F9FFH         LINE#         242
 C1:F9FFH         LINE#         243
 C1:FA02H         LINE#         244
 C1:FA08H         LINE#         245
 C1:FA0BH         LINE#         246
 C1:FA0DH         LINE#         247
  -------         ENDPROC       _ILMSGCLU15PRECOPY

  -------         PROC BANK=1   _ILMSGMDPS11PRECOPY
  X:0000H         SYMBOL        rxStruct
 C1:FA0EH         LINE#         253
 C1:FA0EH         LINE#         254
 C1:FA0EH         LINE#         255
 C1:FA0EH         LINE#         256
 C1:FA11H         LINE#         257
 C1:FA17H         LINE#         258
 C1:FA1AH         LINE#         259
 C1:FA1CH         LINE#         260
  -------         ENDPROC       _ILMSGMDPS11PRECOPY

  -------         PROC BANK=1   _ILMSGSAS1PRECOPY
  X:0000H         SYMBOL        rxStruct
 C1:FA1DH         LINE#         266
 C1:FA1DH         LINE#         267
 C1:FA1DH         LINE#         268
 C1:FA1DH         LINE#         269
 C1:FA20H         LINE#         270
 C1:FA26H         LINE#         271
 C1:FA29H         LINE#         272
 C1:FA2BH         LINE#         273
  -------         ENDPROC       _ILMSGSAS1PRECOPY

  -------         PROC BANK=1   _ILMSGHU_MON_PE_01INDICATION
  X:0000H         SYMBOL        rxObject
 C1:FAA6H         LINE#         284
 C1:FAA6H         LINE#         285
 C1:FAA6H         LINE#         286
 C1:FAA6H         LINE#         287
 C1:FAA9H         LINE#         288
 C1:FAAFH         LINE#         289
 C1:FAB2H         LINE#         290
  -------         ENDPROC       _ILMSGHU_MON_PE_01INDICATION

  -------         PROC BANK=1   _ILMSGCGW4INDICATION
  X:0000H         SYMBOL        rxObject
 C1:FAB3H         LINE#         293
BL51 BANKED LINKER/LOCATER V6.22                                                      11/17/2023  15:14:24  PAGE 212


 C1:FAB3H         LINE#         294
 C1:FAB3H         LINE#         295
 C1:FAB3H         LINE#         296
 C1:FAB6H         LINE#         297
 C1:FABCH         LINE#         298
 C1:FABFH         LINE#         299
  -------         ENDPROC       _ILMSGCGW4INDICATION

  -------         PROC BANK=1   _ILMSGCGW2INDICATION
  X:0000H         SYMBOL        rxObject
 C1:FAC0H         LINE#         302
 C1:FAC0H         LINE#         303
 C1:FAC0H         LINE#         304
 C1:FAC0H         LINE#         305
 C1:FAC3H         LINE#         306
 C1:FAC9H         LINE#         307
 C1:FACCH         LINE#         308
  -------         ENDPROC       _ILMSGCGW2INDICATION

  -------         PROC BANK=1   _ILMSGCLU15INDICATION
  X:0000H         SYMBOL        rxObject
 C1:FACDH         LINE#         311
 C1:FACDH         LINE#         312
 C1:FACDH         LINE#         313
 C1:FACDH         LINE#         314
 C1:FAD0H         LINE#         315
 C1:FAD6H         LINE#         316
 C1:FAD9H         LINE#         317
  -------         ENDPROC       _ILMSGCLU15INDICATION

  -------         PROC BANK=1   _ILMSGMDPS11INDICATION
  X:0000H         SYMBOL        rxObject
 C1:FADAH         LINE#         320
 C1:FADAH         LINE#         321
 C1:FADAH         LINE#         322
 C1:FADAH         LINE#         323
 C1:FADDH         LINE#         324
 C1:FAE3H         LINE#         325
 C1:FAE6H         LINE#         326
  -------         ENDPROC       _ILMSGMDPS11INDICATION

  -------         PROC BANK=1   _ILMSGSAS1INDICATION
  X:0000H         SYMBOL        rxObject
 C1:FAE7H         LINE#         329
 C1:FAE7H         LINE#         330
 C1:FAE7H         LINE#         331
 C1:FAE7H         LINE#         332
 C1:FAEAH         LINE#         333
 C1:FAF0H         LINE#         334
 C1:FAF3H         LINE#         335
  -------         ENDPROC       _ILMSGSAS1INDICATION
  -------         PROC          ILMSGHU_MON_PE_01TIMEOUTINDICATION
 C1:FAF4H         LINE#         345
 C1:FAF4H         LINE#         346
 C1:FAF4H         LINE#         347
 C1:FAF7H         LINE#         348
 C1:FAFDH         LINE#         349
BL51 BANKED LINKER/LOCATER V6.22                                                      11/17/2023  15:14:24  PAGE 213


 C1:FB00H         LINE#         350
  -------         ENDPROC       ILMSGHU_MON_PE_01TIMEOUTINDICATION

  -------         PROC BANK=1   ILMSGCGW4TIMEOUTINDICATION
 C1:FB01H         LINE#         356
 C1:FB01H         LINE#         357
 C1:FB01H         LINE#         358
 C1:FB04H         LINE#         359
 C1:FB0AH         LINE#         360
 C1:FB0DH         LINE#         361
  -------         ENDPROC       ILMSGCGW4TIMEOUTINDICATION

  -------         PROC BANK=1   ILMSGCGW2TIMEOUTINDICATION
 C1:FB0EH         LINE#         367
 C1:FB0EH         LINE#         368
 C1:FB0EH         LINE#         369
 C1:FB11H         LINE#         370
 C1:FB17H         LINE#         371
 C1:FB1AH         LINE#         372
  -------         ENDPROC       ILMSGCGW2TIMEOUTINDICATION

  -------         PROC BANK=1   ILMSGCLU15TIMEOUTINDICATION
 C1:FB1BH         LINE#         378
 C1:FB1BH         LINE#         379
 C1:FB1BH         LINE#         380
 C1:FB1EH         LINE#         381
 C1:FB24H         LINE#         382
 C1:FB27H         LINE#         383
  -------         ENDPROC       ILMSGCLU15TIMEOUTINDICATION

  -------         PROC BANK=1   ILMSGMDPS11TIMEOUTINDICATION
 C1:FB28H         LINE#         389
 C1:FB28H         LINE#         390
 C1:FB28H         LINE#         391
 C1:FB2BH         LINE#         392
 C1:FB31H         LINE#         393
 C1:FB34H         LINE#         394
  -------         ENDPROC       ILMSGMDPS11TIMEOUTINDICATION

  -------         PROC BANK=1   ILMSGSAS1TIMEOUTINDICATION
 C1:FB35H         LINE#         400
 C1:FB35H         LINE#         401
 C1:FB35H         LINE#         402
 C1:FB38H         LINE#         403
 C1:FB3EH         LINE#         404
 C1:FB41H         LINE#         405
  -------         ENDPROC       ILMSGSAS1TIMEOUTINDICATION

  -------         PROC BANK=1   ILGETRXSAS_ANGLE
  -------         DO            
  X:0B26H         SYMBOL        rc
  -------         ENDDO         
 C1:F0FCH         LINE#         465
 C1:F0FCH         LINE#         466
 C1:F0FCH         LINE#         468
 C1:F0FFH         LINE#         469
 C1:F10CH         LINE#         470
BL51 BANKED LINKER/LOCATER V6.22                                                      11/17/2023  15:14:24  PAGE 214


 C1:F11AH         LINE#         471
 C1:F11DH         LINE#         472
 C1:F125H         LINE#         473
  -------         ENDPROC       ILGETRXSAS_ANGLE
  -------         ENDMOD        IL_PAR

  -------         MODULE        NMB_PAR
  C:0000H         SYMBOL        _ICE_DUMMY_
  D:00A8H         PUBLIC        VSTDLIB_IE
  -------         ENDMOD        NMB_PAR

  -------         MODULE        TP_PAR
  C:0000H         SYMBOL        _ICE_DUMMY_
  D:00A8H         PUBLIC        VSTDLIB_IE
  -------         ENDMOD        TP_PAR

  -------         MODULE        V_PAR
  C:0000H         SYMBOL        _ICE_DUMMY_
  D:00A8H         PUBLIC        VSTDLIB_IE
  C:7386H         PUBLIC        kGENyVersion
  C:7390H         PUBLIC        kDBCVersion
  -------         ENDMOD        V_PAR

  -------         MODULE        F50X_TARGET_OPTIC_INFOBLOCK
  C:0000H         SYMBOL        _ICE_DUMMY_
 C2:FE00H         PUBLIC        OPTICINFOBLOCK
  -------         ENDMOD        F50X_TARGET_OPTIC_INFOBLOCK

  -------         MODULE        ?C?COPY
  C:413EH         PUBLIC        ?C?COPY
  -------         ENDMOD        ?C?COPY

  -------         MODULE        ?C?CLDPTR
  C:4164H         PUBLIC        ?C?CLDPTR
  -------         ENDMOD        ?C?CLDPTR

  -------         MODULE        ?C?CLDOPTR
  C:417DH         PUBLIC        ?C?CLDOPTR
  -------         ENDMOD        ?C?CLDOPTR

  -------         MODULE        ?C?CILDPTR
  C:41AAH         PUBLIC        ?C?CILDPTR
  -------         ENDMOD        ?C?CILDPTR

  -------         MODULE        ?C?CILDOPTR
  C:41CCH         PUBLIC        ?C?CILDOPTR
  -------         ENDMOD        ?C?CILDOPTR

  -------         MODULE        ?C?CSTPTR
  C:41FFH         PUBLIC        ?C?CSTPTR
  -------         ENDMOD        ?C?CSTPTR

  -------         MODULE        ?C?CSTOPTR
  C:4211H         PUBLIC        ?C?CSTOPTR
  -------         ENDMOD        ?C?CSTOPTR

  -------         MODULE        ?C?IMUL
BL51 BANKED LINKER/LOCATER V6.22                                                      11/17/2023  15:14:24  PAGE 215


  C:4233H         PUBLIC        ?C?IMUL
  -------         ENDMOD        ?C?IMUL

  -------         MODULE        ?C?UIDIV
  C:4245H         PUBLIC        ?C?UIDIV
  -------         ENDMOD        ?C?UIDIV

  -------         MODULE        ?C?IILDX
  C:429AH         PUBLIC        ?C?IILDX
  -------         ENDMOD        ?C?IILDX

  -------         MODULE        ?C?ILDPTR
  C:42B0H         PUBLIC        ?C?ILDPTR
  -------         ENDMOD        ?C?ILDPTR

  -------         MODULE        ?C?ILDOPTR
  C:42DBH         PUBLIC        ?C?ILDOPTR
  -------         ENDMOD        ?C?ILDOPTR

  -------         MODULE        ?C?ILDIOPTR
  C:4313H         PUBLIC        ?C?ILDIOPTR
  -------         ENDMOD        ?C?ILDIOPTR

  -------         MODULE        ?C?IILDOPTR
  C:435FH         PUBLIC        ?C?IILDOPTR
  -------         ENDMOD        ?C?IILDOPTR

  -------         MODULE        ?C?ISTPTR
  C:43ACH         PUBLIC        ?C?ISTPTR
  -------         ENDMOD        ?C?ISTPTR

  -------         MODULE        ?C?ISTOPTR
  C:43CBH         PUBLIC        ?C?ISTOPTR
  -------         ENDMOD        ?C?ISTOPTR

  -------         MODULE        ?C?LMUL
  C:43F8H         PUBLIC        ?C?LMUL
  -------         ENDMOD        ?C?LMUL

  -------         MODULE        ?C?ULDIV
  C:4483H         PUBLIC        ?C?ULDIV
  -------         ENDMOD        ?C?ULDIV

  -------         MODULE        ?C?SLDIV
  C:7060H         PUBLIC        ?C?SLDIV
  -------         ENDMOD        ?C?SLDIV

  -------         MODULE        ?C?ULCMP
  C:4515H         PUBLIC        ?C?ULCMP
  -------         ENDMOD        ?C?ULCMP

  -------         MODULE        ?C?ULSHR
  C:4526H         PUBLIC        ?C?ULSHR
  -------         ENDMOD        ?C?ULSHR

  -------         MODULE        ?C?LSHL
  C:4539H         PUBLIC        ?C?LSHL
BL51 BANKED LINKER/LOCATER V6.22                                                      11/17/2023  15:14:24  PAGE 216


  -------         ENDMOD        ?C?LSHL

  -------         MODULE        ?C?LSTXDATA
  C:454CH         PUBLIC        ?C?LSTXDATA
  -------         ENDMOD        ?C?LSTXDATA

  -------         MODULE        ?C?LSTKXDATA
  C:4558H         PUBLIC        ?C?LSTKXDATA
  -------         ENDMOD        ?C?LSTKXDATA

  -------         MODULE        ?C?OFFXADD
  C:4589H         PUBLIC        ?C?OFFXADD
  -------         ENDMOD        ?C?OFFXADD

  -------         MODULE        ?C?PLDPTR
  C:4595H         PUBLIC        ?C?PLDPTR
  -------         ENDMOD        ?C?PLDPTR

  -------         MODULE        ?C?PLDOPTR
  C:45B5H         PUBLIC        ?C?PLDOPTR
  -------         ENDMOD        ?C?PLDOPTR

  -------         MODULE        ?C?PSTOPTR
  C:45E5H         PUBLIC        ?C?PSTOPTR
  -------         ENDMOD        ?C?PSTOPTR

  -------         MODULE        ?C?ICALL
  C:463EH         PUBLIC        ?C?ICALL
  C:4642H         PUBLIC        ?C?ICALL2
  -------         ENDMOD        ?C?ICALL

  -------         MODULE        ?C_XBP
  D:0021H         PUBLIC        ?C_XBP
  -------         ENDMOD        ?C_XBP

  -------         MODULE        ?C?ADDXBP
  C:4644H         PUBLIC        ?C?ADDXBP
  -------         ENDMOD        ?C?ADDXBP

  -------         MODULE        ?C?XBPOFF
  C:4668H         PUBLIC        ?C?XBPOFF
  -------         ENDMOD        ?C?XBPOFF

  -------         MODULE        ?C?LIMUL
  C:4675H         PUBLIC        ?C?LIMUL
  -------         ENDMOD        ?C?LIMUL

  -------         MODULE        ABS
  C:403EH         PUBLIC        _ABS
  -------         ENDMOD        ABS

  -------         MODULE        ?C?MEMCMP
  C:4828H         PUBLIC        ?C?MEMCMP
  -------         ENDMOD        ?C?MEMCMP

  -------         MODULE        ?C?MEMSET
  C:484CH         PUBLIC        ?C?MEMSET
BL51 BANKED LINKER/LOCATER V6.22                                                      11/17/2023  15:14:24  PAGE 217


  -------         ENDMOD        ?C?MEMSET

  -------         MODULE        ?C?ILDIX
  C:4878H         PUBLIC        ?C?ILDIX
  -------         ENDMOD        ?C?ILDIX

  -------         MODULE        ?C?PLDIDATA
  C:488EH         PUBLIC        ?C?PLDIDATA
  -------         ENDMOD        ?C?PLDIDATA

  -------         MODULE        ?C?PSTIDATA
  C:4897H         PUBLIC        ?C?PSTIDATA
  -------         ENDMOD        ?C?PSTIDATA

  -------         MODULE        ?C?PLDXDATA
  C:48A0H         PUBLIC        ?C?PLDXDATA
  -------         ENDMOD        ?C?PLDXDATA

  -------         MODULE        ?C?PSTXDATA
  C:48A9H         PUBLIC        ?C?PSTXDATA
  -------         ENDMOD        ?C?PSTXDATA

  -------         MODULE        ?C?PLDPDATA
  C:48B2H         PUBLIC        ?C?PLDPDATA
  -------         ENDMOD        ?C?PLDPDATA

  -------         MODULE        ?C?PSTPDATA
  C:48BBH         PUBLIC        ?C?PSTPDATA
  -------         ENDMOD        ?C?PSTPDATA

  -------         MODULE        ?C?PLDCODE
  C:48C4H         PUBLIC        ?C?PLDCODE
  -------         ENDMOD        ?C?PLDCODE

*** WARNING L1: UNRESOLVED EXTERNAL SYMBOL
    SYMBOL:  _ILPUTTXRVM_VIEW
    MODULE:  D:\micom_diag\CK\AVN\FIRMWARE\Application\mgr_comm.obj (MGR_COMM)

*** WARNING L1: UNRESOLVED EXTERNAL SYMBOL
    SYMBOL:  _ILPUTTXRVM_SW_IND
    MODULE:  D:\micom_diag\CK\AVN\FIRMWARE\Application\mgr_comm.obj (MGR_COMM)

*** WARNING L2: REFERENCE MADE TO UNRESOLVED EXTERNAL
    SYMBOL:  _ILPUTTXRVM_VIEW
    MODULE:  D:\micom_diag\CK\AVN\FIRMWARE\Application\mgr_comm.obj (MGR_COMM)
    ADDRESS: FD66H

*** WARNING L2: REFERENCE MADE TO UNRESOLVED EXTERNAL
    SYMBOL:  _ILPUTTXRVM_SW_IND
    MODULE:  D:\micom_diag\CK\AVN\FIRMWARE\Application\mgr_comm.obj (MGR_COMM)
    ADDRESS: FD6AH

*** WARNING L1: UNRESOLVED EXTERNAL SYMBOL
    SYMBOL:  ILGETRXG_SEL_DISP
    MODULE:  D:\micom_diag\CK\AVN\FIRMWARE\Application\drv_can.obj (DRV_CAN)

*** WARNING L1: UNRESOLVED EXTERNAL SYMBOL
BL51 BANKED LINKER/LOCATER V6.22                                                      11/17/2023  15:14:24  PAGE 218


    SYMBOL:  ILGETRXCF_GWAY_IGNSW
    MODULE:  D:\micom_diag\CK\AVN\FIRMWARE\Application\drv_can.obj (DRV_CAN)

*** WARNING L1: UNRESOLVED EXTERNAL SYMBOL
    SYMBOL:  ILGETRXHU_RVM_CAMERAOFF
    MODULE:  D:\micom_diag\CK\AVN\FIRMWARE\Application\drv_can.obj (DRV_CAN)

*** WARNING L1: UNRESOLVED EXTERNAL SYMBOL
    SYMBOL:  ILGETRXCF_CK_FCZC_RVM_SW
    MODULE:  D:\micom_diag\CK\AVN\FIRMWARE\Application\drv_can.obj (DRV_CAN)

*** WARNING L1: UNRESOLVED EXTERNAL SYMBOL
    SYMBOL:  ILGETRXWD4_ERR
    MODULE:  D:\micom_diag\CK\AVN\FIRMWARE\Application\drv_can.obj (DRV_CAN)

*** WARNING L1: UNRESOLVED EXTERNAL SYMBOL
    SYMBOL:  ILGETRXENG_VOL
    MODULE:  D:\micom_diag\CK\AVN\FIRMWARE\Application\drv_can.obj (DRV_CAN)

*** WARNING L2: REFERENCE MADE TO UNRESOLVED EXTERNAL
    SYMBOL:  ILGETRXG_SEL_DISP
    MODULE:  D:\micom_diag\CK\AVN\FIRMWARE\Application\drv_can.obj (DRV_CAN)
    ADDRESS: DAAAH

*** WARNING L2: REFERENCE MADE TO UNRESOLVED EXTERNAL
    SYMBOL:  ILGETRXCF_GWAY_IGNSW
    MODULE:  D:\micom_diag\CK\AVN\FIRMWARE\Application\drv_can.obj (DRV_CAN)
    ADDRESS: D23AH

*** WARNING L2: REFERENCE MADE TO UNRESOLVED EXTERNAL
    SYMBOL:  ILGETRXHU_RVM_CAMERAOFF
    MODULE:  D:\micom_diag\CK\AVN\FIRMWARE\Application\drv_can.obj (DRV_CAN)
    ADDRESS: E7BAH

*** WARNING L2: REFERENCE MADE TO UNRESOLVED EXTERNAL
    SYMBOL:  ILGETRXCF_CK_FCZC_RVM_SW
    MODULE:  D:\micom_diag\CK\AVN\FIRMWARE\Application\drv_can.obj (DRV_CAN)
    ADDRESS: D2DFH

*** WARNING L2: REFERENCE MADE TO UNRESOLVED EXTERNAL
    SYMBOL:  ILGETRXWD4_ERR
    MODULE:  D:\micom_diag\CK\AVN\FIRMWARE\Application\drv_can.obj (DRV_CAN)
    ADDRESS: CBE2H

*** WARNING L2: REFERENCE MADE TO UNRESOLVED EXTERNAL
    SYMBOL:  ILGETRXENG_VOL
    MODULE:  D:\micom_diag\CK\AVN\FIRMWARE\Application\drv_can.obj (DRV_CAN)
    ADDRESS: B6DDH

*** WARNING L1: UNRESOLVED EXTERNAL SYMBOL
    SYMBOL:  CANCONFIRMATIONOFFSET
    MODULE:  D:\micom_diag\mcnex_diagnostic_bit\CanBSW\can_drv.obj (CAN_DRV)

*** WARNING L1: UNRESOLVED EXTERNAL SYMBOL
    SYMBOL:  CANCONFIRMATIONMASK
    MODULE:  D:\micom_diag\mcnex_diagnostic_bit\CanBSW\can_drv.obj (CAN_DRV)

BL51 BANKED LINKER/LOCATER V6.22                                                      11/17/2023  15:14:24  PAGE 219


*** WARNING L1: UNRESOLVED EXTERNAL SYMBOL
    SYMBOL:  _?APPLCANFATALERROR
    MODULE:  D:\micom_diag\mcnex_diagnostic_bit\CanBSW\can_drv.obj (CAN_DRV)

*** WARNING L2: REFERENCE MADE TO UNRESOLVED EXTERNAL
    SYMBOL:  _?APPLCANFATALERROR
    MODULE:  D:\micom_diag\mcnex_diagnostic_bit\CanBSW\can_drv.obj (CAN_DRV)
    ADDRESS: 71E1H

*** WARNING L2: REFERENCE MADE TO UNRESOLVED EXTERNAL
    SYMBOL:  _?APPLCANFATALERROR
    MODULE:  D:\micom_diag\mcnex_diagnostic_bit\CanBSW\can_drv.obj (CAN_DRV)
    ADDRESS: 545CH

*** WARNING L2: REFERENCE MADE TO UNRESOLVED EXTERNAL
    SYMBOL:  _?APPLCANFATALERROR
    MODULE:  D:\micom_diag\mcnex_diagnostic_bit\CanBSW\can_drv.obj (CAN_DRV)
    ADDRESS: 5483H

*** WARNING L2: REFERENCE MADE TO UNRESOLVED EXTERNAL
    SYMBOL:  _?APPLCANFATALERROR
    MODULE:  D:\micom_diag\mcnex_diagnostic_bit\CanBSW\can_drv.obj (CAN_DRV)
    ADDRESS: 54B5H

*** WARNING L2: REFERENCE MADE TO UNRESOLVED EXTERNAL
    SYMBOL:  _?APPLCANFATALERROR
    MODULE:  D:\micom_diag\mcnex_diagnostic_bit\CanBSW\can_drv.obj (CAN_DRV)
    ADDRESS: 5A90H

*** WARNING L2: REFERENCE MADE TO UNRESOLVED EXTERNAL
    SYMBOL:  _?APPLCANFATALERROR
    MODULE:  D:\micom_diag\mcnex_diagnostic_bit\CanBSW\can_drv.obj (CAN_DRV)
    ADDRESS: 5AA3H

*** WARNING L2: REFERENCE MADE TO UNRESOLVED EXTERNAL
    SYMBOL:  _?APPLCANFATALERROR
    MODULE:  D:\micom_diag\mcnex_diagnostic_bit\CanBSW\can_drv.obj (CAN_DRV)
    ADDRESS: 5C50H

*** WARNING L2: REFERENCE MADE TO UNRESOLVED EXTERNAL
    SYMBOL:  _?APPLCANFATALERROR
    MODULE:  D:\micom_diag\mcnex_diagnostic_bit\CanBSW\can_drv.obj (CAN_DRV)
    ADDRESS: 5D05H

*** WARNING L2: REFERENCE MADE TO UNRESOLVED EXTERNAL
    SYMBOL:  _?APPLCANFATALERROR
    MODULE:  D:\micom_diag\mcnex_diagnostic_bit\CanBSW\can_drv.obj (CAN_DRV)
    ADDRESS: 5D3EH

*** WARNING L2: REFERENCE MADE TO UNRESOLVED EXTERNAL
    SYMBOL:  _?APPLCANFATALERROR
    MODULE:  D:\micom_diag\mcnex_diagnostic_bit\CanBSW\can_drv.obj (CAN_DRV)
    ADDRESS: 490FH

*** WARNING L2: REFERENCE MADE TO UNRESOLVED EXTERNAL
    SYMBOL:  _?APPLCANFATALERROR
    MODULE:  D:\micom_diag\mcnex_diagnostic_bit\CanBSW\can_drv.obj (CAN_DRV)
BL51 BANKED LINKER/LOCATER V6.22                                                      11/17/2023  15:14:24  PAGE 220


    ADDRESS: 4925H

*** WARNING L2: REFERENCE MADE TO UNRESOLVED EXTERNAL
    SYMBOL:  _?APPLCANFATALERROR
    MODULE:  D:\micom_diag\mcnex_diagnostic_bit\CanBSW\can_drv.obj (CAN_DRV)
    ADDRESS: 4944H

*** WARNING L2: REFERENCE MADE TO UNRESOLVED EXTERNAL
    SYMBOL:  _?APPLCANFATALERROR
    MODULE:  D:\micom_diag\mcnex_diagnostic_bit\CanBSW\can_drv.obj (CAN_DRV)
    ADDRESS: 4CB3H

*** WARNING L2: REFERENCE MADE TO UNRESOLVED EXTERNAL
    SYMBOL:  _?APPLCANFATALERROR
    MODULE:  D:\micom_diag\mcnex_diagnostic_bit\CanBSW\can_drv.obj (CAN_DRV)
    ADDRESS: 6613H

*** WARNING L2: REFERENCE MADE TO UNRESOLVED EXTERNAL
    SYMBOL:  _?APPLCANFATALERROR
    MODULE:  D:\micom_diag\mcnex_diagnostic_bit\CanBSW\can_drv.obj (CAN_DRV)
    ADDRESS: 5856H

*** WARNING L2: REFERENCE MADE TO UNRESOLVED EXTERNAL
    SYMBOL:  CANCONFIRMATIONOFFSET
    MODULE:  D:\micom_diag\mcnex_diagnostic_bit\CanBSW\can_drv.obj (CAN_DRV)
    ADDRESS: 5896H

*** WARNING L2: REFERENCE MADE TO UNRESOLVED EXTERNAL
    SYMBOL:  CANCONFIRMATIONOFFSET
    MODULE:  D:\micom_diag\mcnex_diagnostic_bit\CanBSW\can_drv.obj (CAN_DRV)
    ADDRESS: 589BH

*** WARNING L2: REFERENCE MADE TO UNRESOLVED EXTERNAL
    SYMBOL:  CANCONFIRMATIONMASK
    MODULE:  D:\micom_diag\mcnex_diagnostic_bit\CanBSW\can_drv.obj (CAN_DRV)
    ADDRESS: 58A5H

*** WARNING L2: REFERENCE MADE TO UNRESOLVED EXTERNAL
    SYMBOL:  CANCONFIRMATIONMASK
    MODULE:  D:\micom_diag\mcnex_diagnostic_bit\CanBSW\can_drv.obj (CAN_DRV)
    ADDRESS: 58AAH

*** WARNING L2: REFERENCE MADE TO UNRESOLVED EXTERNAL
    SYMBOL:  _?APPLCANFATALERROR
    MODULE:  D:\micom_diag\mcnex_diagnostic_bit\CanBSW\can_drv.obj (CAN_DRV)
    ADDRESS: 736EH

*** WARNING L2: REFERENCE MADE TO UNRESOLVED EXTERNAL
    SYMBOL:  _?APPLCANFATALERROR
    MODULE:  D:\micom_diag\mcnex_diagnostic_bit\CanBSW\can_drv.obj (CAN_DRV)
    ADDRESS: 7264H

*** WARNING L2: REFERENCE MADE TO UNRESOLVED EXTERNAL
    SYMBOL:  _?APPLCANFATALERROR
    MODULE:  D:\micom_diag\mcnex_diagnostic_bit\CanBSW\can_drv.obj (CAN_DRV)
    ADDRESS: 6DECH

BL51 BANKED LINKER/LOCATER V6.22                                                      11/17/2023  15:14:24  PAGE 221


*** WARNING L2: REFERENCE MADE TO UNRESOLVED EXTERNAL
    SYMBOL:  _?APPLCANFATALERROR
    MODULE:  D:\micom_diag\mcnex_diagnostic_bit\CanBSW\can_drv.obj (CAN_DRV)
    ADDRESS: 6F1AH

*** WARNING L2: REFERENCE MADE TO UNRESOLVED EXTERNAL
    SYMBOL:  _?APPLCANFATALERROR
    MODULE:  D:\micom_diag\mcnex_diagnostic_bit\CanBSW\can_drv.obj (CAN_DRV)
    ADDRESS: 7101H

*** WARNING L1: UNRESOLVED EXTERNAL SYMBOL
    SYMBOL:  CANCONFIRMATIONOFFSET
    MODULE:  D:\micom_diag\mcnex_diagnostic_bit\CanBSW\il.obj (IL)

*** WARNING L1: UNRESOLVED EXTERNAL SYMBOL
    SYMBOL:  CANCONFIRMATIONMASK
    MODULE:  D:\micom_diag\mcnex_diagnostic_bit\CanBSW\il.obj (IL)

*** WARNING L1: UNRESOLVED EXTERNAL SYMBOL
    SYMBOL:  ILCANHNDTOILHND
    MODULE:  D:\micom_diag\mcnex_diagnostic_bit\CanBSW\il.obj (IL)

*** WARNING L1: UNRESOLVED EXTERNAL SYMBOL
    SYMBOL:  ILTXDEFAULTINITVALUE
    MODULE:  D:\micom_diag\mcnex_diagnostic_bit\CanBSW\il.obj (IL)

*** WARNING L1: UNRESOLVED EXTERNAL SYMBOL
    SYMBOL:  ILTXTYPE
    MODULE:  D:\micom_diag\mcnex_diagnostic_bit\CanBSW\il.obj (IL)

*** WARNING L1: UNRESOLVED EXTERNAL SYMBOL
    SYMBOL:  ILTXCYCLICCYCLES
    MODULE:  D:\micom_diag\mcnex_diagnostic_bit\CanBSW\il.obj (IL)

*** WARNING L1: UNRESOLVED EXTERNAL SYMBOL
    SYMBOL:  ILTXSTARTCYCLES
    MODULE:  D:\micom_diag\mcnex_diagnostic_bit\CanBSW\il.obj (IL)

*** WARNING L1: UNRESOLVED EXTERNAL SYMBOL
    SYMBOL:  ILTXUPDATECYCLES
    MODULE:  D:\micom_diag\mcnex_diagnostic_bit\CanBSW\il.obj (IL)

*** WARNING L1: UNRESOLVED EXTERNAL SYMBOL
    SYMBOL:  ILTXEVENTCYCLES
    MODULE:  D:\micom_diag\mcnex_diagnostic_bit\CanBSW\il.obj (IL)

*** WARNING L1: UNRESOLVED EXTERNAL SYMBOL
    SYMBOL:  ILTXCONFIRMATIONFCTPTR
    MODULE:  D:\micom_diag\mcnex_diagnostic_bit\CanBSW\il.obj (IL)

*** WARNING L1: UNRESOLVED EXTERNAL SYMBOL
    SYMBOL:  ILTXINDIRECTION
    MODULE:  D:\micom_diag\mcnex_diagnostic_bit\CanBSW\il.obj (IL)

*** WARNING L1: UNRESOLVED EXTERNAL SYMBOL
    SYMBOL:  ILRESETCANCONFIRMATIONFLAGS
    MODULE:  D:\micom_diag\mcnex_diagnostic_bit\CanBSW\il.obj (IL)
BL51 BANKED LINKER/LOCATER V6.22                                                      11/17/2023  15:14:24  PAGE 222



*** WARNING L2: REFERENCE MADE TO UNRESOLVED EXTERNAL
    SYMBOL:  ILTXINDIRECTION
    MODULE:  D:\micom_diag\mcnex_diagnostic_bit\CanBSW\il.obj (IL)
    ADDRESS: D3E4H

*** WARNING L2: REFERENCE MADE TO UNRESOLVED EXTERNAL
    SYMBOL:  ILTXINDIRECTION
    MODULE:  D:\micom_diag\mcnex_diagnostic_bit\CanBSW\il.obj (IL)
    ADDRESS: D3E9H

*** WARNING L2: REFERENCE MADE TO UNRESOLVED EXTERNAL
    SYMBOL:  ILTXINDIRECTION
    MODULE:  D:\micom_diag\mcnex_diagnostic_bit\CanBSW\il.obj (IL)
    ADDRESS: 9CBEH

*** WARNING L2: REFERENCE MADE TO UNRESOLVED EXTERNAL
    SYMBOL:  ILTXINDIRECTION
    MODULE:  D:\micom_diag\mcnex_diagnostic_bit\CanBSW\il.obj (IL)
    ADDRESS: 9CC3H

*** WARNING L2: REFERENCE MADE TO UNRESOLVED EXTERNAL
    SYMBOL:  ILTXDEFAULTINITVALUE
    MODULE:  D:\micom_diag\mcnex_diagnostic_bit\CanBSW\il.obj (IL)
    ADDRESS: 9CF1H

*** WARNING L2: REFERENCE MADE TO UNRESOLVED EXTERNAL
    SYMBOL:  ILTXDEFAULTINITVALUE
    MODULE:  D:\micom_diag\mcnex_diagnostic_bit\CanBSW\il.obj (IL)
    ADDRESS: 9CF6H

*** WARNING L2: REFERENCE MADE TO UNRESOLVED EXTERNAL
    SYMBOL:  ILTXINDIRECTION
    MODULE:  D:\micom_diag\mcnex_diagnostic_bit\CanBSW\il.obj (IL)
    ADDRESS: 9D09H

*** WARNING L2: REFERENCE MADE TO UNRESOLVED EXTERNAL
    SYMBOL:  ILTXINDIRECTION
    MODULE:  D:\micom_diag\mcnex_diagnostic_bit\CanBSW\il.obj (IL)
    ADDRESS: 9D0EH

*** WARNING L2: REFERENCE MADE TO UNRESOLVED EXTERNAL
    SYMBOL:  ILTXDEFAULTINITVALUE
    MODULE:  D:\micom_diag\mcnex_diagnostic_bit\CanBSW\il.obj (IL)
    ADDRESS: 9D37H

*** WARNING L2: REFERENCE MADE TO UNRESOLVED EXTERNAL
    SYMBOL:  ILTXDEFAULTINITVALUE
    MODULE:  D:\micom_diag\mcnex_diagnostic_bit\CanBSW\il.obj (IL)
    ADDRESS: 9D3CH

*** WARNING L2: REFERENCE MADE TO UNRESOLVED EXTERNAL
    SYMBOL:  ILTXINDIRECTION
    MODULE:  D:\micom_diag\mcnex_diagnostic_bit\CanBSW\il.obj (IL)
    ADDRESS: 9D70H

*** WARNING L2: REFERENCE MADE TO UNRESOLVED EXTERNAL
BL51 BANKED LINKER/LOCATER V6.22                                                      11/17/2023  15:14:24  PAGE 223


    SYMBOL:  ILTXINDIRECTION
    MODULE:  D:\micom_diag\mcnex_diagnostic_bit\CanBSW\il.obj (IL)
    ADDRESS: 9D75H

*** WARNING L2: REFERENCE MADE TO UNRESOLVED EXTERNAL
    SYMBOL:  ILTXTYPE
    MODULE:  D:\micom_diag\mcnex_diagnostic_bit\CanBSW\il.obj (IL)
    ADDRESS: D5B0H

*** WARNING L2: REFERENCE MADE TO UNRESOLVED EXTERNAL
    SYMBOL:  ILTXSTARTCYCLES
    MODULE:  D:\micom_diag\mcnex_diagnostic_bit\CanBSW\il.obj (IL)
    ADDRESS: D5D8H

*** WARNING L2: REFERENCE MADE TO UNRESOLVED EXTERNAL
    SYMBOL:  ILRESETCANCONFIRMATIONFLAGS
    MODULE:  D:\micom_diag\mcnex_diagnostic_bit\CanBSW\il.obj (IL)
    ADDRESS: D601H

*** WARNING L2: REFERENCE MADE TO UNRESOLVED EXTERNAL
    SYMBOL:  ILTXINDIRECTION
    MODULE:  D:\micom_diag\mcnex_diagnostic_bit\CanBSW\il.obj (IL)
    ADDRESS: CA07H

*** WARNING L2: REFERENCE MADE TO UNRESOLVED EXTERNAL
    SYMBOL:  ILTXINDIRECTION
    MODULE:  D:\micom_diag\mcnex_diagnostic_bit\CanBSW\il.obj (IL)
    ADDRESS: CA0CH

*** WARNING L2: REFERENCE MADE TO UNRESOLVED EXTERNAL
    SYMBOL:  CANCONFIRMATIONOFFSET
    MODULE:  D:\micom_diag\mcnex_diagnostic_bit\CanBSW\il.obj (IL)
    ADDRESS: CA31H

*** WARNING L2: REFERENCE MADE TO UNRESOLVED EXTERNAL
    SYMBOL:  CANCONFIRMATIONOFFSET
    MODULE:  D:\micom_diag\mcnex_diagnostic_bit\CanBSW\il.obj (IL)
    ADDRESS: CA35H

*** WARNING L2: REFERENCE MADE TO UNRESOLVED EXTERNAL
    SYMBOL:  CANCONFIRMATIONMASK
    MODULE:  D:\micom_diag\mcnex_diagnostic_bit\CanBSW\il.obj (IL)
    ADDRESS: CA3FH

*** WARNING L2: REFERENCE MADE TO UNRESOLVED EXTERNAL
    SYMBOL:  CANCONFIRMATIONMASK
    MODULE:  D:\micom_diag\mcnex_diagnostic_bit\CanBSW\il.obj (IL)
    ADDRESS: CA44H

*** WARNING L2: REFERENCE MADE TO UNRESOLVED EXTERNAL
    SYMBOL:  CANCONFIRMATIONOFFSET
    MODULE:  D:\micom_diag\mcnex_diagnostic_bit\CanBSW\il.obj (IL)
    ADDRESS: CA59H

*** WARNING L2: REFERENCE MADE TO UNRESOLVED EXTERNAL
    SYMBOL:  CANCONFIRMATIONOFFSET
    MODULE:  D:\micom_diag\mcnex_diagnostic_bit\CanBSW\il.obj (IL)
BL51 BANKED LINKER/LOCATER V6.22                                                      11/17/2023  15:14:24  PAGE 224


    ADDRESS: CA5DH

*** WARNING L2: REFERENCE MADE TO UNRESOLVED EXTERNAL
    SYMBOL:  CANCONFIRMATIONMASK
    MODULE:  D:\micom_diag\mcnex_diagnostic_bit\CanBSW\il.obj (IL)
    ADDRESS: CA67H

*** WARNING L2: REFERENCE MADE TO UNRESOLVED EXTERNAL
    SYMBOL:  CANCONFIRMATIONMASK
    MODULE:  D:\micom_diag\mcnex_diagnostic_bit\CanBSW\il.obj (IL)
    ADDRESS: CA6CH

*** WARNING L2: REFERENCE MADE TO UNRESOLVED EXTERNAL
    SYMBOL:  ILTXUPDATECYCLES
    MODULE:  D:\micom_diag\mcnex_diagnostic_bit\CanBSW\il.obj (IL)
    ADDRESS: CA7BH

*** WARNING L2: REFERENCE MADE TO UNRESOLVED EXTERNAL
    SYMBOL:  ILTXCONFIRMATIONFCTPTR
    MODULE:  D:\micom_diag\mcnex_diagnostic_bit\CanBSW\il.obj (IL)
    ADDRESS: CA97H

*** WARNING L2: REFERENCE MADE TO UNRESOLVED EXTERNAL
    SYMBOL:  ILTXCONFIRMATIONFCTPTR
    MODULE:  D:\micom_diag\mcnex_diagnostic_bit\CanBSW\il.obj (IL)
    ADDRESS: CA9CH

*** WARNING L2: REFERENCE MADE TO UNRESOLVED EXTERNAL
    SYMBOL:  ILTXCYCLICCYCLES
    MODULE:  D:\micom_diag\mcnex_diagnostic_bit\CanBSW\il.obj (IL)
    ADDRESS: ADD5H

*** WARNING L2: REFERENCE MADE TO UNRESOLVED EXTERNAL
    SYMBOL:  ILTXEVENTCYCLES
    MODULE:  D:\micom_diag\mcnex_diagnostic_bit\CanBSW\il.obj (IL)
    ADDRESS: AE80H

*** WARNING L2: REFERENCE MADE TO UNRESOLVED EXTERNAL
    SYMBOL:  ILCANHNDTOILHND
    MODULE:  D:\micom_diag\mcnex_diagnostic_bit\CanBSW\il.obj (IL)
    ADDRESS: EAFBH

*** WARNING L2: REFERENCE MADE TO UNRESOLVED EXTERNAL
    SYMBOL:  ILCANHNDTOILHND
    MODULE:  D:\micom_diag\mcnex_diagnostic_bit\CanBSW\il.obj (IL)
    ADDRESS: EB00H

*** WARNING L2: REFERENCE MADE TO UNRESOLVED EXTERNAL
    SYMBOL:  ILCANHNDTOILHND
    MODULE:  D:\micom_diag\mcnex_diagnostic_bit\CanBSW\il.obj (IL)
    ADDRESS: EB0FH

*** WARNING L2: REFERENCE MADE TO UNRESOLVED EXTERNAL
    SYMBOL:  ILCANHNDTOILHND
    MODULE:  D:\micom_diag\mcnex_diagnostic_bit\CanBSW\il.obj (IL)
    ADDRESS: EB14H

BL51 BANKED LINKER/LOCATER V6.22                                                      11/17/2023  15:14:24  PAGE 225


*** WARNING L1: UNRESOLVED EXTERNAL SYMBOL
    SYMBOL:  _APPLNMBASICFATALERROR
    MODULE:  D:\micom_diag\mcnex_diagnostic_bit\CanBSW\nm_basic.obj (NM_BASIC)

*** WARNING L2: REFERENCE MADE TO UNRESOLVED EXTERNAL
    SYMBOL:  _APPLNMBASICFATALERROR
    MODULE:  D:\micom_diag\mcnex_diagnostic_bit\CanBSW\nm_basic.obj (NM_BASIC)
    ADDRESS: C75BH

*** WARNING L1: UNRESOLVED EXTERNAL SYMBOL
    SYMBOL:  _DIAG_WARNING_ONOFF
    MODULE:  D:\micom_diag\mcnex_diagnostic_bit\CANGEN_MCNEX\appdesc.obj (APPDESC)

*** WARNING L2: REFERENCE MADE TO UNRESOLVED EXTERNAL
    SYMBOL:  _DIAG_WARNING_ONOFF
    MODULE:  D:\micom_diag\mcnex_diagnostic_bit\CANGEN_MCNEX\appdesc.obj (APPDESC)
    ADDRESS: 92A6H

*** WARNING L2: REFERENCE MADE TO UNRESOLVED EXTERNAL
    SYMBOL:  _DIAG_WARNING_ONOFF
    MODULE:  D:\micom_diag\mcnex_diagnostic_bit\CANGEN_MCNEX\appdesc.obj (APPDESC)
    ADDRESS: 92C1H

Program Size: data=80.4 xdata=2898 code=51224
LINK/LOCATE RUN COMPLETE.  94 WARNING(S),  0 ERROR(S)
